[NES_ROM] Opening NES ROM file './roms/nestest/nestest.nes' ...
[NES_ROM] HEADER: Flags6 = 0x0
[NES_ROM] HEADER: Flags7 = 0x0
[NES_ROM] HEADER: Mapper_ID = 0
[NES_CPU] Starts code at c000
C000  4C F5 C5  JMP $C5F5                       A:00 X:00 Y:00 P:24 SP:FD CYC:  0
C5F5  A2 00     LDX #$00                        A:00 X:00 Y:00 P:24 SP:FD CYC:  0
C5F7  86 00     STX $00 = 00                    A:00 X:00 Y:00 P:26 SP:FD CYC:  0
C5F9  86 10     STX $10 = 00                    A:00 X:00 Y:00 P:26 SP:FD CYC:  0
C5FB  86 11     STX $11 = 00                    A:00 X:00 Y:00 P:26 SP:FD CYC:  0
C5FD  20 2D C7  JSR $C72D                       A:00 X:00 Y:00 P:26 SP:FD CYC:  0
C72D  EA        NOP                             A:00 X:00 Y:00 P:26 SP:FB CYC:  0
C72E  38        SEC                             A:00 X:00 Y:00 P:26 SP:FB CYC:  0
C72F  B0 04     BCS $C735                       A:00 X:00 Y:00 P:27 SP:FB CYC:  0
C735  EA        NOP                             A:00 X:00 Y:00 P:27 SP:FB CYC:  0
C736  18        CLC                             A:00 X:00 Y:00 P:27 SP:FB CYC:  0
C737  B0 03     BCS $C73C                       A:00 X:00 Y:00 P:26 SP:FB CYC:  0
C739  4C 40 C7  JMP $C740                       A:00 X:00 Y:00 P:26 SP:FB CYC:  0
C740  EA        NOP                             A:00 X:00 Y:00 P:26 SP:FB CYC:  0
C741  38        SEC                             A:00 X:00 Y:00 P:26 SP:FB CYC:  0
C742  90 03     BCC $C747                       A:00 X:00 Y:00 P:27 SP:FB CYC:  0
C744  4C 4B C7  JMP $C74B                       A:00 X:00 Y:00 P:27 SP:FB CYC:  0
C74B  EA        NOP                             A:00 X:00 Y:00 P:27 SP:FB CYC:  0
C74C  18        CLC                             A:00 X:00 Y:00 P:27 SP:FB CYC:  0
C74D  90 04     BCC $C753                       A:00 X:00 Y:00 P:26 SP:FB CYC:  0
C753  EA        NOP                             A:00 X:00 Y:00 P:26 SP:FB CYC:  0
C754  A9 00     LDA #$00                        A:00 X:00 Y:00 P:26 SP:FB CYC:  0
C756  F0 04     BEQ $C75C                       A:00 X:00 Y:00 P:26 SP:FB CYC:  0
C75C  EA        NOP                             A:00 X:00 Y:00 P:26 SP:FB CYC:  0
C75D  A9 40     LDA #$40                        A:00 X:00 Y:00 P:26 SP:FB CYC:  0
C75F  F0 03     BEQ $C764                       A:40 X:00 Y:00 P:24 SP:FB CYC:  0
C761  4C 68 C7  JMP $C768                       A:40 X:00 Y:00 P:24 SP:FB CYC:  0
C768  EA        NOP                             A:40 X:00 Y:00 P:24 SP:FB CYC:  0
C769  A9 40     LDA #$40                        A:40 X:00 Y:00 P:24 SP:FB CYC:  0
C76B  D0 04     BNE $C771                       A:40 X:00 Y:00 P:24 SP:FB CYC:  0
C771  EA        NOP                             A:40 X:00 Y:00 P:24 SP:FB CYC:  0
C772  A9 00     LDA #$00                        A:40 X:00 Y:00 P:24 SP:FB CYC:  0
C774  D0 03     BNE $C779                       A:00 X:00 Y:00 P:26 SP:FB CYC:  0
C776  4C 7D C7  JMP $C77D                       A:00 X:00 Y:00 P:26 SP:FB CYC:  0
C77D  EA        NOP                             A:00 X:00 Y:00 P:26 SP:FB CYC:  0
C77E  A9 FF     LDA #$FF                        A:00 X:00 Y:00 P:26 SP:FB CYC:  0
C780  85 01     STA $01 = 00                    A:FF X:00 Y:00 P:A4 SP:FB CYC:  0
C782  24 01     BIT $01 = FF                    A:FF X:00 Y:00 P:A4 SP:FB CYC:  0
C784  70 04     BVS $C78A                       A:FF X:00 Y:00 P:E4 SP:FB CYC:  0
C78A  EA        NOP                             A:FF X:00 Y:00 P:E4 SP:FB CYC:  0
C78B  24 01     BIT $01 = FF                    A:FF X:00 Y:00 P:E4 SP:FB CYC:  0
C78D  50 03     BVC $C792                       A:FF X:00 Y:00 P:E4 SP:FB CYC:  0
C78F  4C 96 C7  JMP $C796                       A:FF X:00 Y:00 P:E4 SP:FB CYC:  0
C796  EA        NOP                             A:FF X:00 Y:00 P:E4 SP:FB CYC:  0
C797  A9 00     LDA #$00                        A:FF X:00 Y:00 P:E4 SP:FB CYC:  0
C799  85 01     STA $01 = FF                    A:00 X:00 Y:00 P:66 SP:FB CYC:  0
C79B  24 01     BIT $01 = 00                    A:00 X:00 Y:00 P:66 SP:FB CYC:  0
C79D  50 04     BVC $C7A3                       A:00 X:00 Y:00 P:26 SP:FB CYC:  0
C7A3  EA        NOP                             A:00 X:00 Y:00 P:26 SP:FB CYC:  0
C7A4  24 01     BIT $01 = 00                    A:00 X:00 Y:00 P:26 SP:FB CYC:  0
C7A6  70 03     BVS $C7AB                       A:00 X:00 Y:00 P:26 SP:FB CYC:  0
C7A8  4C AF C7  JMP $C7AF                       A:00 X:00 Y:00 P:26 SP:FB CYC:  0
C7AF  EA        NOP                             A:00 X:00 Y:00 P:26 SP:FB CYC:  0
C7B0  A9 00     LDA #$00                        A:00 X:00 Y:00 P:26 SP:FB CYC:  0
C7B2  10 04     BPL $C7B8                       A:00 X:00 Y:00 P:26 SP:FB CYC:  0
C7B8  EA        NOP                             A:00 X:00 Y:00 P:26 SP:FB CYC:  0
C7B9  A9 80     LDA #$80                        A:00 X:00 Y:00 P:26 SP:FB CYC:  0
C7BB  10 03     BPL $C7C0                       A:80 X:00 Y:00 P:A4 SP:FB CYC:  0
C7BD  4C D9 C7  JMP $C7D9                       A:80 X:00 Y:00 P:A4 SP:FB CYC:  0
C7D9  EA        NOP                             A:80 X:00 Y:00 P:A4 SP:FB CYC:  0
C7DA  60        RTS                             A:80 X:00 Y:00 P:A4 SP:FB CYC:  0
C600  20 DB C7  JSR $C7DB                       A:80 X:00 Y:00 P:A4 SP:FD CYC:  0
C7DB  EA        NOP                             A:80 X:00 Y:00 P:A4 SP:FB CYC:  0
C7DC  A9 FF     LDA #$FF                        A:80 X:00 Y:00 P:A4 SP:FB CYC:  0
C7DE  85 01     STA $01 = 00                    A:FF X:00 Y:00 P:A4 SP:FB CYC:  0
C7E0  24 01     BIT $01 = FF                    A:FF X:00 Y:00 P:A4 SP:FB CYC:  0
C7E2  A9 00     LDA #$00                        A:FF X:00 Y:00 P:E4 SP:FB CYC:  0
C7E4  38        SEC                             A:00 X:00 Y:00 P:66 SP:FB CYC:  0
C7E5  78        SEI                             A:00 X:00 Y:00 P:67 SP:FB CYC:  0
C7E6  F8        SED                             A:00 X:00 Y:00 P:67 SP:FB CYC:  0
C7E7  08        PHP                             A:00 X:00 Y:00 P:6F SP:FB CYC:  0
C7E8  68        PLA                             A:00 X:00 Y:00 P:6F SP:FA CYC:  0
C7E9  29 EF     AND #$EF                        A:7F X:00 Y:00 P:6D SP:FB CYC:  0
C7EB  C9 6F     CMP #$6F                        A:6F X:00 Y:00 P:6D SP:FB CYC:  0
C7ED  F0 04     BEQ $C7F3                       A:6F X:00 Y:00 P:6F SP:FB CYC:  0
C7F3  EA        NOP                             A:6F X:00 Y:00 P:6F SP:FB CYC:  0
C7F4  A9 40     LDA #$40                        A:6F X:00 Y:00 P:6F SP:FB CYC:  0
C7F6  85 01     STA $01 = FF                    A:40 X:00 Y:00 P:6D SP:FB CYC:  0
C7F8  24 01     BIT $01 = 40                    A:40 X:00 Y:00 P:6D SP:FB CYC:  0
C7FA  D8        CLD                             A:40 X:00 Y:00 P:6D SP:FB CYC:  0
C7FB  A9 10     LDA #$10                        A:40 X:00 Y:00 P:65 SP:FB CYC:  0
C7FD  18        CLC                             A:10 X:00 Y:00 P:65 SP:FB CYC:  0
C7FE  08        PHP                             A:10 X:00 Y:00 P:64 SP:FB CYC:  0
C7FF  68        PLA                             A:10 X:00 Y:00 P:64 SP:FA CYC:  0
C800  29 EF     AND #$EF                        A:74 X:00 Y:00 P:64 SP:FB CYC:  0
C802  C9 64     CMP #$64                        A:64 X:00 Y:00 P:64 SP:FB CYC:  0
C804  F0 04     BEQ $C80A                       A:64 X:00 Y:00 P:67 SP:FB CYC:  0
C80A  EA        NOP                             A:64 X:00 Y:00 P:67 SP:FB CYC:  0
C80B  A9 80     LDA #$80                        A:64 X:00 Y:00 P:67 SP:FB CYC:  0
C80D  85 01     STA $01 = 40                    A:80 X:00 Y:00 P:E5 SP:FB CYC:  0
C80F  24 01     BIT $01 = 80                    A:80 X:00 Y:00 P:E5 SP:FB CYC:  0
C811  F8        SED                             A:80 X:00 Y:00 P:A5 SP:FB CYC:  0
C812  A9 00     LDA #$00                        A:80 X:00 Y:00 P:AD SP:FB CYC:  0
C814  38        SEC                             A:00 X:00 Y:00 P:2F SP:FB CYC:  0
C815  08        PHP                             A:00 X:00 Y:00 P:2F SP:FB CYC:  0
C816  68        PLA                             A:00 X:00 Y:00 P:2F SP:FA CYC:  0
C817  29 EF     AND #$EF                        A:3F X:00 Y:00 P:2D SP:FB CYC:  0
C819  C9 2F     CMP #$2F                        A:2F X:00 Y:00 P:2D SP:FB CYC:  0
C81B  F0 04     BEQ $C821                       A:2F X:00 Y:00 P:2F SP:FB CYC:  0
C821  EA        NOP                             A:2F X:00 Y:00 P:2F SP:FB CYC:  0
C822  A9 FF     LDA #$FF                        A:2F X:00 Y:00 P:2F SP:FB CYC:  0
C824  48        PHA                             A:FF X:00 Y:00 P:AD SP:FB CYC:  0
C825  28        PLP                             A:FF X:00 Y:00 P:AD SP:FA CYC:  0
C826  D0 09     BNE $C831                       A:FF X:00 Y:00 P:EF SP:FB CYC:  0
C828  10 07     BPL $C831                       A:FF X:00 Y:00 P:EF SP:FB CYC:  0
C82A  50 05     BVC $C831                       A:FF X:00 Y:00 P:EF SP:FB CYC:  0
C82C  90 03     BCC $C831                       A:FF X:00 Y:00 P:EF SP:FB CYC:  0
C82E  4C 35 C8  JMP $C835                       A:FF X:00 Y:00 P:EF SP:FB CYC:  0
C835  EA        NOP                             A:FF X:00 Y:00 P:EF SP:FB CYC:  0
C836  A9 04     LDA #$04                        A:FF X:00 Y:00 P:EF SP:FB CYC:  0
C838  48        PHA                             A:04 X:00 Y:00 P:6D SP:FB CYC:  0
C839  28        PLP                             A:04 X:00 Y:00 P:6D SP:FA CYC:  0
C83A  F0 09     BEQ $C845                       A:04 X:00 Y:00 P:24 SP:FB CYC:  0
C83C  30 07     BMI $C845                       A:04 X:00 Y:00 P:24 SP:FB CYC:  0
C83E  70 05     BVS $C845                       A:04 X:00 Y:00 P:24 SP:FB CYC:  0
C840  B0 03     BCS $C845                       A:04 X:00 Y:00 P:24 SP:FB CYC:  0
C842  4C 49 C8  JMP $C849                       A:04 X:00 Y:00 P:24 SP:FB CYC:  0
C849  EA        NOP                             A:04 X:00 Y:00 P:24 SP:FB CYC:  0
C84A  F8        SED                             A:04 X:00 Y:00 P:24 SP:FB CYC:  0
C84B  A9 FF     LDA #$FF                        A:04 X:00 Y:00 P:2C SP:FB CYC:  0
C84D  85 01     STA $01 = 80                    A:FF X:00 Y:00 P:AC SP:FB CYC:  0
C84F  24 01     BIT $01 = FF                    A:FF X:00 Y:00 P:AC SP:FB CYC:  0
C851  18        CLC                             A:FF X:00 Y:00 P:EC SP:FB CYC:  0
C852  A9 00     LDA #$00                        A:FF X:00 Y:00 P:EC SP:FB CYC:  0
C854  48        PHA                             A:00 X:00 Y:00 P:6E SP:FB CYC:  0
C855  A9 FF     LDA #$FF                        A:00 X:00 Y:00 P:6E SP:FA CYC:  0
C857  68        PLA                             A:FF X:00 Y:00 P:EC SP:FA CYC:  0
C858  D0 09     BNE $C863                       A:00 X:00 Y:00 P:6E SP:FB CYC:  0
C85A  30 07     BMI $C863                       A:00 X:00 Y:00 P:6E SP:FB CYC:  0
C85C  50 05     BVC $C863                       A:00 X:00 Y:00 P:6E SP:FB CYC:  0
C85E  B0 03     BCS $C863                       A:00 X:00 Y:00 P:6E SP:FB CYC:  0
C860  4C 67 C8  JMP $C867                       A:00 X:00 Y:00 P:6E SP:FB CYC:  0
C867  EA        NOP                             A:00 X:00 Y:00 P:6E SP:FB CYC:  0
C868  A9 00     LDA #$00                        A:00 X:00 Y:00 P:6E SP:FB CYC:  0
C86A  85 01     STA $01 = FF                    A:00 X:00 Y:00 P:6E SP:FB CYC:  0
C86C  24 01     BIT $01 = 00                    A:00 X:00 Y:00 P:6E SP:FB CYC:  0
C86E  38        SEC                             A:00 X:00 Y:00 P:2E SP:FB CYC:  0
C86F  A9 FF     LDA #$FF                        A:00 X:00 Y:00 P:2F SP:FB CYC:  0
C871  48        PHA                             A:FF X:00 Y:00 P:AD SP:FB CYC:  0
C872  A9 00     LDA #$00                        A:FF X:00 Y:00 P:AD SP:FA CYC:  0
C874  68        PLA                             A:00 X:00 Y:00 P:2F SP:FA CYC:  0
C875  F0 09     BEQ $C880                       A:FF X:00 Y:00 P:AD SP:FB CYC:  0
C877  10 07     BPL $C880                       A:FF X:00 Y:00 P:AD SP:FB CYC:  0
C879  70 05     BVS $C880                       A:FF X:00 Y:00 P:AD SP:FB CYC:  0
C87B  90 03     BCC $C880                       A:FF X:00 Y:00 P:AD SP:FB CYC:  0
C87D  4C 84 C8  JMP $C884                       A:FF X:00 Y:00 P:AD SP:FB CYC:  0
C884  60        RTS                             A:FF X:00 Y:00 P:AD SP:FB CYC:  0
C603  20 85 C8  JSR $C885                       A:FF X:00 Y:00 P:AD SP:FD CYC:  0
C885  EA        NOP                             A:FF X:00 Y:00 P:AD SP:FB CYC:  0
C886  18        CLC                             A:FF X:00 Y:00 P:AD SP:FB CYC:  0
C887  A9 FF     LDA #$FF                        A:FF X:00 Y:00 P:AC SP:FB CYC:  0
C889  85 01     STA $01 = 00                    A:FF X:00 Y:00 P:AC SP:FB CYC:  0
C88B  24 01     BIT $01 = FF                    A:FF X:00 Y:00 P:AC SP:FB CYC:  0
C88D  A9 55     LDA #$55                        A:FF X:00 Y:00 P:EC SP:FB CYC:  0
C88F  09 AA     ORA #$AA                        A:55 X:00 Y:00 P:6C SP:FB CYC:  0
C891  B0 0B     BCS $C89E                       A:FF X:00 Y:00 P:EC SP:FB CYC:  0
C893  10 09     BPL $C89E                       A:FF X:00 Y:00 P:EC SP:FB CYC:  0
C895  C9 FF     CMP #$FF                        A:FF X:00 Y:00 P:EC SP:FB CYC:  0
C897  D0 05     BNE $C89E                       A:FF X:00 Y:00 P:6F SP:FB CYC:  0
C899  50 03     BVC $C89E                       A:FF X:00 Y:00 P:6F SP:FB CYC:  0
C89B  4C A2 C8  JMP $C8A2                       A:FF X:00 Y:00 P:6F SP:FB CYC:  0
C8A2  EA        NOP                             A:FF X:00 Y:00 P:6F SP:FB CYC:  0
C8A3  38        SEC                             A:FF X:00 Y:00 P:6F SP:FB CYC:  0
C8A4  B8        CLV                             A:FF X:00 Y:00 P:6F SP:FB CYC:  0
C8A5  A9 00     LDA #$00                        A:FF X:00 Y:00 P:2F SP:FB CYC:  0
C8A7  09 00     ORA #$00                        A:00 X:00 Y:00 P:2F SP:FB CYC:  0
C8A9  D0 09     BNE $C8B4                       A:00 X:00 Y:00 P:2F SP:FB CYC:  0
C8AB  70 07     BVS $C8B4                       A:00 X:00 Y:00 P:2F SP:FB CYC:  0
C8AD  90 05     BCC $C8B4                       A:00 X:00 Y:00 P:2F SP:FB CYC:  0
C8AF  30 03     BMI $C8B4                       A:00 X:00 Y:00 P:2F SP:FB CYC:  0
C8B1  4C B8 C8  JMP $C8B8                       A:00 X:00 Y:00 P:2F SP:FB CYC:  0
C8B8  EA        NOP                             A:00 X:00 Y:00 P:2F SP:FB CYC:  0
C8B9  18        CLC                             A:00 X:00 Y:00 P:2F SP:FB CYC:  0
C8BA  24 01     BIT $01 = FF                    A:00 X:00 Y:00 P:2E SP:FB CYC:  0
C8BC  A9 55     LDA #$55                        A:00 X:00 Y:00 P:EE SP:FB CYC:  0
C8BE  29 AA     AND #$AA                        A:55 X:00 Y:00 P:6C SP:FB CYC:  0
C8C0  D0 09     BNE $C8CB                       A:00 X:00 Y:00 P:6E SP:FB CYC:  0
C8C2  50 07     BVC $C8CB                       A:00 X:00 Y:00 P:6E SP:FB CYC:  0
C8C4  B0 05     BCS $C8CB                       A:00 X:00 Y:00 P:6E SP:FB CYC:  0
C8C6  30 03     BMI $C8CB                       A:00 X:00 Y:00 P:6E SP:FB CYC:  0
C8C8  4C CF C8  JMP $C8CF                       A:00 X:00 Y:00 P:6E SP:FB CYC:  0
C8CF  EA        NOP                             A:00 X:00 Y:00 P:6E SP:FB CYC:  0
C8D0  38        SEC                             A:00 X:00 Y:00 P:6E SP:FB CYC:  0
C8D1  B8        CLV                             A:00 X:00 Y:00 P:6F SP:FB CYC:  0
C8D2  A9 F8     LDA #$F8                        A:00 X:00 Y:00 P:2F SP:FB CYC:  0
C8D4  29 EF     AND #$EF                        A:F8 X:00 Y:00 P:AD SP:FB CYC:  0
C8D6  90 0B     BCC $C8E3                       A:E8 X:00 Y:00 P:AD SP:FB CYC:  0
C8D8  10 09     BPL $C8E3                       A:E8 X:00 Y:00 P:AD SP:FB CYC:  0
C8DA  C9 E8     CMP #$E8                        A:E8 X:00 Y:00 P:AD SP:FB CYC:  0
C8DC  D0 05     BNE $C8E3                       A:E8 X:00 Y:00 P:2F SP:FB CYC:  0
C8DE  70 03     BVS $C8E3                       A:E8 X:00 Y:00 P:2F SP:FB CYC:  0
C8E0  4C E7 C8  JMP $C8E7                       A:E8 X:00 Y:00 P:2F SP:FB CYC:  0
C8E7  EA        NOP                             A:E8 X:00 Y:00 P:2F SP:FB CYC:  0
C8E8  18        CLC                             A:E8 X:00 Y:00 P:2F SP:FB CYC:  0
C8E9  24 01     BIT $01 = FF                    A:E8 X:00 Y:00 P:2E SP:FB CYC:  0
C8EB  A9 5F     LDA #$5F                        A:E8 X:00 Y:00 P:EC SP:FB CYC:  0
C8ED  49 AA     EOR #$AA                        A:5F X:00 Y:00 P:6C SP:FB CYC:  0
C8EF  B0 0B     BCS $C8FC                       A:F5 X:00 Y:00 P:EC SP:FB CYC:  0
C8F1  10 09     BPL $C8FC                       A:F5 X:00 Y:00 P:EC SP:FB CYC:  0
C8F3  C9 F5     CMP #$F5                        A:F5 X:00 Y:00 P:EC SP:FB CYC:  0
C8F5  D0 05     BNE $C8FC                       A:F5 X:00 Y:00 P:6F SP:FB CYC:  0
C8F7  50 03     BVC $C8FC                       A:F5 X:00 Y:00 P:6F SP:FB CYC:  0
C8F9  4C 00 C9  JMP $C900                       A:F5 X:00 Y:00 P:6F SP:FB CYC:  0
C900  EA        NOP                             A:F5 X:00 Y:00 P:6F SP:FB CYC:  0
C901  38        SEC                             A:F5 X:00 Y:00 P:6F SP:FB CYC:  0
C902  B8        CLV                             A:F5 X:00 Y:00 P:6F SP:FB CYC:  0
C903  A9 70     LDA #$70                        A:F5 X:00 Y:00 P:2F SP:FB CYC:  0
C905  49 70     EOR #$70                        A:70 X:00 Y:00 P:2D SP:FB CYC:  0
C907  D0 09     BNE $C912                       A:00 X:00 Y:00 P:2F SP:FB CYC:  0
C909  70 07     BVS $C912                       A:00 X:00 Y:00 P:2F SP:FB CYC:  0
C90B  90 05     BCC $C912                       A:00 X:00 Y:00 P:2F SP:FB CYC:  0
C90D  30 03     BMI $C912                       A:00 X:00 Y:00 P:2F SP:FB CYC:  0
C90F  4C 16 C9  JMP $C916                       A:00 X:00 Y:00 P:2F SP:FB CYC:  0
C916  EA        NOP                             A:00 X:00 Y:00 P:2F SP:FB CYC:  0
C917  18        CLC                             A:00 X:00 Y:00 P:2F SP:FB CYC:  0
C918  24 01     BIT $01 = FF                    A:00 X:00 Y:00 P:2E SP:FB CYC:  0
C91A  A9 00     LDA #$00                        A:00 X:00 Y:00 P:EE SP:FB CYC:  0
C91C  69 69     ADC #$69                        A:00 X:00 Y:00 P:6E SP:FB CYC:  0
C91E  30 0B     BMI $C92B                       A:69 X:00 Y:00 P:2C SP:FB CYC:  0
C920  B0 09     BCS $C92B                       A:69 X:00 Y:00 P:2C SP:FB CYC:  0
C922  C9 69     CMP #$69                        A:69 X:00 Y:00 P:2C SP:FB CYC:  0
C924  D0 05     BNE $C92B                       A:69 X:00 Y:00 P:2F SP:FB CYC:  0
C926  70 03     BVS $C92B                       A:69 X:00 Y:00 P:2F SP:FB CYC:  0
C928  4C 2F C9  JMP $C92F                       A:69 X:00 Y:00 P:2F SP:FB CYC:  0
C92F  EA        NOP                             A:69 X:00 Y:00 P:2F SP:FB CYC:  0
C930  38        SEC                             A:69 X:00 Y:00 P:2F SP:FB CYC:  0
C931  F8        SED                             A:69 X:00 Y:00 P:2F SP:FB CYC:  0
C932  24 01     BIT $01 = FF                    A:69 X:00 Y:00 P:2F SP:FB CYC:  0
C934  A9 01     LDA #$01                        A:69 X:00 Y:00 P:ED SP:FB CYC:  0
C936  69 69     ADC #$69                        A:01 X:00 Y:00 P:6D SP:FB CYC:  0
C938  30 0B     BMI $C945                       A:6B X:00 Y:00 P:2C SP:FB CYC:  0
C93A  B0 09     BCS $C945                       A:6B X:00 Y:00 P:2C SP:FB CYC:  0
C93C  C9 6B     CMP #$6B                        A:6B X:00 Y:00 P:2C SP:FB CYC:  0
C93E  D0 05     BNE $C945                       A:6B X:00 Y:00 P:2F SP:FB CYC:  0
C940  70 03     BVS $C945                       A:6B X:00 Y:00 P:2F SP:FB CYC:  0
C942  4C 49 C9  JMP $C949                       A:6B X:00 Y:00 P:2F SP:FB CYC:  0
C949  EA        NOP                             A:6B X:00 Y:00 P:2F SP:FB CYC:  0
C94A  D8        CLD                             A:6B X:00 Y:00 P:2F SP:FB CYC:  0
C94B  38        SEC                             A:6B X:00 Y:00 P:27 SP:FB CYC:  0
C94C  B8        CLV                             A:6B X:00 Y:00 P:27 SP:FB CYC:  0
C94D  A9 7F     LDA #$7F                        A:6B X:00 Y:00 P:27 SP:FB CYC:  0
C94F  69 7F     ADC #$7F                        A:7F X:00 Y:00 P:25 SP:FB CYC:  0
C951  10 0B     BPL $C95E                       A:FF X:00 Y:00 P:E4 SP:FB CYC:  0
C953  B0 09     BCS $C95E                       A:FF X:00 Y:00 P:E4 SP:FB CYC:  0
C955  C9 FF     CMP #$FF                        A:FF X:00 Y:00 P:E4 SP:FB CYC:  0
C957  D0 05     BNE $C95E                       A:FF X:00 Y:00 P:67 SP:FB CYC:  0
C959  50 03     BVC $C95E                       A:FF X:00 Y:00 P:67 SP:FB CYC:  0
C95B  4C 62 C9  JMP $C962                       A:FF X:00 Y:00 P:67 SP:FB CYC:  0
C962  EA        NOP                             A:FF X:00 Y:00 P:67 SP:FB CYC:  0
C963  18        CLC                             A:FF X:00 Y:00 P:67 SP:FB CYC:  0
C964  24 01     BIT $01 = FF                    A:FF X:00 Y:00 P:66 SP:FB CYC:  0
C966  A9 7F     LDA #$7F                        A:FF X:00 Y:00 P:E4 SP:FB CYC:  0
C968  69 80     ADC #$80                        A:7F X:00 Y:00 P:64 SP:FB CYC:  0
C96A  10 0B     BPL $C977                       A:FF X:00 Y:00 P:A4 SP:FB CYC:  0
C96C  B0 09     BCS $C977                       A:FF X:00 Y:00 P:A4 SP:FB CYC:  0
C96E  C9 FF     CMP #$FF                        A:FF X:00 Y:00 P:A4 SP:FB CYC:  0
C970  D0 05     BNE $C977                       A:FF X:00 Y:00 P:27 SP:FB CYC:  0
C972  70 03     BVS $C977                       A:FF X:00 Y:00 P:27 SP:FB CYC:  0
C974  4C 7B C9  JMP $C97B                       A:FF X:00 Y:00 P:27 SP:FB CYC:  0
C97B  EA        NOP                             A:FF X:00 Y:00 P:27 SP:FB CYC:  0
C97C  38        SEC                             A:FF X:00 Y:00 P:27 SP:FB CYC:  0
C97D  B8        CLV                             A:FF X:00 Y:00 P:27 SP:FB CYC:  0
C97E  A9 7F     LDA #$7F                        A:FF X:00 Y:00 P:27 SP:FB CYC:  0
C980  69 80     ADC #$80                        A:7F X:00 Y:00 P:25 SP:FB CYC:  0
C982  D0 09     BNE $C98D                       A:00 X:00 Y:00 P:27 SP:FB CYC:  0
C984  30 07     BMI $C98D                       A:00 X:00 Y:00 P:27 SP:FB CYC:  0
C986  70 05     BVS $C98D                       A:00 X:00 Y:00 P:27 SP:FB CYC:  0
C988  90 03     BCC $C98D                       A:00 X:00 Y:00 P:27 SP:FB CYC:  0
C98A  4C 91 C9  JMP $C991                       A:00 X:00 Y:00 P:27 SP:FB CYC:  0
C991  EA        NOP                             A:00 X:00 Y:00 P:27 SP:FB CYC:  0
C992  38        SEC                             A:00 X:00 Y:00 P:27 SP:FB CYC:  0
C993  B8        CLV                             A:00 X:00 Y:00 P:27 SP:FB CYC:  0
C994  A9 9F     LDA #$9F                        A:00 X:00 Y:00 P:27 SP:FB CYC:  0
C996  F0 09     BEQ $C9A1                       A:9F X:00 Y:00 P:A5 SP:FB CYC:  0
C998  10 07     BPL $C9A1                       A:9F X:00 Y:00 P:A5 SP:FB CYC:  0
C99A  70 05     BVS $C9A1                       A:9F X:00 Y:00 P:A5 SP:FB CYC:  0
C99C  90 03     BCC $C9A1                       A:9F X:00 Y:00 P:A5 SP:FB CYC:  0
C99E  4C A5 C9  JMP $C9A5                       A:9F X:00 Y:00 P:A5 SP:FB CYC:  0
C9A5  EA        NOP                             A:9F X:00 Y:00 P:A5 SP:FB CYC:  0
C9A6  18        CLC                             A:9F X:00 Y:00 P:A5 SP:FB CYC:  0
C9A7  24 01     BIT $01 = FF                    A:9F X:00 Y:00 P:A4 SP:FB CYC:  0
C9A9  A9 00     LDA #$00                        A:9F X:00 Y:00 P:E4 SP:FB CYC:  0
C9AB  D0 09     BNE $C9B6                       A:00 X:00 Y:00 P:66 SP:FB CYC:  0
C9AD  30 07     BMI $C9B6                       A:00 X:00 Y:00 P:66 SP:FB CYC:  0
C9AF  50 05     BVC $C9B6                       A:00 X:00 Y:00 P:66 SP:FB CYC:  0
C9B1  B0 03     BCS $C9B6                       A:00 X:00 Y:00 P:66 SP:FB CYC:  0
C9B3  4C BA C9  JMP $C9BA                       A:00 X:00 Y:00 P:66 SP:FB CYC:  0
C9BA  EA        NOP                             A:00 X:00 Y:00 P:66 SP:FB CYC:  0
C9BB  24 01     BIT $01 = FF                    A:00 X:00 Y:00 P:66 SP:FB CYC:  0
C9BD  A9 40     LDA #$40                        A:00 X:00 Y:00 P:E6 SP:FB CYC:  0
C9BF  C9 40     CMP #$40                        A:40 X:00 Y:00 P:64 SP:FB CYC:  0
C9C1  30 09     BMI $C9CC                       A:40 X:00 Y:00 P:67 SP:FB CYC:  0
C9C3  90 07     BCC $C9CC                       A:40 X:00 Y:00 P:67 SP:FB CYC:  0
C9C5  D0 05     BNE $C9CC                       A:40 X:00 Y:00 P:67 SP:FB CYC:  0
C9C7  50 03     BVC $C9CC                       A:40 X:00 Y:00 P:67 SP:FB CYC:  0
C9C9  4C D0 C9  JMP $C9D0                       A:40 X:00 Y:00 P:67 SP:FB CYC:  0
C9D0  EA        NOP                             A:40 X:00 Y:00 P:67 SP:FB CYC:  0
C9D1  B8        CLV                             A:40 X:00 Y:00 P:67 SP:FB CYC:  0
C9D2  C9 3F     CMP #$3F                        A:40 X:00 Y:00 P:27 SP:FB CYC:  0
C9D4  F0 09     BEQ $C9DF                       A:40 X:00 Y:00 P:25 SP:FB CYC:  0
C9D6  30 07     BMI $C9DF                       A:40 X:00 Y:00 P:25 SP:FB CYC:  0
C9D8  90 05     BCC $C9DF                       A:40 X:00 Y:00 P:25 SP:FB CYC:  0
C9DA  70 03     BVS $C9DF                       A:40 X:00 Y:00 P:25 SP:FB CYC:  0
C9DC  4C E3 C9  JMP $C9E3                       A:40 X:00 Y:00 P:25 SP:FB CYC:  0
C9E3  EA        NOP                             A:40 X:00 Y:00 P:25 SP:FB CYC:  0
C9E4  C9 41     CMP #$41                        A:40 X:00 Y:00 P:25 SP:FB CYC:  0
C9E6  F0 07     BEQ $C9EF                       A:40 X:00 Y:00 P:A4 SP:FB CYC:  0
C9E8  10 05     BPL $C9EF                       A:40 X:00 Y:00 P:A4 SP:FB CYC:  0
C9EA  10 03     BPL $C9EF                       A:40 X:00 Y:00 P:A4 SP:FB CYC:  0
C9EC  4C F3 C9  JMP $C9F3                       A:40 X:00 Y:00 P:A4 SP:FB CYC:  0
C9F3  EA        NOP                             A:40 X:00 Y:00 P:A4 SP:FB CYC:  0
C9F4  A9 80     LDA #$80                        A:40 X:00 Y:00 P:A4 SP:FB CYC:  0
C9F6  C9 00     CMP #$00                        A:80 X:00 Y:00 P:A4 SP:FB CYC:  0
C9F8  F0 07     BEQ $CA01                       A:80 X:00 Y:00 P:A5 SP:FB CYC:  0
C9FA  10 05     BPL $CA01                       A:80 X:00 Y:00 P:A5 SP:FB CYC:  0
C9FC  90 03     BCC $CA01                       A:80 X:00 Y:00 P:A5 SP:FB CYC:  0
C9FE  4C 05 CA  JMP $CA05                       A:80 X:00 Y:00 P:A5 SP:FB CYC:  0
CA05  EA        NOP                             A:80 X:00 Y:00 P:A5 SP:FB CYC:  0
CA06  C9 80     CMP #$80                        A:80 X:00 Y:00 P:A5 SP:FB CYC:  0
CA08  D0 07     BNE $CA11                       A:80 X:00 Y:00 P:27 SP:FB CYC:  0
CA0A  30 05     BMI $CA11                       A:80 X:00 Y:00 P:27 SP:FB CYC:  0
CA0C  90 03     BCC $CA11                       A:80 X:00 Y:00 P:27 SP:FB CYC:  0
CA0E  4C 15 CA  JMP $CA15                       A:80 X:00 Y:00 P:27 SP:FB CYC:  0
CA15  EA        NOP                             A:80 X:00 Y:00 P:27 SP:FB CYC:  0
CA16  C9 81     CMP #$81                        A:80 X:00 Y:00 P:27 SP:FB CYC:  0
CA18  B0 07     BCS $CA21                       A:80 X:00 Y:00 P:A4 SP:FB CYC:  0
CA1A  F0 05     BEQ $CA21                       A:80 X:00 Y:00 P:A4 SP:FB CYC:  0
CA1C  10 03     BPL $CA21                       A:80 X:00 Y:00 P:A4 SP:FB CYC:  0
CA1E  4C 25 CA  JMP $CA25                       A:80 X:00 Y:00 P:A4 SP:FB CYC:  0
CA25  EA        NOP                             A:80 X:00 Y:00 P:A4 SP:FB CYC:  0
CA26  C9 7F     CMP #$7F                        A:80 X:00 Y:00 P:A4 SP:FB CYC:  0
CA28  90 07     BCC $CA31                       A:80 X:00 Y:00 P:25 SP:FB CYC:  0
CA2A  F0 05     BEQ $CA31                       A:80 X:00 Y:00 P:25 SP:FB CYC:  0
CA2C  30 03     BMI $CA31                       A:80 X:00 Y:00 P:25 SP:FB CYC:  0
CA2E  4C 35 CA  JMP $CA35                       A:80 X:00 Y:00 P:25 SP:FB CYC:  0
CA35  EA        NOP                             A:80 X:00 Y:00 P:25 SP:FB CYC:  0
CA36  24 01     BIT $01 = FF                    A:80 X:00 Y:00 P:25 SP:FB CYC:  0
CA38  A0 40     LDY #$40                        A:80 X:00 Y:00 P:E5 SP:FB CYC:  0
CA3A  C0 40     CPY #$40                        A:80 X:00 Y:40 P:65 SP:FB CYC:  0
CA3C  D0 09     BNE $CA47                       A:80 X:00 Y:40 P:67 SP:FB CYC:  0
CA3E  30 07     BMI $CA47                       A:80 X:00 Y:40 P:67 SP:FB CYC:  0
CA40  90 05     BCC $CA47                       A:80 X:00 Y:40 P:67 SP:FB CYC:  0
CA42  50 03     BVC $CA47                       A:80 X:00 Y:40 P:67 SP:FB CYC:  0
CA44  4C 4B CA  JMP $CA4B                       A:80 X:00 Y:40 P:67 SP:FB CYC:  0
CA4B  EA        NOP                             A:80 X:00 Y:40 P:67 SP:FB CYC:  0
CA4C  B8        CLV                             A:80 X:00 Y:40 P:67 SP:FB CYC:  0
CA4D  C0 3F     CPY #$3F                        A:80 X:00 Y:40 P:27 SP:FB CYC:  0
CA4F  F0 09     BEQ $CA5A                       A:80 X:00 Y:40 P:25 SP:FB CYC:  0
CA51  30 07     BMI $CA5A                       A:80 X:00 Y:40 P:25 SP:FB CYC:  0
CA53  90 05     BCC $CA5A                       A:80 X:00 Y:40 P:25 SP:FB CYC:  0
CA55  70 03     BVS $CA5A                       A:80 X:00 Y:40 P:25 SP:FB CYC:  0
CA57  4C 5E CA  JMP $CA5E                       A:80 X:00 Y:40 P:25 SP:FB CYC:  0
CA5E  EA        NOP                             A:80 X:00 Y:40 P:25 SP:FB CYC:  0
CA5F  C0 41     CPY #$41                        A:80 X:00 Y:40 P:25 SP:FB CYC:  0
CA61  F0 07     BEQ $CA6A                       A:80 X:00 Y:40 P:A4 SP:FB CYC:  0
CA63  10 05     BPL $CA6A                       A:80 X:00 Y:40 P:A4 SP:FB CYC:  0
CA65  10 03     BPL $CA6A                       A:80 X:00 Y:40 P:A4 SP:FB CYC:  0
CA67  4C 6E CA  JMP $CA6E                       A:80 X:00 Y:40 P:A4 SP:FB CYC:  0
CA6E  EA        NOP                             A:80 X:00 Y:40 P:A4 SP:FB CYC:  0
CA6F  A0 80     LDY #$80                        A:80 X:00 Y:40 P:A4 SP:FB CYC:  0
CA71  C0 00     CPY #$00                        A:80 X:00 Y:80 P:A4 SP:FB CYC:  0
CA73  F0 07     BEQ $CA7C                       A:80 X:00 Y:80 P:A5 SP:FB CYC:  0
CA75  10 05     BPL $CA7C                       A:80 X:00 Y:80 P:A5 SP:FB CYC:  0
CA77  90 03     BCC $CA7C                       A:80 X:00 Y:80 P:A5 SP:FB CYC:  0
CA79  4C 80 CA  JMP $CA80                       A:80 X:00 Y:80 P:A5 SP:FB CYC:  0
CA80  EA        NOP                             A:80 X:00 Y:80 P:A5 SP:FB CYC:  0
CA81  C0 80     CPY #$80                        A:80 X:00 Y:80 P:A5 SP:FB CYC:  0
CA83  D0 07     BNE $CA8C                       A:80 X:00 Y:80 P:27 SP:FB CYC:  0
CA85  30 05     BMI $CA8C                       A:80 X:00 Y:80 P:27 SP:FB CYC:  0
CA87  90 03     BCC $CA8C                       A:80 X:00 Y:80 P:27 SP:FB CYC:  0
CA89  4C 90 CA  JMP $CA90                       A:80 X:00 Y:80 P:27 SP:FB CYC:  0
CA90  EA        NOP                             A:80 X:00 Y:80 P:27 SP:FB CYC:  0
CA91  C0 81     CPY #$81                        A:80 X:00 Y:80 P:27 SP:FB CYC:  0
CA93  B0 07     BCS $CA9C                       A:80 X:00 Y:80 P:A4 SP:FB CYC:  0
CA95  F0 05     BEQ $CA9C                       A:80 X:00 Y:80 P:A4 SP:FB CYC:  0
CA97  10 03     BPL $CA9C                       A:80 X:00 Y:80 P:A4 SP:FB CYC:  0
CA99  4C A0 CA  JMP $CAA0                       A:80 X:00 Y:80 P:A4 SP:FB CYC:  0
CAA0  EA        NOP                             A:80 X:00 Y:80 P:A4 SP:FB CYC:  0
CAA1  C0 7F     CPY #$7F                        A:80 X:00 Y:80 P:A4 SP:FB CYC:  0
CAA3  90 07     BCC $CAAC                       A:80 X:00 Y:80 P:25 SP:FB CYC:  0
CAA5  F0 05     BEQ $CAAC                       A:80 X:00 Y:80 P:25 SP:FB CYC:  0
CAA7  30 03     BMI $CAAC                       A:80 X:00 Y:80 P:25 SP:FB CYC:  0
CAA9  4C B0 CA  JMP $CAB0                       A:80 X:00 Y:80 P:25 SP:FB CYC:  0
CAB0  EA        NOP                             A:80 X:00 Y:80 P:25 SP:FB CYC:  0
CAB1  24 01     BIT $01 = FF                    A:80 X:00 Y:80 P:25 SP:FB CYC:  0
CAB3  A2 40     LDX #$40                        A:80 X:00 Y:80 P:E5 SP:FB CYC:  0
CAB5  E0 40     CPX #$40                        A:80 X:40 Y:80 P:65 SP:FB CYC:  0
CAB7  D0 09     BNE $CAC2                       A:80 X:40 Y:80 P:67 SP:FB CYC:  0
CAB9  30 07     BMI $CAC2                       A:80 X:40 Y:80 P:67 SP:FB CYC:  0
CABB  90 05     BCC $CAC2                       A:80 X:40 Y:80 P:67 SP:FB CYC:  0
CABD  50 03     BVC $CAC2                       A:80 X:40 Y:80 P:67 SP:FB CYC:  0
CABF  4C C6 CA  JMP $CAC6                       A:80 X:40 Y:80 P:67 SP:FB CYC:  0
CAC6  EA        NOP                             A:80 X:40 Y:80 P:67 SP:FB CYC:  0
CAC7  B8        CLV                             A:80 X:40 Y:80 P:67 SP:FB CYC:  0
CAC8  E0 3F     CPX #$3F                        A:80 X:40 Y:80 P:27 SP:FB CYC:  0
CACA  F0 09     BEQ $CAD5                       A:80 X:40 Y:80 P:25 SP:FB CYC:  0
CACC  30 07     BMI $CAD5                       A:80 X:40 Y:80 P:25 SP:FB CYC:  0
CACE  90 05     BCC $CAD5                       A:80 X:40 Y:80 P:25 SP:FB CYC:  0
CAD0  70 03     BVS $CAD5                       A:80 X:40 Y:80 P:25 SP:FB CYC:  0
CAD2  4C D9 CA  JMP $CAD9                       A:80 X:40 Y:80 P:25 SP:FB CYC:  0
CAD9  EA        NOP                             A:80 X:40 Y:80 P:25 SP:FB CYC:  0
CADA  E0 41     CPX #$41                        A:80 X:40 Y:80 P:25 SP:FB CYC:  0
CADC  F0 07     BEQ $CAE5                       A:80 X:40 Y:80 P:A4 SP:FB CYC:  0
CADE  10 05     BPL $CAE5                       A:80 X:40 Y:80 P:A4 SP:FB CYC:  0
CAE0  10 03     BPL $CAE5                       A:80 X:40 Y:80 P:A4 SP:FB CYC:  0
CAE2  4C E9 CA  JMP $CAE9                       A:80 X:40 Y:80 P:A4 SP:FB CYC:  0
CAE9  EA        NOP                             A:80 X:40 Y:80 P:A4 SP:FB CYC:  0
CAEA  A2 80     LDX #$80                        A:80 X:40 Y:80 P:A4 SP:FB CYC:  0
CAEC  E0 00     CPX #$00                        A:80 X:80 Y:80 P:A4 SP:FB CYC:  0
CAEE  F0 07     BEQ $CAF7                       A:80 X:80 Y:80 P:A5 SP:FB CYC:  0
CAF0  10 05     BPL $CAF7                       A:80 X:80 Y:80 P:A5 SP:FB CYC:  0
CAF2  90 03     BCC $CAF7                       A:80 X:80 Y:80 P:A5 SP:FB CYC:  0
CAF4  4C FB CA  JMP $CAFB                       A:80 X:80 Y:80 P:A5 SP:FB CYC:  0
CAFB  EA        NOP                             A:80 X:80 Y:80 P:A5 SP:FB CYC:  0
CAFC  E0 80     CPX #$80                        A:80 X:80 Y:80 P:A5 SP:FB CYC:  0
CAFE  D0 07     BNE $CB07                       A:80 X:80 Y:80 P:27 SP:FB CYC:  0
CB00  30 05     BMI $CB07                       A:80 X:80 Y:80 P:27 SP:FB CYC:  0
CB02  90 03     BCC $CB07                       A:80 X:80 Y:80 P:27 SP:FB CYC:  0
CB04  4C 0B CB  JMP $CB0B                       A:80 X:80 Y:80 P:27 SP:FB CYC:  0
CB0B  EA        NOP                             A:80 X:80 Y:80 P:27 SP:FB CYC:  0
CB0C  E0 81     CPX #$81                        A:80 X:80 Y:80 P:27 SP:FB CYC:  0
CB0E  B0 07     BCS $CB17                       A:80 X:80 Y:80 P:A4 SP:FB CYC:  0
CB10  F0 05     BEQ $CB17                       A:80 X:80 Y:80 P:A4 SP:FB CYC:  0
CB12  10 03     BPL $CB17                       A:80 X:80 Y:80 P:A4 SP:FB CYC:  0
CB14  4C 1B CB  JMP $CB1B                       A:80 X:80 Y:80 P:A4 SP:FB CYC:  0
CB1B  EA        NOP                             A:80 X:80 Y:80 P:A4 SP:FB CYC:  0
CB1C  E0 7F     CPX #$7F                        A:80 X:80 Y:80 P:A4 SP:FB CYC:  0
CB1E  90 07     BCC $CB27                       A:80 X:80 Y:80 P:25 SP:FB CYC:  0
CB20  F0 05     BEQ $CB27                       A:80 X:80 Y:80 P:25 SP:FB CYC:  0
CB22  30 03     BMI $CB27                       A:80 X:80 Y:80 P:25 SP:FB CYC:  0
CB24  4C 2B CB  JMP $CB2B                       A:80 X:80 Y:80 P:25 SP:FB CYC:  0
CB2B  EA        NOP                             A:80 X:80 Y:80 P:25 SP:FB CYC:  0
CB2C  38        SEC                             A:80 X:80 Y:80 P:25 SP:FB CYC:  0
CB2D  B8        CLV                             A:80 X:80 Y:80 P:25 SP:FB CYC:  0
CB2E  A2 9F     LDX #$9F                        A:80 X:80 Y:80 P:25 SP:FB CYC:  0
CB30  F0 09     BEQ $CB3B                       A:80 X:9F Y:80 P:A5 SP:FB CYC:  0
CB32  10 07     BPL $CB3B                       A:80 X:9F Y:80 P:A5 SP:FB CYC:  0
CB34  70 05     BVS $CB3B                       A:80 X:9F Y:80 P:A5 SP:FB CYC:  0
CB36  90 03     BCC $CB3B                       A:80 X:9F Y:80 P:A5 SP:FB CYC:  0
CB38  4C 3F CB  JMP $CB3F                       A:80 X:9F Y:80 P:A5 SP:FB CYC:  0
CB3F  EA        NOP                             A:80 X:9F Y:80 P:A5 SP:FB CYC:  0
CB40  18        CLC                             A:80 X:9F Y:80 P:A5 SP:FB CYC:  0
CB41  24 01     BIT $01 = FF                    A:80 X:9F Y:80 P:A4 SP:FB CYC:  0
CB43  A2 00     LDX #$00                        A:80 X:9F Y:80 P:E4 SP:FB CYC:  0
CB45  D0 09     BNE $CB50                       A:80 X:00 Y:80 P:66 SP:FB CYC:  0
CB47  30 07     BMI $CB50                       A:80 X:00 Y:80 P:66 SP:FB CYC:  0
CB49  50 05     BVC $CB50                       A:80 X:00 Y:80 P:66 SP:FB CYC:  0
CB4B  B0 03     BCS $CB50                       A:80 X:00 Y:80 P:66 SP:FB CYC:  0
CB4D  4C 54 CB  JMP $CB54                       A:80 X:00 Y:80 P:66 SP:FB CYC:  0
CB54  EA        NOP                             A:80 X:00 Y:80 P:66 SP:FB CYC:  0
CB55  38        SEC                             A:80 X:00 Y:80 P:66 SP:FB CYC:  0
CB56  B8        CLV                             A:80 X:00 Y:80 P:67 SP:FB CYC:  0
CB57  A0 9F     LDY #$9F                        A:80 X:00 Y:80 P:27 SP:FB CYC:  0
CB59  F0 09     BEQ $CB64                       A:80 X:00 Y:9F P:A5 SP:FB CYC:  0
CB5B  10 07     BPL $CB64                       A:80 X:00 Y:9F P:A5 SP:FB CYC:  0
CB5D  70 05     BVS $CB64                       A:80 X:00 Y:9F P:A5 SP:FB CYC:  0
CB5F  90 03     BCC $CB64                       A:80 X:00 Y:9F P:A5 SP:FB CYC:  0
CB61  4C 68 CB  JMP $CB68                       A:80 X:00 Y:9F P:A5 SP:FB CYC:  0
CB68  EA        NOP                             A:80 X:00 Y:9F P:A5 SP:FB CYC:  0
CB69  18        CLC                             A:80 X:00 Y:9F P:A5 SP:FB CYC:  0
CB6A  24 01     BIT $01 = FF                    A:80 X:00 Y:9F P:A4 SP:FB CYC:  0
CB6C  A0 00     LDY #$00                        A:80 X:00 Y:9F P:E4 SP:FB CYC:  0
CB6E  D0 09     BNE $CB79                       A:80 X:00 Y:00 P:66 SP:FB CYC:  0
CB70  30 07     BMI $CB79                       A:80 X:00 Y:00 P:66 SP:FB CYC:  0
CB72  50 05     BVC $CB79                       A:80 X:00 Y:00 P:66 SP:FB CYC:  0
CB74  B0 03     BCS $CB79                       A:80 X:00 Y:00 P:66 SP:FB CYC:  0
CB76  4C 7D CB  JMP $CB7D                       A:80 X:00 Y:00 P:66 SP:FB CYC:  0
CB7D  EA        NOP                             A:80 X:00 Y:00 P:66 SP:FB CYC:  0
CB7E  A9 55     LDA #$55                        A:80 X:00 Y:00 P:66 SP:FB CYC:  0
CB80  A2 AA     LDX #$AA                        A:55 X:00 Y:00 P:64 SP:FB CYC:  0
CB82  A0 33     LDY #$33                        A:55 X:AA Y:00 P:E4 SP:FB CYC:  0
CB84  C9 55     CMP #$55                        A:55 X:AA Y:33 P:64 SP:FB CYC:  0
CB86  D0 23     BNE $CBAB                       A:55 X:AA Y:33 P:67 SP:FB CYC:  0
CB88  E0 AA     CPX #$AA                        A:55 X:AA Y:33 P:67 SP:FB CYC:  0
CB8A  D0 1F     BNE $CBAB                       A:55 X:AA Y:33 P:67 SP:FB CYC:  0
CB8C  C0 33     CPY #$33                        A:55 X:AA Y:33 P:67 SP:FB CYC:  0
CB8E  D0 1B     BNE $CBAB                       A:55 X:AA Y:33 P:67 SP:FB CYC:  0
CB90  C9 55     CMP #$55                        A:55 X:AA Y:33 P:67 SP:FB CYC:  0
CB92  D0 17     BNE $CBAB                       A:55 X:AA Y:33 P:67 SP:FB CYC:  0
CB94  E0 AA     CPX #$AA                        A:55 X:AA Y:33 P:67 SP:FB CYC:  0
CB96  D0 13     BNE $CBAB                       A:55 X:AA Y:33 P:67 SP:FB CYC:  0
CB98  C0 33     CPY #$33                        A:55 X:AA Y:33 P:67 SP:FB CYC:  0
CB9A  D0 0F     BNE $CBAB                       A:55 X:AA Y:33 P:67 SP:FB CYC:  0
CB9C  C9 56     CMP #$56                        A:55 X:AA Y:33 P:67 SP:FB CYC:  0
CB9E  F0 0B     BEQ $CBAB                       A:55 X:AA Y:33 P:E4 SP:FB CYC:  0
CBA0  E0 AB     CPX #$AB                        A:55 X:AA Y:33 P:E4 SP:FB CYC:  0
CBA2  F0 07     BEQ $CBAB                       A:55 X:AA Y:33 P:E4 SP:FB CYC:  0
CBA4  C0 34     CPY #$34                        A:55 X:AA Y:33 P:E4 SP:FB CYC:  0
CBA6  F0 03     BEQ $CBAB                       A:55 X:AA Y:33 P:E4 SP:FB CYC:  0
CBA8  4C AF CB  JMP $CBAF                       A:55 X:AA Y:33 P:E4 SP:FB CYC:  0
CBAF  A0 71     LDY #$71                        A:55 X:AA Y:33 P:E4 SP:FB CYC:  0
CBB1  20 31 F9  JSR $F931                       A:55 X:AA Y:71 P:64 SP:FB CYC:  0
F931  24 01     BIT $01 = FF                    A:55 X:AA Y:71 P:64 SP:F9 CYC:  0
F933  A9 40     LDA #$40                        A:55 X:AA Y:71 P:E4 SP:F9 CYC:  0
F935  38        SEC                             A:40 X:AA Y:71 P:64 SP:F9 CYC:  0
F936  60        RTS                             A:40 X:AA Y:71 P:65 SP:F9 CYC:  0
CBB4  E9 40     SBC #$40                        A:40 X:AA Y:71 P:65 SP:FB CYC:  0
CBB6  20 37 F9  JSR $F937                       A:00 X:AA Y:71 P:27 SP:FB CYC:  0
F937  30 0B     BMI $F944                       A:00 X:AA Y:71 P:27 SP:F9 CYC:  0
F939  90 09     BCC $F944                       A:00 X:AA Y:71 P:27 SP:F9 CYC:  0
F93B  D0 07     BNE $F944                       A:00 X:AA Y:71 P:27 SP:F9 CYC:  0
F93D  70 05     BVS $F944                       A:00 X:AA Y:71 P:27 SP:F9 CYC:  0
F93F  C9 00     CMP #$00                        A:00 X:AA Y:71 P:27 SP:F9 CYC:  0
F941  D0 01     BNE $F944                       A:00 X:AA Y:71 P:27 SP:F9 CYC:  0
F943  60        RTS                             A:00 X:AA Y:71 P:27 SP:F9 CYC:  0
CBB9  C8        INY                             A:00 X:AA Y:71 P:27 SP:FB CYC:  0
CBBA  20 47 F9  JSR $F947                       A:00 X:AA Y:72 P:25 SP:FB CYC:  0
F947  B8        CLV                             A:00 X:AA Y:72 P:25 SP:F9 CYC:  0
F948  38        SEC                             A:00 X:AA Y:72 P:25 SP:F9 CYC:  0
F949  A9 40     LDA #$40                        A:00 X:AA Y:72 P:25 SP:F9 CYC:  0
F94B  60        RTS                             A:40 X:AA Y:72 P:25 SP:F9 CYC:  0
CBBD  E9 3F     SBC #$3F                        A:40 X:AA Y:72 P:25 SP:FB CYC:  0
CBBF  20 4C F9  JSR $F94C                       A:01 X:AA Y:72 P:25 SP:FB CYC:  0
F94C  F0 0B     BEQ $F959                       A:01 X:AA Y:72 P:25 SP:F9 CYC:  0
F94E  30 09     BMI $F959                       A:01 X:AA Y:72 P:25 SP:F9 CYC:  0
F950  90 07     BCC $F959                       A:01 X:AA Y:72 P:25 SP:F9 CYC:  0
F952  70 05     BVS $F959                       A:01 X:AA Y:72 P:25 SP:F9 CYC:  0
F954  C9 01     CMP #$01                        A:01 X:AA Y:72 P:25 SP:F9 CYC:  0
F956  D0 01     BNE $F959                       A:01 X:AA Y:72 P:27 SP:F9 CYC:  0
F958  60        RTS                             A:01 X:AA Y:72 P:27 SP:F9 CYC:  0
CBC2  C8        INY                             A:01 X:AA Y:72 P:27 SP:FB CYC:  0
CBC3  20 5C F9  JSR $F95C                       A:01 X:AA Y:73 P:25 SP:FB CYC:  0
F95C  A9 40     LDA #$40                        A:01 X:AA Y:73 P:25 SP:F9 CYC:  0
F95E  38        SEC                             A:40 X:AA Y:73 P:25 SP:F9 CYC:  0
F95F  24 01     BIT $01 = FF                    A:40 X:AA Y:73 P:25 SP:F9 CYC:  0
F961  60        RTS                             A:40 X:AA Y:73 P:E5 SP:F9 CYC:  0
CBC6  E9 41     SBC #$41                        A:40 X:AA Y:73 P:E5 SP:FB CYC:  0
CBC8  20 62 F9  JSR $F962                       A:FF X:AA Y:73 P:A4 SP:FB CYC:  0
F962  B0 0B     BCS $F96F                       A:FF X:AA Y:73 P:A4 SP:F9 CYC:  0
F964  F0 09     BEQ $F96F                       A:FF X:AA Y:73 P:A4 SP:F9 CYC:  0
F966  10 07     BPL $F96F                       A:FF X:AA Y:73 P:A4 SP:F9 CYC:  0
F968  70 05     BVS $F96F                       A:FF X:AA Y:73 P:A4 SP:F9 CYC:  0
F96A  C9 FF     CMP #$FF                        A:FF X:AA Y:73 P:A4 SP:F9 CYC:  0
F96C  D0 01     BNE $F96F                       A:FF X:AA Y:73 P:27 SP:F9 CYC:  0
F96E  60        RTS                             A:FF X:AA Y:73 P:27 SP:F9 CYC:  0
CBCB  C8        INY                             A:FF X:AA Y:73 P:27 SP:FB CYC:  0
CBCC  20 72 F9  JSR $F972                       A:FF X:AA Y:74 P:25 SP:FB CYC:  0
F972  18        CLC                             A:FF X:AA Y:74 P:25 SP:F9 CYC:  0
F973  A9 80     LDA #$80                        A:FF X:AA Y:74 P:24 SP:F9 CYC:  0
F975  60        RTS                             A:80 X:AA Y:74 P:A4 SP:F9 CYC:  0
CBCF  E9 00     SBC #$00                        A:80 X:AA Y:74 P:A4 SP:FB CYC:  0
CBD1  20 76 F9  JSR $F976                       A:7F X:AA Y:74 P:65 SP:FB CYC:  0
F976  90 05     BCC $F97D                       A:7F X:AA Y:74 P:65 SP:F9 CYC:  0
F978  C9 7F     CMP #$7F                        A:7F X:AA Y:74 P:65 SP:F9 CYC:  0
F97A  D0 01     BNE $F97D                       A:7F X:AA Y:74 P:67 SP:F9 CYC:  0
F97C  60        RTS                             A:7F X:AA Y:74 P:67 SP:F9 CYC:  0
CBD4  C8        INY                             A:7F X:AA Y:74 P:67 SP:FB CYC:  0
CBD5  20 80 F9  JSR $F980                       A:7F X:AA Y:75 P:65 SP:FB CYC:  0
F980  38        SEC                             A:7F X:AA Y:75 P:65 SP:F9 CYC:  0
F981  A9 81     LDA #$81                        A:7F X:AA Y:75 P:65 SP:F9 CYC:  0
F983  60        RTS                             A:81 X:AA Y:75 P:E5 SP:F9 CYC:  0
CBD8  E9 7F     SBC #$7F                        A:81 X:AA Y:75 P:E5 SP:FB CYC:  0
CBDA  20 84 F9  JSR $F984                       A:02 X:AA Y:75 P:65 SP:FB CYC:  0
F984  50 07     BVC $F98D                       A:02 X:AA Y:75 P:65 SP:F9 CYC:  0
F986  90 05     BCC $F98D                       A:02 X:AA Y:75 P:65 SP:F9 CYC:  0
F988  C9 02     CMP #$02                        A:02 X:AA Y:75 P:65 SP:F9 CYC:  0
F98A  D0 01     BNE $F98D                       A:02 X:AA Y:75 P:67 SP:F9 CYC:  0
F98C  60        RTS                             A:02 X:AA Y:75 P:67 SP:F9 CYC:  0
CBDD  60        RTS                             A:02 X:AA Y:75 P:67 SP:FB CYC:  0
C606  20 DE CB  JSR $CBDE                       A:02 X:AA Y:75 P:67 SP:FD CYC:  0
CBDE  EA        NOP                             A:02 X:AA Y:75 P:67 SP:FB CYC:  0
CBDF  A9 FF     LDA #$FF                        A:02 X:AA Y:75 P:67 SP:FB CYC:  0
CBE1  85 01     STA $01 = FF                    A:FF X:AA Y:75 P:E5 SP:FB CYC:  0
CBE3  A9 44     LDA #$44                        A:FF X:AA Y:75 P:E5 SP:FB CYC:  0
CBE5  A2 55     LDX #$55                        A:44 X:AA Y:75 P:65 SP:FB CYC:  0
CBE7  A0 66     LDY #$66                        A:44 X:55 Y:75 P:65 SP:FB CYC:  0
CBE9  E8        INX                             A:44 X:55 Y:66 P:65 SP:FB CYC:  0
CBEA  88        DEY                             A:44 X:56 Y:66 P:65 SP:FB CYC:  0
CBEB  E0 56     CPX #$56                        A:44 X:56 Y:65 P:65 SP:FB CYC:  0
CBED  D0 21     BNE $CC10                       A:44 X:56 Y:65 P:67 SP:FB CYC:  0
CBEF  C0 65     CPY #$65                        A:44 X:56 Y:65 P:67 SP:FB CYC:  0
CBF1  D0 1D     BNE $CC10                       A:44 X:56 Y:65 P:67 SP:FB CYC:  0
CBF3  E8        INX                             A:44 X:56 Y:65 P:67 SP:FB CYC:  0
CBF4  E8        INX                             A:44 X:57 Y:65 P:65 SP:FB CYC:  0
CBF5  88        DEY                             A:44 X:58 Y:65 P:65 SP:FB CYC:  0
CBF6  88        DEY                             A:44 X:58 Y:64 P:65 SP:FB CYC:  0
CBF7  E0 58     CPX #$58                        A:44 X:58 Y:63 P:65 SP:FB CYC:  0
CBF9  D0 15     BNE $CC10                       A:44 X:58 Y:63 P:67 SP:FB CYC:  0
CBFB  C0 63     CPY #$63                        A:44 X:58 Y:63 P:67 SP:FB CYC:  0
CBFD  D0 11     BNE $CC10                       A:44 X:58 Y:63 P:67 SP:FB CYC:  0
CBFF  CA        DEX                             A:44 X:58 Y:63 P:67 SP:FB CYC:  0
CC00  C8        INY                             A:44 X:57 Y:63 P:65 SP:FB CYC:  0
CC01  E0 57     CPX #$57                        A:44 X:57 Y:64 P:65 SP:FB CYC:  0
CC03  D0 0B     BNE $CC10                       A:44 X:57 Y:64 P:67 SP:FB CYC:  0
CC05  C0 64     CPY #$64                        A:44 X:57 Y:64 P:67 SP:FB CYC:  0
CC07  D0 07     BNE $CC10                       A:44 X:57 Y:64 P:67 SP:FB CYC:  0
CC09  C9 44     CMP #$44                        A:44 X:57 Y:64 P:67 SP:FB CYC:  0
CC0B  D0 03     BNE $CC10                       A:44 X:57 Y:64 P:67 SP:FB CYC:  0
CC0D  4C 14 CC  JMP $CC14                       A:44 X:57 Y:64 P:67 SP:FB CYC:  0
CC14  EA        NOP                             A:44 X:57 Y:64 P:67 SP:FB CYC:  0
CC15  38        SEC                             A:44 X:57 Y:64 P:67 SP:FB CYC:  0
CC16  A2 69     LDX #$69                        A:44 X:57 Y:64 P:67 SP:FB CYC:  0
CC18  A9 96     LDA #$96                        A:44 X:69 Y:64 P:65 SP:FB CYC:  0
CC1A  24 01     BIT $01 = FF                    A:96 X:69 Y:64 P:E5 SP:FB CYC:  0
CC1C  A0 FF     LDY #$FF                        A:96 X:69 Y:64 P:E5 SP:FB CYC:  0
CC1E  C8        INY                             A:96 X:69 Y:FF P:E5 SP:FB CYC:  0
CC1F  D0 3D     BNE $CC5E                       A:96 X:69 Y:00 P:67 SP:FB CYC:  0
CC21  30 3B     BMI $CC5E                       A:96 X:69 Y:00 P:67 SP:FB CYC:  0
CC23  90 39     BCC $CC5E                       A:96 X:69 Y:00 P:67 SP:FB CYC:  0
CC25  50 37     BVC $CC5E                       A:96 X:69 Y:00 P:67 SP:FB CYC:  0
CC27  C0 00     CPY #$00                        A:96 X:69 Y:00 P:67 SP:FB CYC:  0
CC29  D0 33     BNE $CC5E                       A:96 X:69 Y:00 P:67 SP:FB CYC:  0
CC2B  C8        INY                             A:96 X:69 Y:00 P:67 SP:FB CYC:  0
CC2C  F0 30     BEQ $CC5E                       A:96 X:69 Y:01 P:65 SP:FB CYC:  0
CC2E  30 2E     BMI $CC5E                       A:96 X:69 Y:01 P:65 SP:FB CYC:  0
CC30  90 2C     BCC $CC5E                       A:96 X:69 Y:01 P:65 SP:FB CYC:  0
CC32  50 2A     BVC $CC5E                       A:96 X:69 Y:01 P:65 SP:FB CYC:  0
CC34  18        CLC                             A:96 X:69 Y:01 P:65 SP:FB CYC:  0
CC35  B8        CLV                             A:96 X:69 Y:01 P:64 SP:FB CYC:  0
CC36  A0 00     LDY #$00                        A:96 X:69 Y:01 P:24 SP:FB CYC:  0
CC38  88        DEY                             A:96 X:69 Y:00 P:26 SP:FB CYC:  0
CC39  F0 23     BEQ $CC5E                       A:96 X:69 Y:FF P:A4 SP:FB CYC:  0
CC3B  10 21     BPL $CC5E                       A:96 X:69 Y:FF P:A4 SP:FB CYC:  0
CC3D  B0 1F     BCS $CC5E                       A:96 X:69 Y:FF P:A4 SP:FB CYC:  0
CC3F  70 1D     BVS $CC5E                       A:96 X:69 Y:FF P:A4 SP:FB CYC:  0
CC41  C0 FF     CPY #$FF                        A:96 X:69 Y:FF P:A4 SP:FB CYC:  0
CC43  D0 19     BNE $CC5E                       A:96 X:69 Y:FF P:27 SP:FB CYC:  0
CC45  18        CLC                             A:96 X:69 Y:FF P:27 SP:FB CYC:  0
CC46  88        DEY                             A:96 X:69 Y:FF P:26 SP:FB CYC:  0
CC47  F0 15     BEQ $CC5E                       A:96 X:69 Y:FE P:A4 SP:FB CYC:  0
CC49  10 13     BPL $CC5E                       A:96 X:69 Y:FE P:A4 SP:FB CYC:  0
CC4B  B0 11     BCS $CC5E                       A:96 X:69 Y:FE P:A4 SP:FB CYC:  0
CC4D  70 0F     BVS $CC5E                       A:96 X:69 Y:FE P:A4 SP:FB CYC:  0
CC4F  C0 FE     CPY #$FE                        A:96 X:69 Y:FE P:A4 SP:FB CYC:  0
CC51  D0 0B     BNE $CC5E                       A:96 X:69 Y:FE P:27 SP:FB CYC:  0
CC53  C9 96     CMP #$96                        A:96 X:69 Y:FE P:27 SP:FB CYC:  0
CC55  D0 07     BNE $CC5E                       A:96 X:69 Y:FE P:27 SP:FB CYC:  0
CC57  E0 69     CPX #$69                        A:96 X:69 Y:FE P:27 SP:FB CYC:  0
CC59  D0 03     BNE $CC5E                       A:96 X:69 Y:FE P:27 SP:FB CYC:  0
CC5B  4C 62 CC  JMP $CC62                       A:96 X:69 Y:FE P:27 SP:FB CYC:  0
CC62  EA        NOP                             A:96 X:69 Y:FE P:27 SP:FB CYC:  0
CC63  38        SEC                             A:96 X:69 Y:FE P:27 SP:FB CYC:  0
CC64  A0 69     LDY #$69                        A:96 X:69 Y:FE P:27 SP:FB CYC:  0
CC66  A9 96     LDA #$96                        A:96 X:69 Y:69 P:25 SP:FB CYC:  0
CC68  24 01     BIT $01 = FF                    A:96 X:69 Y:69 P:A5 SP:FB CYC:  0
CC6A  A2 FF     LDX #$FF                        A:96 X:69 Y:69 P:E5 SP:FB CYC:  0
CC6C  E8        INX                             A:96 X:FF Y:69 P:E5 SP:FB CYC:  0
CC6D  D0 3D     BNE $CCAC                       A:96 X:00 Y:69 P:67 SP:FB CYC:  0
CC6F  30 3B     BMI $CCAC                       A:96 X:00 Y:69 P:67 SP:FB CYC:  0
CC71  90 39     BCC $CCAC                       A:96 X:00 Y:69 P:67 SP:FB CYC:  0
CC73  50 37     BVC $CCAC                       A:96 X:00 Y:69 P:67 SP:FB CYC:  0
CC75  E0 00     CPX #$00                        A:96 X:00 Y:69 P:67 SP:FB CYC:  0
CC77  D0 33     BNE $CCAC                       A:96 X:00 Y:69 P:67 SP:FB CYC:  0
CC79  E8        INX                             A:96 X:00 Y:69 P:67 SP:FB CYC:  0
CC7A  F0 30     BEQ $CCAC                       A:96 X:01 Y:69 P:65 SP:FB CYC:  0
CC7C  30 2E     BMI $CCAC                       A:96 X:01 Y:69 P:65 SP:FB CYC:  0
CC7E  90 2C     BCC $CCAC                       A:96 X:01 Y:69 P:65 SP:FB CYC:  0
CC80  50 2A     BVC $CCAC                       A:96 X:01 Y:69 P:65 SP:FB CYC:  0
CC82  18        CLC                             A:96 X:01 Y:69 P:65 SP:FB CYC:  0
CC83  B8        CLV                             A:96 X:01 Y:69 P:64 SP:FB CYC:  0
CC84  A2 00     LDX #$00                        A:96 X:01 Y:69 P:24 SP:FB CYC:  0
CC86  CA        DEX                             A:96 X:00 Y:69 P:26 SP:FB CYC:  0
CC87  F0 23     BEQ $CCAC                       A:96 X:FF Y:69 P:A4 SP:FB CYC:  0
CC89  10 21     BPL $CCAC                       A:96 X:FF Y:69 P:A4 SP:FB CYC:  0
CC8B  B0 1F     BCS $CCAC                       A:96 X:FF Y:69 P:A4 SP:FB CYC:  0
CC8D  70 1D     BVS $CCAC                       A:96 X:FF Y:69 P:A4 SP:FB CYC:  0
CC8F  E0 FF     CPX #$FF                        A:96 X:FF Y:69 P:A4 SP:FB CYC:  0
CC91  D0 19     BNE $CCAC                       A:96 X:FF Y:69 P:27 SP:FB CYC:  0
CC93  18        CLC                             A:96 X:FF Y:69 P:27 SP:FB CYC:  0
CC94  CA        DEX                             A:96 X:FF Y:69 P:26 SP:FB CYC:  0
CC95  F0 15     BEQ $CCAC                       A:96 X:FE Y:69 P:A4 SP:FB CYC:  0
CC97  10 13     BPL $CCAC                       A:96 X:FE Y:69 P:A4 SP:FB CYC:  0
CC99  B0 11     BCS $CCAC                       A:96 X:FE Y:69 P:A4 SP:FB CYC:  0
CC9B  70 0F     BVS $CCAC                       A:96 X:FE Y:69 P:A4 SP:FB CYC:  0
CC9D  E0 FE     CPX #$FE                        A:96 X:FE Y:69 P:A4 SP:FB CYC:  0
CC9F  D0 0B     BNE $CCAC                       A:96 X:FE Y:69 P:27 SP:FB CYC:  0
CCA1  C9 96     CMP #$96                        A:96 X:FE Y:69 P:27 SP:FB CYC:  0
CCA3  D0 07     BNE $CCAC                       A:96 X:FE Y:69 P:27 SP:FB CYC:  0
CCA5  C0 69     CPY #$69                        A:96 X:FE Y:69 P:27 SP:FB CYC:  0
CCA7  D0 03     BNE $CCAC                       A:96 X:FE Y:69 P:27 SP:FB CYC:  0
CCA9  4C B0 CC  JMP $CCB0                       A:96 X:FE Y:69 P:27 SP:FB CYC:  0
CCB0  EA        NOP                             A:96 X:FE Y:69 P:27 SP:FB CYC:  0
CCB1  A9 85     LDA #$85                        A:96 X:FE Y:69 P:27 SP:FB CYC:  0
CCB3  A2 34     LDX #$34                        A:85 X:FE Y:69 P:A5 SP:FB CYC:  0
CCB5  A0 99     LDY #$99                        A:85 X:34 Y:69 P:25 SP:FB CYC:  0
CCB7  18        CLC                             A:85 X:34 Y:99 P:A5 SP:FB CYC:  0
CCB8  24 01     BIT $01 = FF                    A:85 X:34 Y:99 P:A4 SP:FB CYC:  0
CCBA  A8        TAY                             A:85 X:34 Y:99 P:E4 SP:FB CYC:  0
CCBB  F0 2E     BEQ $CCEB                       A:85 X:34 Y:85 P:E4 SP:FB CYC:  0
CCBD  B0 2C     BCS $CCEB                       A:85 X:34 Y:85 P:E4 SP:FB CYC:  0
CCBF  50 2A     BVC $CCEB                       A:85 X:34 Y:85 P:E4 SP:FB CYC:  0
CCC1  10 28     BPL $CCEB                       A:85 X:34 Y:85 P:E4 SP:FB CYC:  0
CCC3  C9 85     CMP #$85                        A:85 X:34 Y:85 P:E4 SP:FB CYC:  0
CCC5  D0 24     BNE $CCEB                       A:85 X:34 Y:85 P:67 SP:FB CYC:  0
CCC7  E0 34     CPX #$34                        A:85 X:34 Y:85 P:67 SP:FB CYC:  0
CCC9  D0 20     BNE $CCEB                       A:85 X:34 Y:85 P:67 SP:FB CYC:  0
CCCB  C0 85     CPY #$85                        A:85 X:34 Y:85 P:67 SP:FB CYC:  0
CCCD  D0 1C     BNE $CCEB                       A:85 X:34 Y:85 P:67 SP:FB CYC:  0
CCCF  A9 00     LDA #$00                        A:85 X:34 Y:85 P:67 SP:FB CYC:  0
CCD1  38        SEC                             A:00 X:34 Y:85 P:67 SP:FB CYC:  0
CCD2  B8        CLV                             A:00 X:34 Y:85 P:67 SP:FB CYC:  0
CCD3  A8        TAY                             A:00 X:34 Y:85 P:27 SP:FB CYC:  0
CCD4  D0 15     BNE $CCEB                       A:00 X:34 Y:00 P:27 SP:FB CYC:  0
CCD6  90 13     BCC $CCEB                       A:00 X:34 Y:00 P:27 SP:FB CYC:  0
CCD8  70 11     BVS $CCEB                       A:00 X:34 Y:00 P:27 SP:FB CYC:  0
CCDA  30 0F     BMI $CCEB                       A:00 X:34 Y:00 P:27 SP:FB CYC:  0
CCDC  C9 00     CMP #$00                        A:00 X:34 Y:00 P:27 SP:FB CYC:  0
CCDE  D0 0B     BNE $CCEB                       A:00 X:34 Y:00 P:27 SP:FB CYC:  0
CCE0  E0 34     CPX #$34                        A:00 X:34 Y:00 P:27 SP:FB CYC:  0
CCE2  D0 07     BNE $CCEB                       A:00 X:34 Y:00 P:27 SP:FB CYC:  0
CCE4  C0 00     CPY #$00                        A:00 X:34 Y:00 P:27 SP:FB CYC:  0
CCE6  D0 03     BNE $CCEB                       A:00 X:34 Y:00 P:27 SP:FB CYC:  0
CCE8  4C EF CC  JMP $CCEF                       A:00 X:34 Y:00 P:27 SP:FB CYC:  0
CCEF  EA        NOP                             A:00 X:34 Y:00 P:27 SP:FB CYC:  0
CCF0  A9 85     LDA #$85                        A:00 X:34 Y:00 P:27 SP:FB CYC:  0
CCF2  A2 34     LDX #$34                        A:85 X:34 Y:00 P:A5 SP:FB CYC:  0
CCF4  A0 99     LDY #$99                        A:85 X:34 Y:00 P:25 SP:FB CYC:  0
CCF6  18        CLC                             A:85 X:34 Y:99 P:A5 SP:FB CYC:  0
CCF7  24 01     BIT $01 = FF                    A:85 X:34 Y:99 P:A4 SP:FB CYC:  0
CCF9  AA        TAX                             A:85 X:34 Y:99 P:E4 SP:FB CYC:  0
CCFA  F0 2E     BEQ $CD2A                       A:85 X:85 Y:99 P:E4 SP:FB CYC:  0
CCFC  B0 2C     BCS $CD2A                       A:85 X:85 Y:99 P:E4 SP:FB CYC:  0
CCFE  50 2A     BVC $CD2A                       A:85 X:85 Y:99 P:E4 SP:FB CYC:  0
CD00  10 28     BPL $CD2A                       A:85 X:85 Y:99 P:E4 SP:FB CYC:  0
CD02  C9 85     CMP #$85                        A:85 X:85 Y:99 P:E4 SP:FB CYC:  0
CD04  D0 24     BNE $CD2A                       A:85 X:85 Y:99 P:67 SP:FB CYC:  0
CD06  E0 85     CPX #$85                        A:85 X:85 Y:99 P:67 SP:FB CYC:  0
CD08  D0 20     BNE $CD2A                       A:85 X:85 Y:99 P:67 SP:FB CYC:  0
CD0A  C0 99     CPY #$99                        A:85 X:85 Y:99 P:67 SP:FB CYC:  0
CD0C  D0 1C     BNE $CD2A                       A:85 X:85 Y:99 P:67 SP:FB CYC:  0
CD0E  A9 00     LDA #$00                        A:85 X:85 Y:99 P:67 SP:FB CYC:  0
CD10  38        SEC                             A:00 X:85 Y:99 P:67 SP:FB CYC:  0
CD11  B8        CLV                             A:00 X:85 Y:99 P:67 SP:FB CYC:  0
CD12  AA        TAX                             A:00 X:85 Y:99 P:27 SP:FB CYC:  0
CD13  D0 15     BNE $CD2A                       A:00 X:00 Y:99 P:27 SP:FB CYC:  0
CD15  90 13     BCC $CD2A                       A:00 X:00 Y:99 P:27 SP:FB CYC:  0
CD17  70 11     BVS $CD2A                       A:00 X:00 Y:99 P:27 SP:FB CYC:  0
CD19  30 0F     BMI $CD2A                       A:00 X:00 Y:99 P:27 SP:FB CYC:  0
CD1B  C9 00     CMP #$00                        A:00 X:00 Y:99 P:27 SP:FB CYC:  0
CD1D  D0 0B     BNE $CD2A                       A:00 X:00 Y:99 P:27 SP:FB CYC:  0
CD1F  E0 00     CPX #$00                        A:00 X:00 Y:99 P:27 SP:FB CYC:  0
CD21  D0 07     BNE $CD2A                       A:00 X:00 Y:99 P:27 SP:FB CYC:  0
CD23  C0 99     CPY #$99                        A:00 X:00 Y:99 P:27 SP:FB CYC:  0
CD25  D0 03     BNE $CD2A                       A:00 X:00 Y:99 P:27 SP:FB CYC:  0
CD27  4C 2E CD  JMP $CD2E                       A:00 X:00 Y:99 P:27 SP:FB CYC:  0
CD2E  EA        NOP                             A:00 X:00 Y:99 P:27 SP:FB CYC:  0
CD2F  A9 85     LDA #$85                        A:00 X:00 Y:99 P:27 SP:FB CYC:  0
CD31  A2 34     LDX #$34                        A:85 X:00 Y:99 P:A5 SP:FB CYC:  0
CD33  A0 99     LDY #$99                        A:85 X:34 Y:99 P:25 SP:FB CYC:  0
CD35  18        CLC                             A:85 X:34 Y:99 P:A5 SP:FB CYC:  0
CD36  24 01     BIT $01 = FF                    A:85 X:34 Y:99 P:A4 SP:FB CYC:  0
CD38  98        TYA                             A:85 X:34 Y:99 P:E4 SP:FB CYC:  0
CD39  F0 2E     BEQ $CD69                       A:99 X:34 Y:99 P:E4 SP:FB CYC:  0
CD3B  B0 2C     BCS $CD69                       A:99 X:34 Y:99 P:E4 SP:FB CYC:  0
CD3D  50 2A     BVC $CD69                       A:99 X:34 Y:99 P:E4 SP:FB CYC:  0
CD3F  10 28     BPL $CD69                       A:99 X:34 Y:99 P:E4 SP:FB CYC:  0
CD41  C9 99     CMP #$99                        A:99 X:34 Y:99 P:E4 SP:FB CYC:  0
CD43  D0 24     BNE $CD69                       A:99 X:34 Y:99 P:67 SP:FB CYC:  0
CD45  E0 34     CPX #$34                        A:99 X:34 Y:99 P:67 SP:FB CYC:  0
CD47  D0 20     BNE $CD69                       A:99 X:34 Y:99 P:67 SP:FB CYC:  0
CD49  C0 99     CPY #$99                        A:99 X:34 Y:99 P:67 SP:FB CYC:  0
CD4B  D0 1C     BNE $CD69                       A:99 X:34 Y:99 P:67 SP:FB CYC:  0
CD4D  A0 00     LDY #$00                        A:99 X:34 Y:99 P:67 SP:FB CYC:  0
CD4F  38        SEC                             A:99 X:34 Y:00 P:67 SP:FB CYC:  0
CD50  B8        CLV                             A:99 X:34 Y:00 P:67 SP:FB CYC:  0
CD51  98        TYA                             A:99 X:34 Y:00 P:27 SP:FB CYC:  0
CD52  D0 15     BNE $CD69                       A:00 X:34 Y:00 P:27 SP:FB CYC:  0
CD54  90 13     BCC $CD69                       A:00 X:34 Y:00 P:27 SP:FB CYC:  0
CD56  70 11     BVS $CD69                       A:00 X:34 Y:00 P:27 SP:FB CYC:  0
CD58  30 0F     BMI $CD69                       A:00 X:34 Y:00 P:27 SP:FB CYC:  0
CD5A  C9 00     CMP #$00                        A:00 X:34 Y:00 P:27 SP:FB CYC:  0
CD5C  D0 0B     BNE $CD69                       A:00 X:34 Y:00 P:27 SP:FB CYC:  0
CD5E  E0 34     CPX #$34                        A:00 X:34 Y:00 P:27 SP:FB CYC:  0
CD60  D0 07     BNE $CD69                       A:00 X:34 Y:00 P:27 SP:FB CYC:  0
CD62  C0 00     CPY #$00                        A:00 X:34 Y:00 P:27 SP:FB CYC:  0
CD64  D0 03     BNE $CD69                       A:00 X:34 Y:00 P:27 SP:FB CYC:  0
CD66  4C 6D CD  JMP $CD6D                       A:00 X:34 Y:00 P:27 SP:FB CYC:  0
CD6D  EA        NOP                             A:00 X:34 Y:00 P:27 SP:FB CYC:  0
CD6E  A9 85     LDA #$85                        A:00 X:34 Y:00 P:27 SP:FB CYC:  0
CD70  A2 34     LDX #$34                        A:85 X:34 Y:00 P:A5 SP:FB CYC:  0
CD72  A0 99     LDY #$99                        A:85 X:34 Y:00 P:25 SP:FB CYC:  0
CD74  18        CLC                             A:85 X:34 Y:99 P:A5 SP:FB CYC:  0
CD75  24 01     BIT $01 = FF                    A:85 X:34 Y:99 P:A4 SP:FB CYC:  0
CD77  8A        TXA                             A:85 X:34 Y:99 P:E4 SP:FB CYC:  0
CD78  F0 2E     BEQ $CDA8                       A:34 X:34 Y:99 P:64 SP:FB CYC:  0
CD7A  B0 2C     BCS $CDA8                       A:34 X:34 Y:99 P:64 SP:FB CYC:  0
CD7C  50 2A     BVC $CDA8                       A:34 X:34 Y:99 P:64 SP:FB CYC:  0
CD7E  30 28     BMI $CDA8                       A:34 X:34 Y:99 P:64 SP:FB CYC:  0
CD80  C9 34     CMP #$34                        A:34 X:34 Y:99 P:64 SP:FB CYC:  0
CD82  D0 24     BNE $CDA8                       A:34 X:34 Y:99 P:67 SP:FB CYC:  0
CD84  E0 34     CPX #$34                        A:34 X:34 Y:99 P:67 SP:FB CYC:  0
CD86  D0 20     BNE $CDA8                       A:34 X:34 Y:99 P:67 SP:FB CYC:  0
CD88  C0 99     CPY #$99                        A:34 X:34 Y:99 P:67 SP:FB CYC:  0
CD8A  D0 1C     BNE $CDA8                       A:34 X:34 Y:99 P:67 SP:FB CYC:  0
CD8C  A2 00     LDX #$00                        A:34 X:34 Y:99 P:67 SP:FB CYC:  0
CD8E  38        SEC                             A:34 X:00 Y:99 P:67 SP:FB CYC:  0
CD8F  B8        CLV                             A:34 X:00 Y:99 P:67 SP:FB CYC:  0
CD90  8A        TXA                             A:34 X:00 Y:99 P:27 SP:FB CYC:  0
CD91  D0 15     BNE $CDA8                       A:00 X:00 Y:99 P:27 SP:FB CYC:  0
CD93  90 13     BCC $CDA8                       A:00 X:00 Y:99 P:27 SP:FB CYC:  0
CD95  70 11     BVS $CDA8                       A:00 X:00 Y:99 P:27 SP:FB CYC:  0
CD97  30 0F     BMI $CDA8                       A:00 X:00 Y:99 P:27 SP:FB CYC:  0
CD99  C9 00     CMP #$00                        A:00 X:00 Y:99 P:27 SP:FB CYC:  0
CD9B  D0 0B     BNE $CDA8                       A:00 X:00 Y:99 P:27 SP:FB CYC:  0
CD9D  E0 00     CPX #$00                        A:00 X:00 Y:99 P:27 SP:FB CYC:  0
CD9F  D0 07     BNE $CDA8                       A:00 X:00 Y:99 P:27 SP:FB CYC:  0
CDA1  C0 99     CPY #$99                        A:00 X:00 Y:99 P:27 SP:FB CYC:  0
CDA3  D0 03     BNE $CDA8                       A:00 X:00 Y:99 P:27 SP:FB CYC:  0
CDA5  4C AC CD  JMP $CDAC                       A:00 X:00 Y:99 P:27 SP:FB CYC:  0
CDAC  EA        NOP                             A:00 X:00 Y:99 P:27 SP:FB CYC:  0
CDAD  BA        TSX                             A:00 X:00 Y:99 P:27 SP:FB CYC:  0
CDAE  8E FF 07  STX $07FF = 00                  A:00 X:FB Y:99 P:A5 SP:FB CYC:  0
CDB1  A0 33     LDY #$33                        A:00 X:FB Y:99 P:A5 SP:FB CYC:  0
CDB3  A2 69     LDX #$69                        A:00 X:FB Y:33 P:25 SP:FB CYC:  0
CDB5  A9 84     LDA #$84                        A:00 X:69 Y:33 P:25 SP:FB CYC:  0
CDB7  18        CLC                             A:84 X:69 Y:33 P:A5 SP:FB CYC:  0
CDB8  24 01     BIT $01 = FF                    A:84 X:69 Y:33 P:A4 SP:FB CYC:  0
CDBA  9A        TXS                             A:84 X:69 Y:33 P:E4 SP:FB CYC:  0
CDBB  F0 32     BEQ $CDEF                       A:84 X:69 Y:33 P:E4 SP:69 CYC:  0
CDBD  10 30     BPL $CDEF                       A:84 X:69 Y:33 P:E4 SP:69 CYC:  0
CDBF  B0 2E     BCS $CDEF                       A:84 X:69 Y:33 P:E4 SP:69 CYC:  0
CDC1  50 2C     BVC $CDEF                       A:84 X:69 Y:33 P:E4 SP:69 CYC:  0
CDC3  C9 84     CMP #$84                        A:84 X:69 Y:33 P:E4 SP:69 CYC:  0
CDC5  D0 28     BNE $CDEF                       A:84 X:69 Y:33 P:67 SP:69 CYC:  0
CDC7  E0 69     CPX #$69                        A:84 X:69 Y:33 P:67 SP:69 CYC:  0
CDC9  D0 24     BNE $CDEF                       A:84 X:69 Y:33 P:67 SP:69 CYC:  0
CDCB  C0 33     CPY #$33                        A:84 X:69 Y:33 P:67 SP:69 CYC:  0
CDCD  D0 20     BNE $CDEF                       A:84 X:69 Y:33 P:67 SP:69 CYC:  0
CDCF  A0 01     LDY #$01                        A:84 X:69 Y:33 P:67 SP:69 CYC:  0
CDD1  A9 04     LDA #$04                        A:84 X:69 Y:01 P:65 SP:69 CYC:  0
CDD3  38        SEC                             A:04 X:69 Y:01 P:65 SP:69 CYC:  0
CDD4  B8        CLV                             A:04 X:69 Y:01 P:65 SP:69 CYC:  0
CDD5  A2 00     LDX #$00                        A:04 X:69 Y:01 P:25 SP:69 CYC:  0
CDD7  BA        TSX                             A:04 X:00 Y:01 P:27 SP:69 CYC:  0
CDD8  F0 15     BEQ $CDEF                       A:04 X:69 Y:01 P:25 SP:69 CYC:  0
CDDA  30 13     BMI $CDEF                       A:04 X:69 Y:01 P:25 SP:69 CYC:  0
CDDC  90 11     BCC $CDEF                       A:04 X:69 Y:01 P:25 SP:69 CYC:  0
CDDE  70 0F     BVS $CDEF                       A:04 X:69 Y:01 P:25 SP:69 CYC:  0
CDE0  E0 69     CPX #$69                        A:04 X:69 Y:01 P:25 SP:69 CYC:  0
CDE2  D0 0B     BNE $CDEF                       A:04 X:69 Y:01 P:27 SP:69 CYC:  0
CDE4  C9 04     CMP #$04                        A:04 X:69 Y:01 P:27 SP:69 CYC:  0
CDE6  D0 07     BNE $CDEF                       A:04 X:69 Y:01 P:27 SP:69 CYC:  0
CDE8  C0 01     CPY #$01                        A:04 X:69 Y:01 P:27 SP:69 CYC:  0
CDEA  D0 03     BNE $CDEF                       A:04 X:69 Y:01 P:27 SP:69 CYC:  0
CDEC  4C F3 CD  JMP $CDF3                       A:04 X:69 Y:01 P:27 SP:69 CYC:  0
CDF3  AE FF 07  LDX $07FF = FB                  A:04 X:69 Y:01 P:27 SP:69 CYC:  0
CDF6  9A        TXS                             A:04 X:FB Y:01 P:A5 SP:69 CYC:  0
CDF7  60        RTS                             A:04 X:FB Y:01 P:A5 SP:FB CYC:  0
C609  20 F8 CD  JSR $CDF8                       A:04 X:FB Y:01 P:A5 SP:FD CYC:  0
CDF8  A9 FF     LDA #$FF                        A:04 X:FB Y:01 P:A5 SP:FB CYC:  0
CDFA  85 01     STA $01 = FF                    A:FF X:FB Y:01 P:A5 SP:FB CYC:  0
CDFC  BA        TSX                             A:FF X:FB Y:01 P:A5 SP:FB CYC:  0
CDFD  8E FF 07  STX $07FF = FB                  A:FF X:FB Y:01 P:A5 SP:FB CYC:  0
CE00  EA        NOP                             A:FF X:FB Y:01 P:A5 SP:FB CYC:  0
CE01  A2 80     LDX #$80                        A:FF X:FB Y:01 P:A5 SP:FB CYC:  0
CE03  9A        TXS                             A:FF X:80 Y:01 P:A5 SP:FB CYC:  0
CE04  A9 33     LDA #$33                        A:FF X:80 Y:01 P:A5 SP:80 CYC:  0
CE06  48        PHA                             A:33 X:80 Y:01 P:25 SP:80 CYC:  0
CE07  A9 69     LDA #$69                        A:33 X:80 Y:01 P:25 SP:7F CYC:  0
CE09  48        PHA                             A:69 X:80 Y:01 P:25 SP:7F CYC:  0
CE0A  BA        TSX                             A:69 X:80 Y:01 P:25 SP:7E CYC:  0
CE0B  E0 7E     CPX #$7E                        A:69 X:7E Y:01 P:25 SP:7E CYC:  0
CE0D  D0 20     BNE $CE2F                       A:69 X:7E Y:01 P:27 SP:7E CYC:  0
CE0F  68        PLA                             A:69 X:7E Y:01 P:27 SP:7E CYC:  0
CE10  C9 69     CMP #$69                        A:69 X:7E Y:01 P:25 SP:7F CYC:  0
CE12  D0 1B     BNE $CE2F                       A:69 X:7E Y:01 P:27 SP:7F CYC:  0
CE14  68        PLA                             A:69 X:7E Y:01 P:27 SP:7F CYC:  0
CE15  C9 33     CMP #$33                        A:33 X:7E Y:01 P:25 SP:80 CYC:  0
CE17  D0 16     BNE $CE2F                       A:33 X:7E Y:01 P:27 SP:80 CYC:  0
CE19  BA        TSX                             A:33 X:7E Y:01 P:27 SP:80 CYC:  0
CE1A  E0 80     CPX #$80                        A:33 X:80 Y:01 P:A5 SP:80 CYC:  0
CE1C  D0 11     BNE $CE2F                       A:33 X:80 Y:01 P:27 SP:80 CYC:  0
CE1E  AD 80 01  LDA $0180 = 33                  A:33 X:80 Y:01 P:27 SP:80 CYC:  0
CE21  C9 33     CMP #$33                        A:33 X:80 Y:01 P:25 SP:80 CYC:  0
CE23  D0 0A     BNE $CE2F                       A:33 X:80 Y:01 P:27 SP:80 CYC:  0
CE25  AD 7F 01  LDA $017F = 69                  A:33 X:80 Y:01 P:27 SP:80 CYC:  0
CE28  C9 69     CMP #$69                        A:69 X:80 Y:01 P:25 SP:80 CYC:  0
CE2A  D0 03     BNE $CE2F                       A:69 X:80 Y:01 P:27 SP:80 CYC:  0
CE2C  4C 33 CE  JMP $CE33                       A:69 X:80 Y:01 P:27 SP:80 CYC:  0
CE33  EA        NOP                             A:69 X:80 Y:01 P:27 SP:80 CYC:  0
CE34  A2 80     LDX #$80                        A:69 X:80 Y:01 P:27 SP:80 CYC:  0
CE36  9A        TXS                             A:69 X:80 Y:01 P:A5 SP:80 CYC:  0
CE37  20 3D CE  JSR $CE3D                       A:69 X:80 Y:01 P:A5 SP:80 CYC:  0
CE3D  BA        TSX                             A:69 X:80 Y:01 P:A5 SP:7E CYC:  0
CE3E  E0 7E     CPX #$7E                        A:69 X:7E Y:01 P:25 SP:7E CYC:  0
CE40  D0 19     BNE $CE5B                       A:69 X:7E Y:01 P:27 SP:7E CYC:  0
CE42  68        PLA                             A:69 X:7E Y:01 P:27 SP:7E CYC:  0
CE43  68        PLA                             A:39 X:7E Y:01 P:25 SP:7F CYC:  0
CE44  BA        TSX                             A:CE X:7E Y:01 P:A5 SP:80 CYC:  0
CE45  E0 80     CPX #$80                        A:CE X:80 Y:01 P:A5 SP:80 CYC:  0
CE47  D0 12     BNE $CE5B                       A:CE X:80 Y:01 P:27 SP:80 CYC:  0
CE49  A9 00     LDA #$00                        A:CE X:80 Y:01 P:27 SP:80 CYC:  0
CE4B  20 4E CE  JSR $CE4E                       A:00 X:80 Y:01 P:27 SP:80 CYC:  0
CE4E  68        PLA                             A:00 X:80 Y:01 P:27 SP:7E CYC:  0
CE4F  C9 4D     CMP #$4D                        A:4D X:80 Y:01 P:25 SP:7F CYC:  0
CE51  D0 08     BNE $CE5B                       A:4D X:80 Y:01 P:27 SP:7F CYC:  0
CE53  68        PLA                             A:4D X:80 Y:01 P:27 SP:7F CYC:  0
CE54  C9 CE     CMP #$CE                        A:CE X:80 Y:01 P:A5 SP:80 CYC:  0
CE56  D0 03     BNE $CE5B                       A:CE X:80 Y:01 P:27 SP:80 CYC:  0
CE58  4C 5F CE  JMP $CE5F                       A:CE X:80 Y:01 P:27 SP:80 CYC:  0
CE5F  EA        NOP                             A:CE X:80 Y:01 P:27 SP:80 CYC:  0
CE60  A9 CE     LDA #$CE                        A:CE X:80 Y:01 P:27 SP:80 CYC:  0
CE62  48        PHA                             A:CE X:80 Y:01 P:A5 SP:80 CYC:  0
CE63  A9 66     LDA #$66                        A:CE X:80 Y:01 P:A5 SP:7F CYC:  0
CE65  48        PHA                             A:66 X:80 Y:01 P:25 SP:7F CYC:  0
CE66  60        RTS                             A:66 X:80 Y:01 P:25 SP:7E CYC:  0
CE67  A2 77     LDX #$77                        A:66 X:80 Y:01 P:25 SP:80 CYC:  0
CE69  A0 69     LDY #$69                        A:66 X:77 Y:01 P:25 SP:80 CYC:  0
CE6B  18        CLC                             A:66 X:77 Y:69 P:25 SP:80 CYC:  0
CE6C  24 01     BIT $01 = FF                    A:66 X:77 Y:69 P:24 SP:80 CYC:  0
CE6E  A9 83     LDA #$83                        A:66 X:77 Y:69 P:E4 SP:80 CYC:  0
CE70  20 66 CE  JSR $CE66                       A:83 X:77 Y:69 P:E4 SP:80 CYC:  0
CE66  60        RTS                             A:83 X:77 Y:69 P:E4 SP:7E CYC:  0
CE73  F0 24     BEQ $CE99                       A:83 X:77 Y:69 P:E4 SP:80 CYC:  0
CE75  10 22     BPL $CE99                       A:83 X:77 Y:69 P:E4 SP:80 CYC:  0
CE77  B0 20     BCS $CE99                       A:83 X:77 Y:69 P:E4 SP:80 CYC:  0
CE79  50 1E     BVC $CE99                       A:83 X:77 Y:69 P:E4 SP:80 CYC:  0
CE7B  C9 83     CMP #$83                        A:83 X:77 Y:69 P:E4 SP:80 CYC:  0
CE7D  D0 1A     BNE $CE99                       A:83 X:77 Y:69 P:67 SP:80 CYC:  0
CE7F  C0 69     CPY #$69                        A:83 X:77 Y:69 P:67 SP:80 CYC:  0
CE81  D0 16     BNE $CE99                       A:83 X:77 Y:69 P:67 SP:80 CYC:  0
CE83  E0 77     CPX #$77                        A:83 X:77 Y:69 P:67 SP:80 CYC:  0
CE85  D0 12     BNE $CE99                       A:83 X:77 Y:69 P:67 SP:80 CYC:  0
CE87  38        SEC                             A:83 X:77 Y:69 P:67 SP:80 CYC:  0
CE88  B8        CLV                             A:83 X:77 Y:69 P:67 SP:80 CYC:  0
CE89  A9 00     LDA #$00                        A:83 X:77 Y:69 P:27 SP:80 CYC:  0
CE8B  20 66 CE  JSR $CE66                       A:00 X:77 Y:69 P:27 SP:80 CYC:  0
CE66  60        RTS                             A:00 X:77 Y:69 P:27 SP:7E CYC:  0
CE8E  D0 09     BNE $CE99                       A:00 X:77 Y:69 P:27 SP:80 CYC:  0
CE90  30 07     BMI $CE99                       A:00 X:77 Y:69 P:27 SP:80 CYC:  0
CE92  90 05     BCC $CE99                       A:00 X:77 Y:69 P:27 SP:80 CYC:  0
CE94  70 03     BVS $CE99                       A:00 X:77 Y:69 P:27 SP:80 CYC:  0
CE96  4C 9D CE  JMP $CE9D                       A:00 X:77 Y:69 P:27 SP:80 CYC:  0
CE9D  EA        NOP                             A:00 X:77 Y:69 P:27 SP:80 CYC:  0
CE9E  A9 CE     LDA #$CE                        A:00 X:77 Y:69 P:27 SP:80 CYC:  0
CEA0  48        PHA                             A:CE X:77 Y:69 P:A5 SP:80 CYC:  0
CEA1  A9 AE     LDA #$AE                        A:CE X:77 Y:69 P:A5 SP:7F CYC:  0
CEA3  48        PHA                             A:AE X:77 Y:69 P:A5 SP:7F CYC:  0
CEA4  A9 65     LDA #$65                        A:AE X:77 Y:69 P:A5 SP:7E CYC:  0
CEA6  48        PHA                             A:65 X:77 Y:69 P:25 SP:7E CYC:  0
CEA7  A9 55     LDA #$55                        A:65 X:77 Y:69 P:25 SP:7D CYC:  0
CEA9  A0 88     LDY #$88                        A:55 X:77 Y:69 P:25 SP:7D CYC:  0
CEAB  A2 99     LDX #$99                        A:55 X:77 Y:88 P:A5 SP:7D CYC:  0
CEAD  40        RTI                             A:55 X:99 Y:88 P:A5 SP:7D CYC:  0
CEAE  30 35     BMI $CEE5                       A:55 X:99 Y:88 P:65 SP:80 CYC:  0
CEB0  50 33     BVC $CEE5                       A:55 X:99 Y:88 P:65 SP:80 CYC:  0
CEB2  F0 31     BEQ $CEE5                       A:55 X:99 Y:88 P:65 SP:80 CYC:  0
CEB4  90 2F     BCC $CEE5                       A:55 X:99 Y:88 P:65 SP:80 CYC:  0
CEB6  C9 55     CMP #$55                        A:55 X:99 Y:88 P:65 SP:80 CYC:  0
CEB8  D0 2B     BNE $CEE5                       A:55 X:99 Y:88 P:67 SP:80 CYC:  0
CEBA  C0 88     CPY #$88                        A:55 X:99 Y:88 P:67 SP:80 CYC:  0
CEBC  D0 27     BNE $CEE5                       A:55 X:99 Y:88 P:67 SP:80 CYC:  0
CEBE  E0 99     CPX #$99                        A:55 X:99 Y:88 P:67 SP:80 CYC:  0
CEC0  D0 23     BNE $CEE5                       A:55 X:99 Y:88 P:67 SP:80 CYC:  0
CEC2  A9 CE     LDA #$CE                        A:55 X:99 Y:88 P:67 SP:80 CYC:  0
CEC4  48        PHA                             A:CE X:99 Y:88 P:E5 SP:80 CYC:  0
CEC5  A9 CE     LDA #$CE                        A:CE X:99 Y:88 P:E5 SP:7F CYC:  0
CEC7  48        PHA                             A:CE X:99 Y:88 P:E5 SP:7F CYC:  0
CEC8  A9 87     LDA #$87                        A:CE X:99 Y:88 P:E5 SP:7E CYC:  0
CECA  48        PHA                             A:87 X:99 Y:88 P:E5 SP:7E CYC:  0
CECB  A9 55     LDA #$55                        A:87 X:99 Y:88 P:E5 SP:7D CYC:  0
CECD  40        RTI                             A:55 X:99 Y:88 P:65 SP:7D CYC:  0
CECE  10 15     BPL $CEE5                       A:55 X:99 Y:88 P:A7 SP:80 CYC:  0
CED0  70 13     BVS $CEE5                       A:55 X:99 Y:88 P:A7 SP:80 CYC:  0
CED2  D0 11     BNE $CEE5                       A:55 X:99 Y:88 P:A7 SP:80 CYC:  0
CED4  90 0F     BCC $CEE5                       A:55 X:99 Y:88 P:A7 SP:80 CYC:  0
CED6  C9 55     CMP #$55                        A:55 X:99 Y:88 P:A7 SP:80 CYC:  0
CED8  D0 0B     BNE $CEE5                       A:55 X:99 Y:88 P:27 SP:80 CYC:  0
CEDA  C0 88     CPY #$88                        A:55 X:99 Y:88 P:27 SP:80 CYC:  0
CEDC  D0 07     BNE $CEE5                       A:55 X:99 Y:88 P:27 SP:80 CYC:  0
CEDE  E0 99     CPX #$99                        A:55 X:99 Y:88 P:27 SP:80 CYC:  0
CEE0  D0 03     BNE $CEE5                       A:55 X:99 Y:88 P:27 SP:80 CYC:  0
CEE2  4C E9 CE  JMP $CEE9                       A:55 X:99 Y:88 P:27 SP:80 CYC:  0
CEE9  AE FF 07  LDX $07FF = FB                  A:55 X:99 Y:88 P:27 SP:80 CYC:  0
CEEC  9A        TXS                             A:55 X:FB Y:88 P:A5 SP:80 CYC:  0
CEED  60        RTS                             A:55 X:FB Y:88 P:A5 SP:FB CYC:  0
C60C  20 EE CE  JSR $CEEE                       A:55 X:FB Y:88 P:A5 SP:FD CYC:  0
CEEE  A2 55     LDX #$55                        A:55 X:FB Y:88 P:A5 SP:FB CYC:  0
CEF0  A0 69     LDY #$69                        A:55 X:55 Y:88 P:25 SP:FB CYC:  0
CEF2  A9 FF     LDA #$FF                        A:55 X:55 Y:69 P:25 SP:FB CYC:  0
CEF4  85 01     STA $01 = FF                    A:FF X:55 Y:69 P:A5 SP:FB CYC:  0
CEF6  EA        NOP                             A:FF X:55 Y:69 P:A5 SP:FB CYC:  0
CEF7  24 01     BIT $01 = FF                    A:FF X:55 Y:69 P:A5 SP:FB CYC:  0
CEF9  38        SEC                             A:FF X:55 Y:69 P:E5 SP:FB CYC:  0
CEFA  A9 01     LDA #$01                        A:FF X:55 Y:69 P:E5 SP:FB CYC:  0
CEFC  4A        LSR A                           A:01 X:55 Y:69 P:65 SP:FB CYC:  0
CEFD  90 1D     BCC $CF1C                       A:00 X:55 Y:69 P:67 SP:FB CYC:  0
CEFF  D0 1B     BNE $CF1C                       A:00 X:55 Y:69 P:67 SP:FB CYC:  0
CF01  30 19     BMI $CF1C                       A:00 X:55 Y:69 P:67 SP:FB CYC:  0
CF03  50 17     BVC $CF1C                       A:00 X:55 Y:69 P:67 SP:FB CYC:  0
CF05  C9 00     CMP #$00                        A:00 X:55 Y:69 P:67 SP:FB CYC:  0
CF07  D0 13     BNE $CF1C                       A:00 X:55 Y:69 P:67 SP:FB CYC:  0
CF09  B8        CLV                             A:00 X:55 Y:69 P:67 SP:FB CYC:  0
CF0A  A9 AA     LDA #$AA                        A:00 X:55 Y:69 P:27 SP:FB CYC:  0
CF0C  4A        LSR A                           A:AA X:55 Y:69 P:A5 SP:FB CYC:  0
CF0D  B0 0D     BCS $CF1C                       A:55 X:55 Y:69 P:24 SP:FB CYC:  0
CF0F  F0 0B     BEQ $CF1C                       A:55 X:55 Y:69 P:24 SP:FB CYC:  0
CF11  30 09     BMI $CF1C                       A:55 X:55 Y:69 P:24 SP:FB CYC:  0
CF13  70 07     BVS $CF1C                       A:55 X:55 Y:69 P:24 SP:FB CYC:  0
CF15  C9 55     CMP #$55                        A:55 X:55 Y:69 P:24 SP:FB CYC:  0
CF17  D0 03     BNE $CF1C                       A:55 X:55 Y:69 P:27 SP:FB CYC:  0
CF19  4C 20 CF  JMP $CF20                       A:55 X:55 Y:69 P:27 SP:FB CYC:  0
CF20  EA        NOP                             A:55 X:55 Y:69 P:27 SP:FB CYC:  0
CF21  24 01     BIT $01 = FF                    A:55 X:55 Y:69 P:27 SP:FB CYC:  0
CF23  38        SEC                             A:55 X:55 Y:69 P:E5 SP:FB CYC:  0
CF24  A9 80     LDA #$80                        A:55 X:55 Y:69 P:E5 SP:FB CYC:  0
CF26  0A        ASL A                           A:80 X:55 Y:69 P:E5 SP:FB CYC:  0
CF27  90 1E     BCC $CF47                       A:00 X:55 Y:69 P:67 SP:FB CYC:  0
CF29  D0 1C     BNE $CF47                       A:00 X:55 Y:69 P:67 SP:FB CYC:  0
CF2B  30 1A     BMI $CF47                       A:00 X:55 Y:69 P:67 SP:FB CYC:  0
CF2D  50 18     BVC $CF47                       A:00 X:55 Y:69 P:67 SP:FB CYC:  0
CF2F  C9 00     CMP #$00                        A:00 X:55 Y:69 P:67 SP:FB CYC:  0
CF31  D0 14     BNE $CF47                       A:00 X:55 Y:69 P:67 SP:FB CYC:  0
CF33  B8        CLV                             A:00 X:55 Y:69 P:67 SP:FB CYC:  0
CF34  38        SEC                             A:00 X:55 Y:69 P:27 SP:FB CYC:  0
CF35  A9 55     LDA #$55                        A:00 X:55 Y:69 P:27 SP:FB CYC:  0
CF37  0A        ASL A                           A:55 X:55 Y:69 P:25 SP:FB CYC:  0
CF38  B0 0D     BCS $CF47                       A:AA X:55 Y:69 P:A4 SP:FB CYC:  0
CF3A  F0 0B     BEQ $CF47                       A:AA X:55 Y:69 P:A4 SP:FB CYC:  0
CF3C  10 09     BPL $CF47                       A:AA X:55 Y:69 P:A4 SP:FB CYC:  0
CF3E  70 07     BVS $CF47                       A:AA X:55 Y:69 P:A4 SP:FB CYC:  0
CF40  C9 AA     CMP #$AA                        A:AA X:55 Y:69 P:A4 SP:FB CYC:  0
CF42  D0 03     BNE $CF47                       A:AA X:55 Y:69 P:27 SP:FB CYC:  0
CF44  4C 4B CF  JMP $CF4B                       A:AA X:55 Y:69 P:27 SP:FB CYC:  0
CF4B  EA        NOP                             A:AA X:55 Y:69 P:27 SP:FB CYC:  0
CF4C  24 01     BIT $01 = FF                    A:AA X:55 Y:69 P:27 SP:FB CYC:  0
CF4E  38        SEC                             A:AA X:55 Y:69 P:E5 SP:FB CYC:  0
CF4F  A9 01     LDA #$01                        A:AA X:55 Y:69 P:E5 SP:FB CYC:  0
CF51  6A        ROR A                           A:01 X:55 Y:69 P:65 SP:FB CYC:  0
CF52  90 1E     BCC $CF72                       A:80 X:55 Y:69 P:E5 SP:FB CYC:  0
CF54  F0 1C     BEQ $CF72                       A:80 X:55 Y:69 P:E5 SP:FB CYC:  0
CF56  10 1A     BPL $CF72                       A:80 X:55 Y:69 P:E5 SP:FB CYC:  0
CF58  50 18     BVC $CF72                       A:80 X:55 Y:69 P:E5 SP:FB CYC:  0
CF5A  C9 80     CMP #$80                        A:80 X:55 Y:69 P:E5 SP:FB CYC:  0
CF5C  D0 14     BNE $CF72                       A:80 X:55 Y:69 P:67 SP:FB CYC:  0
CF5E  B8        CLV                             A:80 X:55 Y:69 P:67 SP:FB CYC:  0
CF5F  18        CLC                             A:80 X:55 Y:69 P:27 SP:FB CYC:  0
CF60  A9 55     LDA #$55                        A:80 X:55 Y:69 P:26 SP:FB CYC:  0
CF62  6A        ROR A                           A:55 X:55 Y:69 P:24 SP:FB CYC:  0
CF63  90 0D     BCC $CF72                       A:2A X:55 Y:69 P:25 SP:FB CYC:  0
CF65  F0 0B     BEQ $CF72                       A:2A X:55 Y:69 P:25 SP:FB CYC:  0
CF67  30 09     BMI $CF72                       A:2A X:55 Y:69 P:25 SP:FB CYC:  0
CF69  70 07     BVS $CF72                       A:2A X:55 Y:69 P:25 SP:FB CYC:  0
CF6B  C9 2A     CMP #$2A                        A:2A X:55 Y:69 P:25 SP:FB CYC:  0
CF6D  D0 03     BNE $CF72                       A:2A X:55 Y:69 P:27 SP:FB CYC:  0
CF6F  4C 76 CF  JMP $CF76                       A:2A X:55 Y:69 P:27 SP:FB CYC:  0
CF76  EA        NOP                             A:2A X:55 Y:69 P:27 SP:FB CYC:  0
CF77  24 01     BIT $01 = FF                    A:2A X:55 Y:69 P:27 SP:FB CYC:  0
CF79  38        SEC                             A:2A X:55 Y:69 P:E5 SP:FB CYC:  0
CF7A  A9 80     LDA #$80                        A:2A X:55 Y:69 P:E5 SP:FB CYC:  0
CF7C  2A        ROL A                           A:80 X:55 Y:69 P:E5 SP:FB CYC:  0
CF7D  90 1E     BCC $CF9D                       A:01 X:55 Y:69 P:65 SP:FB CYC:  0
CF7F  F0 1C     BEQ $CF9D                       A:01 X:55 Y:69 P:65 SP:FB CYC:  0
CF81  30 1A     BMI $CF9D                       A:01 X:55 Y:69 P:65 SP:FB CYC:  0
CF83  50 18     BVC $CF9D                       A:01 X:55 Y:69 P:65 SP:FB CYC:  0
CF85  C9 01     CMP #$01                        A:01 X:55 Y:69 P:65 SP:FB CYC:  0
CF87  D0 14     BNE $CF9D                       A:01 X:55 Y:69 P:67 SP:FB CYC:  0
CF89  B8        CLV                             A:01 X:55 Y:69 P:67 SP:FB CYC:  0
CF8A  18        CLC                             A:01 X:55 Y:69 P:27 SP:FB CYC:  0
CF8B  A9 55     LDA #$55                        A:01 X:55 Y:69 P:26 SP:FB CYC:  0
CF8D  2A        ROL A                           A:55 X:55 Y:69 P:24 SP:FB CYC:  0
CF8E  B0 0D     BCS $CF9D                       A:AA X:55 Y:69 P:A4 SP:FB CYC:  0
CF90  F0 0B     BEQ $CF9D                       A:AA X:55 Y:69 P:A4 SP:FB CYC:  0
CF92  10 09     BPL $CF9D                       A:AA X:55 Y:69 P:A4 SP:FB CYC:  0
CF94  70 07     BVS $CF9D                       A:AA X:55 Y:69 P:A4 SP:FB CYC:  0
CF96  C9 AA     CMP #$AA                        A:AA X:55 Y:69 P:A4 SP:FB CYC:  0
CF98  D0 03     BNE $CF9D                       A:AA X:55 Y:69 P:27 SP:FB CYC:  0
CF9A  4C A1 CF  JMP $CFA1                       A:AA X:55 Y:69 P:27 SP:FB CYC:  0
CFA1  60        RTS                             A:AA X:55 Y:69 P:27 SP:FB CYC:  0
C60F  20 A2 CF  JSR $CFA2                       A:AA X:55 Y:69 P:27 SP:FD CYC:  0
CFA2  A5 00     LDA $00 = 00                    A:AA X:55 Y:69 P:27 SP:FB CYC:  0
CFA4  8D FF 07  STA $07FF = FB                  A:00 X:55 Y:69 P:27 SP:FB CYC:  0
CFA7  A9 00     LDA #$00                        A:00 X:55 Y:69 P:27 SP:FB CYC:  0
CFA9  85 80     STA $80 = 00                    A:00 X:55 Y:69 P:27 SP:FB CYC:  0
CFAB  A9 02     LDA #$02                        A:00 X:55 Y:69 P:27 SP:FB CYC:  0
CFAD  85 81     STA $81 = 00                    A:02 X:55 Y:69 P:25 SP:FB CYC:  0
CFAF  A9 FF     LDA #$FF                        A:02 X:55 Y:69 P:25 SP:FB CYC:  0
CFB1  85 01     STA $01 = FF                    A:FF X:55 Y:69 P:A5 SP:FB CYC:  0
CFB3  A9 00     LDA #$00                        A:FF X:55 Y:69 P:A5 SP:FB CYC:  0
CFB5  85 82     STA $82 = 00                    A:00 X:55 Y:69 P:27 SP:FB CYC:  0
CFB7  A9 03     LDA #$03                        A:00 X:55 Y:69 P:27 SP:FB CYC:  0
CFB9  85 83     STA $83 = 00                    A:03 X:55 Y:69 P:25 SP:FB CYC:  0
CFBB  85 84     STA $84 = 00                    A:03 X:55 Y:69 P:25 SP:FB CYC:  0
CFBD  A9 00     LDA #$00                        A:03 X:55 Y:69 P:25 SP:FB CYC:  0
CFBF  85 FF     STA $FF = 00                    A:00 X:55 Y:69 P:27 SP:FB CYC:  0
CFC1  A9 04     LDA #$04                        A:00 X:55 Y:69 P:27 SP:FB CYC:  0
CFC3  85 00     STA $00 = 00                    A:04 X:55 Y:69 P:25 SP:FB CYC:  0
CFC5  A9 5A     LDA #$5A                        A:04 X:55 Y:69 P:25 SP:FB CYC:  0
CFC7  8D 00 02  STA $0200 = 00                  A:5A X:55 Y:69 P:25 SP:FB CYC:  0
CFCA  A9 5B     LDA #$5B                        A:5A X:55 Y:69 P:25 SP:FB CYC:  0
CFCC  8D 00 03  STA $0300 = 00                  A:5B X:55 Y:69 P:25 SP:FB CYC:  0
CFCF  A9 5C     LDA #$5C                        A:5B X:55 Y:69 P:25 SP:FB CYC:  0
CFD1  8D 03 03  STA $0303 = 00                  A:5C X:55 Y:69 P:25 SP:FB CYC:  0
CFD4  A9 5D     LDA #$5D                        A:5C X:55 Y:69 P:25 SP:FB CYC:  0
CFD6  8D 00 04  STA $0400 = 00                  A:5D X:55 Y:69 P:25 SP:FB CYC:  0
CFD9  A2 00     LDX #$00                        A:5D X:55 Y:69 P:25 SP:FB CYC:  0
CFDB  A1 80     LDA ($80,X) @ 80 = 0200 = 5A    A:5D X:00 Y:69 P:27 SP:FB CYC:  0
CFDD  C9 5A     CMP #$5A                        A:5A X:00 Y:69 P:25 SP:FB CYC:  0
CFDF  D0 1F     BNE $D000                       A:5A X:00 Y:69 P:27 SP:FB CYC:  0
CFE1  E8        INX                             A:5A X:00 Y:69 P:27 SP:FB CYC:  0
CFE2  E8        INX                             A:5A X:01 Y:69 P:25 SP:FB CYC:  0
CFE3  A1 80     LDA ($80,X) @ 82 = 0300 = 5B    A:5A X:02 Y:69 P:25 SP:FB CYC:  0
CFE5  C9 5B     CMP #$5B                        A:5B X:02 Y:69 P:25 SP:FB CYC:  0
CFE7  D0 17     BNE $D000                       A:5B X:02 Y:69 P:27 SP:FB CYC:  0
CFE9  E8        INX                             A:5B X:02 Y:69 P:27 SP:FB CYC:  0
CFEA  A1 80     LDA ($80,X) @ 83 = 0303 = 5C    A:5B X:03 Y:69 P:25 SP:FB CYC:  0
CFEC  C9 5C     CMP #$5C                        A:5C X:03 Y:69 P:25 SP:FB CYC:  0
CFEE  D0 10     BNE $D000                       A:5C X:03 Y:69 P:27 SP:FB CYC:  0
CFF0  A2 00     LDX #$00                        A:5C X:03 Y:69 P:27 SP:FB CYC:  0
CFF2  A1 FF     LDA ($FF,X) @ FF = 0400 = 5D    A:5C X:00 Y:69 P:27 SP:FB CYC:  0
CFF4  C9 5D     CMP #$5D                        A:5D X:00 Y:69 P:25 SP:FB CYC:  0
CFF6  D0 08     BNE $D000                       A:5D X:00 Y:69 P:27 SP:FB CYC:  0
CFF8  A2 81     LDX #$81                        A:5D X:00 Y:69 P:27 SP:FB CYC:  0
CFFA  A1 FF     LDA ($FF,X) @ 80 = 0200 = 5A    A:5D X:81 Y:69 P:A5 SP:FB CYC:  0
CFFC  C9 5A     CMP #$5A                        A:5A X:81 Y:69 P:25 SP:FB CYC:  0
CFFE  F0 05     BEQ $D005                       A:5A X:81 Y:69 P:27 SP:FB CYC:  0
D005  A9 AA     LDA #$AA                        A:5A X:81 Y:69 P:27 SP:FB CYC:  0
D007  A2 00     LDX #$00                        A:AA X:81 Y:69 P:A5 SP:FB CYC:  0
D009  81 80     STA ($80,X) @ 80 = 0200 = 5A    A:AA X:00 Y:69 P:27 SP:FB CYC:  0
D00B  E8        INX                             A:AA X:00 Y:69 P:27 SP:FB CYC:  0
D00C  E8        INX                             A:AA X:01 Y:69 P:25 SP:FB CYC:  0
D00D  A9 AB     LDA #$AB                        A:AA X:02 Y:69 P:25 SP:FB CYC:  0
D00F  81 80     STA ($80,X) @ 82 = 0300 = 5B    A:AB X:02 Y:69 P:A5 SP:FB CYC:  0
D011  E8        INX                             A:AB X:02 Y:69 P:A5 SP:FB CYC:  0
D012  A9 AC     LDA #$AC                        A:AB X:03 Y:69 P:25 SP:FB CYC:  0
D014  81 80     STA ($80,X) @ 83 = 0303 = 5C    A:AC X:03 Y:69 P:A5 SP:FB CYC:  0
D016  A2 00     LDX #$00                        A:AC X:03 Y:69 P:A5 SP:FB CYC:  0
D018  A9 AD     LDA #$AD                        A:AC X:00 Y:69 P:27 SP:FB CYC:  0
D01A  81 FF     STA ($FF,X) @ FF = 0400 = 5D    A:AD X:00 Y:69 P:A5 SP:FB CYC:  0
D01C  AD 00 02  LDA $0200 = AA                  A:AD X:00 Y:69 P:A5 SP:FB CYC:  0
D01F  C9 AA     CMP #$AA                        A:AA X:00 Y:69 P:A5 SP:FB CYC:  0
D021  D0 15     BNE $D038                       A:AA X:00 Y:69 P:27 SP:FB CYC:  0
D023  AD 00 03  LDA $0300 = AB                  A:AA X:00 Y:69 P:27 SP:FB CYC:  0
D026  C9 AB     CMP #$AB                        A:AB X:00 Y:69 P:A5 SP:FB CYC:  0
D028  D0 0E     BNE $D038                       A:AB X:00 Y:69 P:27 SP:FB CYC:  0
D02A  AD 03 03  LDA $0303 = AC                  A:AB X:00 Y:69 P:27 SP:FB CYC:  0
D02D  C9 AC     CMP #$AC                        A:AC X:00 Y:69 P:A5 SP:FB CYC:  0
D02F  D0 07     BNE $D038                       A:AC X:00 Y:69 P:27 SP:FB CYC:  0
D031  AD 00 04  LDA $0400 = AD                  A:AC X:00 Y:69 P:27 SP:FB CYC:  0
D034  C9 AD     CMP #$AD                        A:AD X:00 Y:69 P:A5 SP:FB CYC:  0
D036  F0 05     BEQ $D03D                       A:AD X:00 Y:69 P:27 SP:FB CYC:  0
D03D  AD FF 07  LDA $07FF = 00                  A:AD X:00 Y:69 P:27 SP:FB CYC:  0
D040  85 00     STA $00 = 04                    A:00 X:00 Y:69 P:27 SP:FB CYC:  0
D042  A9 00     LDA #$00                        A:00 X:00 Y:69 P:27 SP:FB CYC:  0
D044  8D 00 03  STA $0300 = AB                  A:00 X:00 Y:69 P:27 SP:FB CYC:  0
D047  A9 AA     LDA #$AA                        A:00 X:00 Y:69 P:27 SP:FB CYC:  0
D049  8D 00 02  STA $0200 = AA                  A:AA X:00 Y:69 P:A5 SP:FB CYC:  0
D04C  A2 00     LDX #$00                        A:AA X:00 Y:69 P:A5 SP:FB CYC:  0
D04E  A0 5A     LDY #$5A                        A:AA X:00 Y:69 P:27 SP:FB CYC:  0
D050  20 B6 F7  JSR $F7B6                       A:AA X:00 Y:5A P:25 SP:FB CYC:  0
F7B6  18        CLC                             A:AA X:00 Y:5A P:25 SP:F9 CYC:  0
F7B7  A9 FF     LDA #$FF                        A:AA X:00 Y:5A P:24 SP:F9 CYC:  0
F7B9  85 01     STA $01 = FF                    A:FF X:00 Y:5A P:A4 SP:F9 CYC:  0
F7BB  24 01     BIT $01 = FF                    A:FF X:00 Y:5A P:A4 SP:F9 CYC:  0
F7BD  A9 55     LDA #$55                        A:FF X:00 Y:5A P:E4 SP:F9 CYC:  0
F7BF  60        RTS                             A:55 X:00 Y:5A P:64 SP:F9 CYC:  0
D053  01 80     ORA ($80,X) @ 80 = 0200 = AA    A:55 X:00 Y:5A P:64 SP:FB CYC:  0
D055  20 C0 F7  JSR $F7C0                       A:FF X:00 Y:5A P:E4 SP:FB CYC:  0
F7C0  B0 09     BCS $F7CB                       A:FF X:00 Y:5A P:E4 SP:F9 CYC:  0
F7C2  10 07     BPL $F7CB                       A:FF X:00 Y:5A P:E4 SP:F9 CYC:  0
F7C4  C9 FF     CMP #$FF                        A:FF X:00 Y:5A P:E4 SP:F9 CYC:  0
F7C6  D0 03     BNE $F7CB                       A:FF X:00 Y:5A P:67 SP:F9 CYC:  0
F7C8  50 01     BVC $F7CB                       A:FF X:00 Y:5A P:67 SP:F9 CYC:  0
F7CA  60        RTS                             A:FF X:00 Y:5A P:67 SP:F9 CYC:  0
D058  C8        INY                             A:FF X:00 Y:5A P:67 SP:FB CYC:  0
D059  20 CE F7  JSR $F7CE                       A:FF X:00 Y:5B P:65 SP:FB CYC:  0
F7CE  38        SEC                             A:FF X:00 Y:5B P:65 SP:F9 CYC:  0
F7CF  B8        CLV                             A:FF X:00 Y:5B P:65 SP:F9 CYC:  0
F7D0  A9 00     LDA #$00                        A:FF X:00 Y:5B P:25 SP:F9 CYC:  0
F7D2  60        RTS                             A:00 X:00 Y:5B P:27 SP:F9 CYC:  0
D05C  01 82     ORA ($82,X) @ 82 = 0300 = 00    A:00 X:00 Y:5B P:27 SP:FB CYC:  0
D05E  20 D3 F7  JSR $F7D3                       A:00 X:00 Y:5B P:27 SP:FB CYC:  0
F7D3  D0 07     BNE $F7DC                       A:00 X:00 Y:5B P:27 SP:F9 CYC:  0
F7D5  70 05     BVS $F7DC                       A:00 X:00 Y:5B P:27 SP:F9 CYC:  0
F7D7  90 03     BCC $F7DC                       A:00 X:00 Y:5B P:27 SP:F9 CYC:  0
F7D9  30 01     BMI $F7DC                       A:00 X:00 Y:5B P:27 SP:F9 CYC:  0
F7DB  60        RTS                             A:00 X:00 Y:5B P:27 SP:F9 CYC:  0
D061  C8        INY                             A:00 X:00 Y:5B P:27 SP:FB CYC:  0
D062  20 DF F7  JSR $F7DF                       A:00 X:00 Y:5C P:25 SP:FB CYC:  0
F7DF  18        CLC                             A:00 X:00 Y:5C P:25 SP:F9 CYC:  0
F7E0  24 01     BIT $01 = FF                    A:00 X:00 Y:5C P:24 SP:F9 CYC:  0
F7E2  A9 55     LDA #$55                        A:00 X:00 Y:5C P:E6 SP:F9 CYC:  0
F7E4  60        RTS                             A:55 X:00 Y:5C P:64 SP:F9 CYC:  0
D065  21 80     AND ($80,X) @ 80 = 0200 = AA    A:55 X:00 Y:5C P:64 SP:FB CYC:  0
D067  20 E5 F7  JSR $F7E5                       A:00 X:00 Y:5C P:66 SP:FB CYC:  0
F7E5  D0 07     BNE $F7EE                       A:00 X:00 Y:5C P:66 SP:F9 CYC:  0
F7E7  50 05     BVC $F7EE                       A:00 X:00 Y:5C P:66 SP:F9 CYC:  0
F7E9  B0 03     BCS $F7EE                       A:00 X:00 Y:5C P:66 SP:F9 CYC:  0
F7EB  30 01     BMI $F7EE                       A:00 X:00 Y:5C P:66 SP:F9 CYC:  0
F7ED  60        RTS                             A:00 X:00 Y:5C P:66 SP:F9 CYC:  0
D06A  C8        INY                             A:00 X:00 Y:5C P:66 SP:FB CYC:  0
D06B  A9 EF     LDA #$EF                        A:00 X:00 Y:5D P:64 SP:FB CYC:  0
D06D  8D 00 03  STA $0300 = 00                  A:EF X:00 Y:5D P:E4 SP:FB CYC:  0
D070  20 F1 F7  JSR $F7F1                       A:EF X:00 Y:5D P:E4 SP:FB CYC:  0
F7F1  38        SEC                             A:EF X:00 Y:5D P:E4 SP:F9 CYC:  0
F7F2  B8        CLV                             A:EF X:00 Y:5D P:E5 SP:F9 CYC:  0
F7F3  A9 F8     LDA #$F8                        A:EF X:00 Y:5D P:A5 SP:F9 CYC:  0
F7F5  60        RTS                             A:F8 X:00 Y:5D P:A5 SP:F9 CYC:  0
D073  21 82     AND ($82,X) @ 82 = 0300 = EF    A:F8 X:00 Y:5D P:A5 SP:FB CYC:  0
D075  20 F6 F7  JSR $F7F6                       A:E8 X:00 Y:5D P:A5 SP:FB CYC:  0
F7F6  90 09     BCC $F801                       A:E8 X:00 Y:5D P:A5 SP:F9 CYC:  0
F7F8  10 07     BPL $F801                       A:E8 X:00 Y:5D P:A5 SP:F9 CYC:  0
F7FA  C9 E8     CMP #$E8                        A:E8 X:00 Y:5D P:A5 SP:F9 CYC:  0
F7FC  D0 03     BNE $F801                       A:E8 X:00 Y:5D P:27 SP:F9 CYC:  0
F7FE  70 01     BVS $F801                       A:E8 X:00 Y:5D P:27 SP:F9 CYC:  0
F800  60        RTS                             A:E8 X:00 Y:5D P:27 SP:F9 CYC:  0
D078  C8        INY                             A:E8 X:00 Y:5D P:27 SP:FB CYC:  0
D079  20 04 F8  JSR $F804                       A:E8 X:00 Y:5E P:25 SP:FB CYC:  0
F804  18        CLC                             A:E8 X:00 Y:5E P:25 SP:F9 CYC:  0
F805  24 01     BIT $01 = FF                    A:E8 X:00 Y:5E P:24 SP:F9 CYC:  0
F807  A9 5F     LDA #$5F                        A:E8 X:00 Y:5E P:E4 SP:F9 CYC:  0
F809  60        RTS                             A:5F X:00 Y:5E P:64 SP:F9 CYC:  0
D07C  41 80     EOR ($80,X) @ 80 = 0200 = AA    A:5F X:00 Y:5E P:64 SP:FB CYC:  0
D07E  20 0A F8  JSR $F80A                       A:F5 X:00 Y:5E P:E4 SP:FB CYC:  0
F80A  B0 09     BCS $F815                       A:F5 X:00 Y:5E P:E4 SP:F9 CYC:  0
F80C  10 07     BPL $F815                       A:F5 X:00 Y:5E P:E4 SP:F9 CYC:  0
F80E  C9 F5     CMP #$F5                        A:F5 X:00 Y:5E P:E4 SP:F9 CYC:  0
F810  D0 03     BNE $F815                       A:F5 X:00 Y:5E P:67 SP:F9 CYC:  0
F812  50 01     BVC $F815                       A:F5 X:00 Y:5E P:67 SP:F9 CYC:  0
F814  60        RTS                             A:F5 X:00 Y:5E P:67 SP:F9 CYC:  0
D081  C8        INY                             A:F5 X:00 Y:5E P:67 SP:FB CYC:  0
D082  A9 70     LDA #$70                        A:F5 X:00 Y:5F P:65 SP:FB CYC:  0
D084  8D 00 03  STA $0300 = EF                  A:70 X:00 Y:5F P:65 SP:FB CYC:  0
D087  20 18 F8  JSR $F818                       A:70 X:00 Y:5F P:65 SP:FB CYC:  0
F818  38        SEC                             A:70 X:00 Y:5F P:65 SP:F9 CYC:  0
F819  B8        CLV                             A:70 X:00 Y:5F P:65 SP:F9 CYC:  0
F81A  A9 70     LDA #$70                        A:70 X:00 Y:5F P:25 SP:F9 CYC:  0
F81C  60        RTS                             A:70 X:00 Y:5F P:25 SP:F9 CYC:  0
D08A  41 82     EOR ($82,X) @ 82 = 0300 = 70    A:70 X:00 Y:5F P:25 SP:FB CYC:  0
D08C  20 1D F8  JSR $F81D                       A:00 X:00 Y:5F P:27 SP:FB CYC:  0
F81D  D0 07     BNE $F826                       A:00 X:00 Y:5F P:27 SP:F9 CYC:  0
F81F  70 05     BVS $F826                       A:00 X:00 Y:5F P:27 SP:F9 CYC:  0
F821  90 03     BCC $F826                       A:00 X:00 Y:5F P:27 SP:F9 CYC:  0
F823  30 01     BMI $F826                       A:00 X:00 Y:5F P:27 SP:F9 CYC:  0
F825  60        RTS                             A:00 X:00 Y:5F P:27 SP:F9 CYC:  0
D08F  C8        INY                             A:00 X:00 Y:5F P:27 SP:FB CYC:  0
D090  A9 69     LDA #$69                        A:00 X:00 Y:60 P:25 SP:FB CYC:  0
D092  8D 00 02  STA $0200 = AA                  A:69 X:00 Y:60 P:25 SP:FB CYC:  0
D095  20 29 F8  JSR $F829                       A:69 X:00 Y:60 P:25 SP:FB CYC:  0
F829  18        CLC                             A:69 X:00 Y:60 P:25 SP:F9 CYC:  0
F82A  24 01     BIT $01 = FF                    A:69 X:00 Y:60 P:24 SP:F9 CYC:  0
F82C  A9 00     LDA #$00                        A:69 X:00 Y:60 P:E4 SP:F9 CYC:  0
F82E  60        RTS                             A:00 X:00 Y:60 P:66 SP:F9 CYC:  0
D098  61 80     ADC ($80,X) @ 80 = 0200 = 69    A:00 X:00 Y:60 P:66 SP:FB CYC:  0
D09A  20 2F F8  JSR $F82F                       A:69 X:00 Y:60 P:24 SP:FB CYC:  0
F82F  30 09     BMI $F83A                       A:69 X:00 Y:60 P:24 SP:F9 CYC:  0
F831  B0 07     BCS $F83A                       A:69 X:00 Y:60 P:24 SP:F9 CYC:  0
F833  C9 69     CMP #$69                        A:69 X:00 Y:60 P:24 SP:F9 CYC:  0
F835  D0 03     BNE $F83A                       A:69 X:00 Y:60 P:27 SP:F9 CYC:  0
F837  70 01     BVS $F83A                       A:69 X:00 Y:60 P:27 SP:F9 CYC:  0
F839  60        RTS                             A:69 X:00 Y:60 P:27 SP:F9 CYC:  0
D09D  C8        INY                             A:69 X:00 Y:60 P:27 SP:FB CYC:  0
D09E  20 3D F8  JSR $F83D                       A:69 X:00 Y:61 P:25 SP:FB CYC:  0
F83D  38        SEC                             A:69 X:00 Y:61 P:25 SP:F9 CYC:  0
F83E  24 01     BIT $01 = FF                    A:69 X:00 Y:61 P:25 SP:F9 CYC:  0
F840  A9 00     LDA #$00                        A:69 X:00 Y:61 P:E5 SP:F9 CYC:  0
F842  60        RTS                             A:00 X:00 Y:61 P:67 SP:F9 CYC:  0
D0A1  61 80     ADC ($80,X) @ 80 = 0200 = 69    A:00 X:00 Y:61 P:67 SP:FB CYC:  0
D0A3  20 43 F8  JSR $F843                       A:6A X:00 Y:61 P:24 SP:FB CYC:  0
F843  30 09     BMI $F84E                       A:6A X:00 Y:61 P:24 SP:F9 CYC:  0
F845  B0 07     BCS $F84E                       A:6A X:00 Y:61 P:24 SP:F9 CYC:  0
F847  C9 6A     CMP #$6A                        A:6A X:00 Y:61 P:24 SP:F9 CYC:  0
F849  D0 03     BNE $F84E                       A:6A X:00 Y:61 P:27 SP:F9 CYC:  0
F84B  70 01     BVS $F84E                       A:6A X:00 Y:61 P:27 SP:F9 CYC:  0
F84D  60        RTS                             A:6A X:00 Y:61 P:27 SP:F9 CYC:  0
D0A6  C8        INY                             A:6A X:00 Y:61 P:27 SP:FB CYC:  0
D0A7  A9 7F     LDA #$7F                        A:6A X:00 Y:62 P:25 SP:FB CYC:  0
D0A9  8D 00 02  STA $0200 = 69                  A:7F X:00 Y:62 P:25 SP:FB CYC:  0
D0AC  20 51 F8  JSR $F851                       A:7F X:00 Y:62 P:25 SP:FB CYC:  0
F851  38        SEC                             A:7F X:00 Y:62 P:25 SP:F9 CYC:  0
F852  B8        CLV                             A:7F X:00 Y:62 P:25 SP:F9 CYC:  0
F853  A9 7F     LDA #$7F                        A:7F X:00 Y:62 P:25 SP:F9 CYC:  0
F855  60        RTS                             A:7F X:00 Y:62 P:25 SP:F9 CYC:  0
D0AF  61 80     ADC ($80,X) @ 80 = 0200 = 7F    A:7F X:00 Y:62 P:25 SP:FB CYC:  0
D0B1  20 56 F8  JSR $F856                       A:FF X:00 Y:62 P:E4 SP:FB CYC:  0
F856  10 09     BPL $F861                       A:FF X:00 Y:62 P:E4 SP:F9 CYC:  0
F858  B0 07     BCS $F861                       A:FF X:00 Y:62 P:E4 SP:F9 CYC:  0
F85A  C9 FF     CMP #$FF                        A:FF X:00 Y:62 P:E4 SP:F9 CYC:  0
F85C  D0 03     BNE $F861                       A:FF X:00 Y:62 P:67 SP:F9 CYC:  0
F85E  50 01     BVC $F861                       A:FF X:00 Y:62 P:67 SP:F9 CYC:  0
F860  60        RTS                             A:FF X:00 Y:62 P:67 SP:F9 CYC:  0
D0B4  C8        INY                             A:FF X:00 Y:62 P:67 SP:FB CYC:  0
D0B5  A9 80     LDA #$80                        A:FF X:00 Y:63 P:65 SP:FB CYC:  0
D0B7  8D 00 02  STA $0200 = 7F                  A:80 X:00 Y:63 P:E5 SP:FB CYC:  0
D0BA  20 64 F8  JSR $F864                       A:80 X:00 Y:63 P:E5 SP:FB CYC:  0
F864  18        CLC                             A:80 X:00 Y:63 P:E5 SP:F9 CYC:  0
F865  24 01     BIT $01 = FF                    A:80 X:00 Y:63 P:E4 SP:F9 CYC:  0
F867  A9 7F     LDA #$7F                        A:80 X:00 Y:63 P:E4 SP:F9 CYC:  0
F869  60        RTS                             A:7F X:00 Y:63 P:64 SP:F9 CYC:  0
D0BD  61 80     ADC ($80,X) @ 80 = 0200 = 80    A:7F X:00 Y:63 P:64 SP:FB CYC:  0
D0BF  20 6A F8  JSR $F86A                       A:FF X:00 Y:63 P:A4 SP:FB CYC:  0
F86A  10 09     BPL $F875                       A:FF X:00 Y:63 P:A4 SP:F9 CYC:  0
F86C  B0 07     BCS $F875                       A:FF X:00 Y:63 P:A4 SP:F9 CYC:  0
F86E  C9 FF     CMP #$FF                        A:FF X:00 Y:63 P:A4 SP:F9 CYC:  0
F870  D0 03     BNE $F875                       A:FF X:00 Y:63 P:27 SP:F9 CYC:  0
F872  70 01     BVS $F875                       A:FF X:00 Y:63 P:27 SP:F9 CYC:  0
F874  60        RTS                             A:FF X:00 Y:63 P:27 SP:F9 CYC:  0
D0C2  C8        INY                             A:FF X:00 Y:63 P:27 SP:FB CYC:  0
D0C3  20 78 F8  JSR $F878                       A:FF X:00 Y:64 P:25 SP:FB CYC:  0
F878  38        SEC                             A:FF X:00 Y:64 P:25 SP:F9 CYC:  0
F879  B8        CLV                             A:FF X:00 Y:64 P:25 SP:F9 CYC:  0
F87A  A9 7F     LDA #$7F                        A:FF X:00 Y:64 P:25 SP:F9 CYC:  0
F87C  60        RTS                             A:7F X:00 Y:64 P:25 SP:F9 CYC:  0
D0C6  61 80     ADC ($80,X) @ 80 = 0200 = 80    A:7F X:00 Y:64 P:25 SP:FB CYC:  0
D0C8  20 7D F8  JSR $F87D                       A:00 X:00 Y:64 P:27 SP:FB CYC:  0
F87D  D0 07     BNE $F886                       A:00 X:00 Y:64 P:27 SP:F9 CYC:  0
F87F  30 05     BMI $F886                       A:00 X:00 Y:64 P:27 SP:F9 CYC:  0
F881  70 03     BVS $F886                       A:00 X:00 Y:64 P:27 SP:F9 CYC:  0
F883  90 01     BCC $F886                       A:00 X:00 Y:64 P:27 SP:F9 CYC:  0
F885  60        RTS                             A:00 X:00 Y:64 P:27 SP:F9 CYC:  0
D0CB  C8        INY                             A:00 X:00 Y:64 P:27 SP:FB CYC:  0
D0CC  A9 40     LDA #$40                        A:00 X:00 Y:65 P:25 SP:FB CYC:  0
D0CE  8D 00 02  STA $0200 = 80                  A:40 X:00 Y:65 P:25 SP:FB CYC:  0
D0D1  20 89 F8  JSR $F889                       A:40 X:00 Y:65 P:25 SP:FB CYC:  0
F889  24 01     BIT $01 = FF                    A:40 X:00 Y:65 P:25 SP:F9 CYC:  0
F88B  A9 40     LDA #$40                        A:40 X:00 Y:65 P:E5 SP:F9 CYC:  0
F88D  60        RTS                             A:40 X:00 Y:65 P:65 SP:F9 CYC:  0
D0D4  C1 80     CMP ($80,X) @ 80 = 0200 = 40    A:40 X:00 Y:65 P:65 SP:FB CYC:  0
D0D6  20 8E F8  JSR $F88E                       A:40 X:00 Y:65 P:67 SP:FB CYC:  0
F88E  30 07     BMI $F897                       A:40 X:00 Y:65 P:67 SP:F9 CYC:  0
F890  90 05     BCC $F897                       A:40 X:00 Y:65 P:67 SP:F9 CYC:  0
F892  D0 03     BNE $F897                       A:40 X:00 Y:65 P:67 SP:F9 CYC:  0
F894  50 01     BVC $F897                       A:40 X:00 Y:65 P:67 SP:F9 CYC:  0
F896  60        RTS                             A:40 X:00 Y:65 P:67 SP:F9 CYC:  0
D0D9  C8        INY                             A:40 X:00 Y:65 P:67 SP:FB CYC:  0
D0DA  48        PHA                             A:40 X:00 Y:66 P:65 SP:FB CYC:  0
D0DB  A9 3F     LDA #$3F                        A:40 X:00 Y:66 P:65 SP:FA CYC:  0
D0DD  8D 00 02  STA $0200 = 40                  A:3F X:00 Y:66 P:65 SP:FA CYC:  0
D0E0  68        PLA                             A:3F X:00 Y:66 P:65 SP:FA CYC:  0
D0E1  20 9A F8  JSR $F89A                       A:40 X:00 Y:66 P:65 SP:FB CYC:  0
F89A  B8        CLV                             A:40 X:00 Y:66 P:65 SP:F9 CYC:  0
F89B  60        RTS                             A:40 X:00 Y:66 P:25 SP:F9 CYC:  0
D0E4  C1 80     CMP ($80,X) @ 80 = 0200 = 3F    A:40 X:00 Y:66 P:25 SP:FB CYC:  0
D0E6  20 9C F8  JSR $F89C                       A:40 X:00 Y:66 P:25 SP:FB CYC:  0
F89C  F0 07     BEQ $F8A5                       A:40 X:00 Y:66 P:25 SP:F9 CYC:  0
F89E  30 05     BMI $F8A5                       A:40 X:00 Y:66 P:25 SP:F9 CYC:  0
F8A0  90 03     BCC $F8A5                       A:40 X:00 Y:66 P:25 SP:F9 CYC:  0
F8A2  70 01     BVS $F8A5                       A:40 X:00 Y:66 P:25 SP:F9 CYC:  0
F8A4  60        RTS                             A:40 X:00 Y:66 P:25 SP:F9 CYC:  0
D0E9  C8        INY                             A:40 X:00 Y:66 P:25 SP:FB CYC:  0
D0EA  48        PHA                             A:40 X:00 Y:67 P:25 SP:FB CYC:  0
D0EB  A9 41     LDA #$41                        A:40 X:00 Y:67 P:25 SP:FA CYC:  0
D0ED  8D 00 02  STA $0200 = 3F                  A:41 X:00 Y:67 P:25 SP:FA CYC:  0
D0F0  68        PLA                             A:41 X:00 Y:67 P:25 SP:FA CYC:  0
D0F1  C1 80     CMP ($80,X) @ 80 = 0200 = 41    A:40 X:00 Y:67 P:25 SP:FB CYC:  0
D0F3  20 A8 F8  JSR $F8A8                       A:40 X:00 Y:67 P:A4 SP:FB CYC:  0
F8A8  F0 05     BEQ $F8AF                       A:40 X:00 Y:67 P:A4 SP:F9 CYC:  0
F8AA  10 03     BPL $F8AF                       A:40 X:00 Y:67 P:A4 SP:F9 CYC:  0
F8AC  10 01     BPL $F8AF                       A:40 X:00 Y:67 P:A4 SP:F9 CYC:  0
F8AE  60        RTS                             A:40 X:00 Y:67 P:A4 SP:F9 CYC:  0
D0F6  C8        INY                             A:40 X:00 Y:67 P:A4 SP:FB CYC:  0
D0F7  48        PHA                             A:40 X:00 Y:68 P:24 SP:FB CYC:  0
D0F8  A9 00     LDA #$00                        A:40 X:00 Y:68 P:24 SP:FA CYC:  0
D0FA  8D 00 02  STA $0200 = 41                  A:00 X:00 Y:68 P:26 SP:FA CYC:  0
D0FD  68        PLA                             A:00 X:00 Y:68 P:26 SP:FA CYC:  0
D0FE  20 B2 F8  JSR $F8B2                       A:40 X:00 Y:68 P:24 SP:FB CYC:  0
F8B2  A9 80     LDA #$80                        A:40 X:00 Y:68 P:24 SP:F9 CYC:  0
F8B4  60        RTS                             A:80 X:00 Y:68 P:A4 SP:F9 CYC:  0
D101  C1 80     CMP ($80,X) @ 80 = 0200 = 00    A:80 X:00 Y:68 P:A4 SP:FB CYC:  0
D103  20 B5 F8  JSR $F8B5                       A:80 X:00 Y:68 P:A5 SP:FB CYC:  0
F8B5  F0 05     BEQ $F8BC                       A:80 X:00 Y:68 P:A5 SP:F9 CYC:  0
F8B7  10 03     BPL $F8BC                       A:80 X:00 Y:68 P:A5 SP:F9 CYC:  0
F8B9  90 01     BCC $F8BC                       A:80 X:00 Y:68 P:A5 SP:F9 CYC:  0
F8BB  60        RTS                             A:80 X:00 Y:68 P:A5 SP:F9 CYC:  0
D106  C8        INY                             A:80 X:00 Y:68 P:A5 SP:FB CYC:  0
D107  48        PHA                             A:80 X:00 Y:69 P:25 SP:FB CYC:  0
D108  A9 80     LDA #$80                        A:80 X:00 Y:69 P:25 SP:FA CYC:  0
D10A  8D 00 02  STA $0200 = 00                  A:80 X:00 Y:69 P:A5 SP:FA CYC:  0
D10D  68        PLA                             A:80 X:00 Y:69 P:A5 SP:FA CYC:  0
D10E  C1 80     CMP ($80,X) @ 80 = 0200 = 80    A:80 X:00 Y:69 P:A5 SP:FB CYC:  0
D110  20 BF F8  JSR $F8BF                       A:80 X:00 Y:69 P:27 SP:FB CYC:  0
F8BF  D0 05     BNE $F8C6                       A:80 X:00 Y:69 P:27 SP:F9 CYC:  0
F8C1  30 03     BMI $F8C6                       A:80 X:00 Y:69 P:27 SP:F9 CYC:  0
F8C3  90 01     BCC $F8C6                       A:80 X:00 Y:69 P:27 SP:F9 CYC:  0
F8C5  60        RTS                             A:80 X:00 Y:69 P:27 SP:F9 CYC:  0
D113  C8        INY                             A:80 X:00 Y:69 P:27 SP:FB CYC:  0
D114  48        PHA                             A:80 X:00 Y:6A P:25 SP:FB CYC:  0
D115  A9 81     LDA #$81                        A:80 X:00 Y:6A P:25 SP:FA CYC:  0
D117  8D 00 02  STA $0200 = 80                  A:81 X:00 Y:6A P:A5 SP:FA CYC:  0
D11A  68        PLA                             A:81 X:00 Y:6A P:A5 SP:FA CYC:  0
D11B  C1 80     CMP ($80,X) @ 80 = 0200 = 81    A:80 X:00 Y:6A P:A5 SP:FB CYC:  0
D11D  20 C9 F8  JSR $F8C9                       A:80 X:00 Y:6A P:A4 SP:FB CYC:  0
F8C9  B0 05     BCS $F8D0                       A:80 X:00 Y:6A P:A4 SP:F9 CYC:  0
F8CB  F0 03     BEQ $F8D0                       A:80 X:00 Y:6A P:A4 SP:F9 CYC:  0
F8CD  10 01     BPL $F8D0                       A:80 X:00 Y:6A P:A4 SP:F9 CYC:  0
F8CF  60        RTS                             A:80 X:00 Y:6A P:A4 SP:F9 CYC:  0
D120  C8        INY                             A:80 X:00 Y:6A P:A4 SP:FB CYC:  0
D121  48        PHA                             A:80 X:00 Y:6B P:24 SP:FB CYC:  0
D122  A9 7F     LDA #$7F                        A:80 X:00 Y:6B P:24 SP:FA CYC:  0
D124  8D 00 02  STA $0200 = 81                  A:7F X:00 Y:6B P:24 SP:FA CYC:  0
D127  68        PLA                             A:7F X:00 Y:6B P:24 SP:FA CYC:  0
D128  C1 80     CMP ($80,X) @ 80 = 0200 = 7F    A:80 X:00 Y:6B P:A4 SP:FB CYC:  0
D12A  20 D3 F8  JSR $F8D3                       A:80 X:00 Y:6B P:25 SP:FB CYC:  0
F8D3  90 05     BCC $F8DA                       A:80 X:00 Y:6B P:25 SP:F9 CYC:  0
F8D5  F0 03     BEQ $F8DA                       A:80 X:00 Y:6B P:25 SP:F9 CYC:  0
F8D7  30 01     BMI $F8DA                       A:80 X:00 Y:6B P:25 SP:F9 CYC:  0
F8D9  60        RTS                             A:80 X:00 Y:6B P:25 SP:F9 CYC:  0
D12D  C8        INY                             A:80 X:00 Y:6B P:25 SP:FB CYC:  0
D12E  A9 40     LDA #$40                        A:80 X:00 Y:6C P:25 SP:FB CYC:  0
D130  8D 00 02  STA $0200 = 7F                  A:40 X:00 Y:6C P:25 SP:FB CYC:  0
D133  20 31 F9  JSR $F931                       A:40 X:00 Y:6C P:25 SP:FB CYC:  0
F931  24 01     BIT $01 = FF                    A:40 X:00 Y:6C P:25 SP:F9 CYC:  0
F933  A9 40     LDA #$40                        A:40 X:00 Y:6C P:E5 SP:F9 CYC:  0
F935  38        SEC                             A:40 X:00 Y:6C P:65 SP:F9 CYC:  0
F936  60        RTS                             A:40 X:00 Y:6C P:65 SP:F9 CYC:  0
D136  E1 80     SBC ($80,X) @ 80 = 0200 = 40    A:40 X:00 Y:6C P:65 SP:FB CYC:  0
D138  20 37 F9  JSR $F937                       A:00 X:00 Y:6C P:27 SP:FB CYC:  0
F937  30 0B     BMI $F944                       A:00 X:00 Y:6C P:27 SP:F9 CYC:  0
F939  90 09     BCC $F944                       A:00 X:00 Y:6C P:27 SP:F9 CYC:  0
F93B  D0 07     BNE $F944                       A:00 X:00 Y:6C P:27 SP:F9 CYC:  0
F93D  70 05     BVS $F944                       A:00 X:00 Y:6C P:27 SP:F9 CYC:  0
F93F  C9 00     CMP #$00                        A:00 X:00 Y:6C P:27 SP:F9 CYC:  0
F941  D0 01     BNE $F944                       A:00 X:00 Y:6C P:27 SP:F9 CYC:  0
F943  60        RTS                             A:00 X:00 Y:6C P:27 SP:F9 CYC:  0
D13B  C8        INY                             A:00 X:00 Y:6C P:27 SP:FB CYC:  0
D13C  A9 3F     LDA #$3F                        A:00 X:00 Y:6D P:25 SP:FB CYC:  0
D13E  8D 00 02  STA $0200 = 40                  A:3F X:00 Y:6D P:25 SP:FB CYC:  0
D141  20 47 F9  JSR $F947                       A:3F X:00 Y:6D P:25 SP:FB CYC:  0
F947  B8        CLV                             A:3F X:00 Y:6D P:25 SP:F9 CYC:  0
F948  38        SEC                             A:3F X:00 Y:6D P:25 SP:F9 CYC:  0
F949  A9 40     LDA #$40                        A:3F X:00 Y:6D P:25 SP:F9 CYC:  0
F94B  60        RTS                             A:40 X:00 Y:6D P:25 SP:F9 CYC:  0
D144  E1 80     SBC ($80,X) @ 80 = 0200 = 3F    A:40 X:00 Y:6D P:25 SP:FB CYC:  0
D146  20 4C F9  JSR $F94C                       A:01 X:00 Y:6D P:25 SP:FB CYC:  0
F94C  F0 0B     BEQ $F959                       A:01 X:00 Y:6D P:25 SP:F9 CYC:  0
F94E  30 09     BMI $F959                       A:01 X:00 Y:6D P:25 SP:F9 CYC:  0
F950  90 07     BCC $F959                       A:01 X:00 Y:6D P:25 SP:F9 CYC:  0
F952  70 05     BVS $F959                       A:01 X:00 Y:6D P:25 SP:F9 CYC:  0
F954  C9 01     CMP #$01                        A:01 X:00 Y:6D P:25 SP:F9 CYC:  0
F956  D0 01     BNE $F959                       A:01 X:00 Y:6D P:27 SP:F9 CYC:  0
F958  60        RTS                             A:01 X:00 Y:6D P:27 SP:F9 CYC:  0
D149  C8        INY                             A:01 X:00 Y:6D P:27 SP:FB CYC:  0
D14A  A9 41     LDA #$41                        A:01 X:00 Y:6E P:25 SP:FB CYC:  0
D14C  8D 00 02  STA $0200 = 3F                  A:41 X:00 Y:6E P:25 SP:FB CYC:  0
D14F  20 5C F9  JSR $F95C                       A:41 X:00 Y:6E P:25 SP:FB CYC:  0
F95C  A9 40     LDA #$40                        A:41 X:00 Y:6E P:25 SP:F9 CYC:  0
F95E  38        SEC                             A:40 X:00 Y:6E P:25 SP:F9 CYC:  0
F95F  24 01     BIT $01 = FF                    A:40 X:00 Y:6E P:25 SP:F9 CYC:  0
F961  60        RTS                             A:40 X:00 Y:6E P:E5 SP:F9 CYC:  0
D152  E1 80     SBC ($80,X) @ 80 = 0200 = 41    A:40 X:00 Y:6E P:E5 SP:FB CYC:  0
D154  20 62 F9  JSR $F962                       A:FF X:00 Y:6E P:A4 SP:FB CYC:  0
F962  B0 0B     BCS $F96F                       A:FF X:00 Y:6E P:A4 SP:F9 CYC:  0
F964  F0 09     BEQ $F96F                       A:FF X:00 Y:6E P:A4 SP:F9 CYC:  0
F966  10 07     BPL $F96F                       A:FF X:00 Y:6E P:A4 SP:F9 CYC:  0
F968  70 05     BVS $F96F                       A:FF X:00 Y:6E P:A4 SP:F9 CYC:  0
F96A  C9 FF     CMP #$FF                        A:FF X:00 Y:6E P:A4 SP:F9 CYC:  0
F96C  D0 01     BNE $F96F                       A:FF X:00 Y:6E P:27 SP:F9 CYC:  0
F96E  60        RTS                             A:FF X:00 Y:6E P:27 SP:F9 CYC:  0
D157  C8        INY                             A:FF X:00 Y:6E P:27 SP:FB CYC:  0
D158  A9 00     LDA #$00                        A:FF X:00 Y:6F P:25 SP:FB CYC:  0
D15A  8D 00 02  STA $0200 = 41                  A:00 X:00 Y:6F P:27 SP:FB CYC:  0
D15D  20 72 F9  JSR $F972                       A:00 X:00 Y:6F P:27 SP:FB CYC:  0
F972  18        CLC                             A:00 X:00 Y:6F P:27 SP:F9 CYC:  0
F973  A9 80     LDA #$80                        A:00 X:00 Y:6F P:26 SP:F9 CYC:  0
F975  60        RTS                             A:80 X:00 Y:6F P:A4 SP:F9 CYC:  0
D160  E1 80     SBC ($80,X) @ 80 = 0200 = 00    A:80 X:00 Y:6F P:A4 SP:FB CYC:  0
D162  20 76 F9  JSR $F976                       A:7F X:00 Y:6F P:65 SP:FB CYC:  0
F976  90 05     BCC $F97D                       A:7F X:00 Y:6F P:65 SP:F9 CYC:  0
F978  C9 7F     CMP #$7F                        A:7F X:00 Y:6F P:65 SP:F9 CYC:  0
F97A  D0 01     BNE $F97D                       A:7F X:00 Y:6F P:67 SP:F9 CYC:  0
F97C  60        RTS                             A:7F X:00 Y:6F P:67 SP:F9 CYC:  0
D165  C8        INY                             A:7F X:00 Y:6F P:67 SP:FB CYC:  0
D166  A9 7F     LDA #$7F                        A:7F X:00 Y:70 P:65 SP:FB CYC:  0
D168  8D 00 02  STA $0200 = 00                  A:7F X:00 Y:70 P:65 SP:FB CYC:  0
D16B  20 80 F9  JSR $F980                       A:7F X:00 Y:70 P:65 SP:FB CYC:  0
F980  38        SEC                             A:7F X:00 Y:70 P:65 SP:F9 CYC:  0
F981  A9 81     LDA #$81                        A:7F X:00 Y:70 P:65 SP:F9 CYC:  0
F983  60        RTS                             A:81 X:00 Y:70 P:E5 SP:F9 CYC:  0
D16E  E1 80     SBC ($80,X) @ 80 = 0200 = 7F    A:81 X:00 Y:70 P:E5 SP:FB CYC:  0
D170  20 84 F9  JSR $F984                       A:02 X:00 Y:70 P:65 SP:FB CYC:  0
F984  50 07     BVC $F98D                       A:02 X:00 Y:70 P:65 SP:F9 CYC:  0
F986  90 05     BCC $F98D                       A:02 X:00 Y:70 P:65 SP:F9 CYC:  0
F988  C9 02     CMP #$02                        A:02 X:00 Y:70 P:65 SP:F9 CYC:  0
F98A  D0 01     BNE $F98D                       A:02 X:00 Y:70 P:67 SP:F9 CYC:  0
F98C  60        RTS                             A:02 X:00 Y:70 P:67 SP:F9 CYC:  0
D173  60        RTS                             A:02 X:00 Y:70 P:67 SP:FB CYC:  0
C612  20 74 D1  JSR $D174                       A:02 X:00 Y:70 P:67 SP:FD CYC:  0
D174  A9 55     LDA #$55                        A:02 X:00 Y:70 P:67 SP:FB CYC:  0
D176  85 78     STA $78 = 00                    A:55 X:00 Y:70 P:65 SP:FB CYC:  0
D178  A9 FF     LDA #$FF                        A:55 X:00 Y:70 P:65 SP:FB CYC:  0
D17A  85 01     STA $01 = FF                    A:FF X:00 Y:70 P:E5 SP:FB CYC:  0
D17C  24 01     BIT $01 = FF                    A:FF X:00 Y:70 P:E5 SP:FB CYC:  0
D17E  A0 11     LDY #$11                        A:FF X:00 Y:70 P:E5 SP:FB CYC:  0
D180  A2 23     LDX #$23                        A:FF X:00 Y:11 P:65 SP:FB CYC:  0
D182  A9 00     LDA #$00                        A:FF X:23 Y:11 P:65 SP:FB CYC:  0
D184  A5 78     LDA $78 = 55                    A:00 X:23 Y:11 P:67 SP:FB CYC:  0
D186  F0 10     BEQ $D198                       A:55 X:23 Y:11 P:65 SP:FB CYC:  0
D188  30 0E     BMI $D198                       A:55 X:23 Y:11 P:65 SP:FB CYC:  0
D18A  C9 55     CMP #$55                        A:55 X:23 Y:11 P:65 SP:FB CYC:  0
D18C  D0 0A     BNE $D198                       A:55 X:23 Y:11 P:67 SP:FB CYC:  0
D18E  C0 11     CPY #$11                        A:55 X:23 Y:11 P:67 SP:FB CYC:  0
D190  D0 06     BNE $D198                       A:55 X:23 Y:11 P:67 SP:FB CYC:  0
D192  E0 23     CPX #$23                        A:55 X:23 Y:11 P:67 SP:FB CYC:  0
D194  50 02     BVC $D198                       A:55 X:23 Y:11 P:67 SP:FB CYC:  0
D196  F0 04     BEQ $D19C                       A:55 X:23 Y:11 P:67 SP:FB CYC:  0
D19C  A9 46     LDA #$46                        A:55 X:23 Y:11 P:67 SP:FB CYC:  0
D19E  24 01     BIT $01 = FF                    A:46 X:23 Y:11 P:65 SP:FB CYC:  0
D1A0  85 78     STA $78 = 55                    A:46 X:23 Y:11 P:E5 SP:FB CYC:  0
D1A2  F0 0A     BEQ $D1AE                       A:46 X:23 Y:11 P:E5 SP:FB CYC:  0
D1A4  10 08     BPL $D1AE                       A:46 X:23 Y:11 P:E5 SP:FB CYC:  0
D1A6  50 06     BVC $D1AE                       A:46 X:23 Y:11 P:E5 SP:FB CYC:  0
D1A8  A5 78     LDA $78 = 46                    A:46 X:23 Y:11 P:E5 SP:FB CYC:  0
D1AA  C9 46     CMP #$46                        A:46 X:23 Y:11 P:65 SP:FB CYC:  0
D1AC  F0 04     BEQ $D1B2                       A:46 X:23 Y:11 P:67 SP:FB CYC:  0
D1B2  A9 55     LDA #$55                        A:46 X:23 Y:11 P:67 SP:FB CYC:  0
D1B4  85 78     STA $78 = 46                    A:55 X:23 Y:11 P:65 SP:FB CYC:  0
D1B6  24 01     BIT $01 = FF                    A:55 X:23 Y:11 P:65 SP:FB CYC:  0
D1B8  A9 11     LDA #$11                        A:55 X:23 Y:11 P:E5 SP:FB CYC:  0
D1BA  A2 23     LDX #$23                        A:11 X:23 Y:11 P:65 SP:FB CYC:  0
D1BC  A0 00     LDY #$00                        A:11 X:23 Y:11 P:65 SP:FB CYC:  0
D1BE  A4 78     LDY $78 = 55                    A:11 X:23 Y:00 P:67 SP:FB CYC:  0
D1C0  F0 10     BEQ $D1D2                       A:11 X:23 Y:55 P:65 SP:FB CYC:  0
D1C2  30 0E     BMI $D1D2                       A:11 X:23 Y:55 P:65 SP:FB CYC:  0
D1C4  C0 55     CPY #$55                        A:11 X:23 Y:55 P:65 SP:FB CYC:  0
D1C6  D0 0A     BNE $D1D2                       A:11 X:23 Y:55 P:67 SP:FB CYC:  0
D1C8  C9 11     CMP #$11                        A:11 X:23 Y:55 P:67 SP:FB CYC:  0
D1CA  D0 06     BNE $D1D2                       A:11 X:23 Y:55 P:67 SP:FB CYC:  0
D1CC  E0 23     CPX #$23                        A:11 X:23 Y:55 P:67 SP:FB CYC:  0
D1CE  50 02     BVC $D1D2                       A:11 X:23 Y:55 P:67 SP:FB CYC:  0
D1D0  F0 04     BEQ $D1D6                       A:11 X:23 Y:55 P:67 SP:FB CYC:  0
D1D6  A0 46     LDY #$46                        A:11 X:23 Y:55 P:67 SP:FB CYC:  0
D1D8  24 01     BIT $01 = FF                    A:11 X:23 Y:46 P:65 SP:FB CYC:  0
D1DA  84 78     STY $78 = 55                    A:11 X:23 Y:46 P:E5 SP:FB CYC:  0
D1DC  F0 0A     BEQ $D1E8                       A:11 X:23 Y:46 P:E5 SP:FB CYC:  0
D1DE  10 08     BPL $D1E8                       A:11 X:23 Y:46 P:E5 SP:FB CYC:  0
D1E0  50 06     BVC $D1E8                       A:11 X:23 Y:46 P:E5 SP:FB CYC:  0
D1E2  A4 78     LDY $78 = 46                    A:11 X:23 Y:46 P:E5 SP:FB CYC:  0
D1E4  C0 46     CPY #$46                        A:11 X:23 Y:46 P:65 SP:FB CYC:  0
D1E6  F0 04     BEQ $D1EC                       A:11 X:23 Y:46 P:67 SP:FB CYC:  0
D1EC  24 01     BIT $01 = FF                    A:11 X:23 Y:46 P:67 SP:FB CYC:  0
D1EE  A9 55     LDA #$55                        A:11 X:23 Y:46 P:E5 SP:FB CYC:  0
D1F0  85 78     STA $78 = 46                    A:55 X:23 Y:46 P:65 SP:FB CYC:  0
D1F2  A0 11     LDY #$11                        A:55 X:23 Y:46 P:65 SP:FB CYC:  0
D1F4  A9 23     LDA #$23                        A:55 X:23 Y:11 P:65 SP:FB CYC:  0
D1F6  A2 00     LDX #$00                        A:23 X:23 Y:11 P:65 SP:FB CYC:  0
D1F8  A6 78     LDX $78 = 55                    A:23 X:00 Y:11 P:67 SP:FB CYC:  0
D1FA  F0 10     BEQ $D20C                       A:23 X:55 Y:11 P:65 SP:FB CYC:  0
D1FC  30 0E     BMI $D20C                       A:23 X:55 Y:11 P:65 SP:FB CYC:  0
D1FE  E0 55     CPX #$55                        A:23 X:55 Y:11 P:65 SP:FB CYC:  0
D200  D0 0A     BNE $D20C                       A:23 X:55 Y:11 P:67 SP:FB CYC:  0
D202  C0 11     CPY #$11                        A:23 X:55 Y:11 P:67 SP:FB CYC:  0
D204  D0 06     BNE $D20C                       A:23 X:55 Y:11 P:67 SP:FB CYC:  0
D206  C9 23     CMP #$23                        A:23 X:55 Y:11 P:67 SP:FB CYC:  0
D208  50 02     BVC $D20C                       A:23 X:55 Y:11 P:67 SP:FB CYC:  0
D20A  F0 04     BEQ $D210                       A:23 X:55 Y:11 P:67 SP:FB CYC:  0
D210  A2 46     LDX #$46                        A:23 X:55 Y:11 P:67 SP:FB CYC:  0
D212  24 01     BIT $01 = FF                    A:23 X:46 Y:11 P:65 SP:FB CYC:  0
D214  86 78     STX $78 = 55                    A:23 X:46 Y:11 P:E5 SP:FB CYC:  0
D216  F0 0A     BEQ $D222                       A:23 X:46 Y:11 P:E5 SP:FB CYC:  0
D218  10 08     BPL $D222                       A:23 X:46 Y:11 P:E5 SP:FB CYC:  0
D21A  50 06     BVC $D222                       A:23 X:46 Y:11 P:E5 SP:FB CYC:  0
D21C  A6 78     LDX $78 = 46                    A:23 X:46 Y:11 P:E5 SP:FB CYC:  0
D21E  E0 46     CPX #$46                        A:23 X:46 Y:11 P:65 SP:FB CYC:  0
D220  F0 04     BEQ $D226                       A:23 X:46 Y:11 P:67 SP:FB CYC:  0
D226  A9 C0     LDA #$C0                        A:23 X:46 Y:11 P:67 SP:FB CYC:  0
D228  85 78     STA $78 = 46                    A:C0 X:46 Y:11 P:E5 SP:FB CYC:  0
D22A  A2 33     LDX #$33                        A:C0 X:46 Y:11 P:E5 SP:FB CYC:  0
D22C  A0 88     LDY #$88                        A:C0 X:33 Y:11 P:65 SP:FB CYC:  0
D22E  A9 05     LDA #$05                        A:C0 X:33 Y:88 P:E5 SP:FB CYC:  0
D230  24 78     BIT $78 = C0                    A:05 X:33 Y:88 P:65 SP:FB CYC:  0
D232  10 10     BPL $D244                       A:05 X:33 Y:88 P:E7 SP:FB CYC:  0
D234  50 0E     BVC $D244                       A:05 X:33 Y:88 P:E7 SP:FB CYC:  0
D236  D0 0C     BNE $D244                       A:05 X:33 Y:88 P:E7 SP:FB CYC:  0
D238  C9 05     CMP #$05                        A:05 X:33 Y:88 P:E7 SP:FB CYC:  0
D23A  D0 08     BNE $D244                       A:05 X:33 Y:88 P:67 SP:FB CYC:  0
D23C  E0 33     CPX #$33                        A:05 X:33 Y:88 P:67 SP:FB CYC:  0
D23E  D0 04     BNE $D244                       A:05 X:33 Y:88 P:67 SP:FB CYC:  0
D240  C0 88     CPY #$88                        A:05 X:33 Y:88 P:67 SP:FB CYC:  0
D242  F0 04     BEQ $D248                       A:05 X:33 Y:88 P:67 SP:FB CYC:  0
D248  A9 03     LDA #$03                        A:05 X:33 Y:88 P:67 SP:FB CYC:  0
D24A  85 78     STA $78 = C0                    A:03 X:33 Y:88 P:65 SP:FB CYC:  0
D24C  A9 01     LDA #$01                        A:03 X:33 Y:88 P:65 SP:FB CYC:  0
D24E  24 78     BIT $78 = 03                    A:01 X:33 Y:88 P:65 SP:FB CYC:  0
D250  30 08     BMI $D25A                       A:01 X:33 Y:88 P:25 SP:FB CYC:  0
D252  70 06     BVS $D25A                       A:01 X:33 Y:88 P:25 SP:FB CYC:  0
D254  F0 04     BEQ $D25A                       A:01 X:33 Y:88 P:25 SP:FB CYC:  0
D256  C9 01     CMP #$01                        A:01 X:33 Y:88 P:25 SP:FB CYC:  0
D258  F0 04     BEQ $D25E                       A:01 X:33 Y:88 P:27 SP:FB CYC:  0
D25E  A0 7E     LDY #$7E                        A:01 X:33 Y:88 P:27 SP:FB CYC:  0
D260  A9 AA     LDA #$AA                        A:01 X:33 Y:7E P:25 SP:FB CYC:  0
D262  85 78     STA $78 = 03                    A:AA X:33 Y:7E P:A5 SP:FB CYC:  0
D264  20 B6 F7  JSR $F7B6                       A:AA X:33 Y:7E P:A5 SP:FB CYC:  0
F7B6  18        CLC                             A:AA X:33 Y:7E P:A5 SP:F9 CYC:  0
F7B7  A9 FF     LDA #$FF                        A:AA X:33 Y:7E P:A4 SP:F9 CYC:  0
F7B9  85 01     STA $01 = FF                    A:FF X:33 Y:7E P:A4 SP:F9 CYC:  0
F7BB  24 01     BIT $01 = FF                    A:FF X:33 Y:7E P:A4 SP:F9 CYC:  0
F7BD  A9 55     LDA #$55                        A:FF X:33 Y:7E P:E4 SP:F9 CYC:  0
F7BF  60        RTS                             A:55 X:33 Y:7E P:64 SP:F9 CYC:  0
D267  05 78     ORA $78 = AA                    A:55 X:33 Y:7E P:64 SP:FB CYC:  0
D269  20 C0 F7  JSR $F7C0                       A:FF X:33 Y:7E P:E4 SP:FB CYC:  0
F7C0  B0 09     BCS $F7CB                       A:FF X:33 Y:7E P:E4 SP:F9 CYC:  0
F7C2  10 07     BPL $F7CB                       A:FF X:33 Y:7E P:E4 SP:F9 CYC:  0
F7C4  C9 FF     CMP #$FF                        A:FF X:33 Y:7E P:E4 SP:F9 CYC:  0
F7C6  D0 03     BNE $F7CB                       A:FF X:33 Y:7E P:67 SP:F9 CYC:  0
F7C8  50 01     BVC $F7CB                       A:FF X:33 Y:7E P:67 SP:F9 CYC:  0
F7CA  60        RTS                             A:FF X:33 Y:7E P:67 SP:F9 CYC:  0
D26C  C8        INY                             A:FF X:33 Y:7E P:67 SP:FB CYC:  0
D26D  A9 00     LDA #$00                        A:FF X:33 Y:7F P:65 SP:FB CYC:  0
D26F  85 78     STA $78 = AA                    A:00 X:33 Y:7F P:67 SP:FB CYC:  0
D271  20 CE F7  JSR $F7CE                       A:00 X:33 Y:7F P:67 SP:FB CYC:  0
F7CE  38        SEC                             A:00 X:33 Y:7F P:67 SP:F9 CYC:  0
F7CF  B8        CLV                             A:00 X:33 Y:7F P:67 SP:F9 CYC:  0
F7D0  A9 00     LDA #$00                        A:00 X:33 Y:7F P:27 SP:F9 CYC:  0
F7D2  60        RTS                             A:00 X:33 Y:7F P:27 SP:F9 CYC:  0
D274  05 78     ORA $78 = 00                    A:00 X:33 Y:7F P:27 SP:FB CYC:  0
D276  20 D3 F7  JSR $F7D3                       A:00 X:33 Y:7F P:27 SP:FB CYC:  0
F7D3  D0 07     BNE $F7DC                       A:00 X:33 Y:7F P:27 SP:F9 CYC:  0
F7D5  70 05     BVS $F7DC                       A:00 X:33 Y:7F P:27 SP:F9 CYC:  0
F7D7  90 03     BCC $F7DC                       A:00 X:33 Y:7F P:27 SP:F9 CYC:  0
F7D9  30 01     BMI $F7DC                       A:00 X:33 Y:7F P:27 SP:F9 CYC:  0
F7DB  60        RTS                             A:00 X:33 Y:7F P:27 SP:F9 CYC:  0
D279  C8        INY                             A:00 X:33 Y:7F P:27 SP:FB CYC:  0
D27A  A9 AA     LDA #$AA                        A:00 X:33 Y:80 P:A5 SP:FB CYC:  0
D27C  85 78     STA $78 = 00                    A:AA X:33 Y:80 P:A5 SP:FB CYC:  0
D27E  20 DF F7  JSR $F7DF                       A:AA X:33 Y:80 P:A5 SP:FB CYC:  0
F7DF  18        CLC                             A:AA X:33 Y:80 P:A5 SP:F9 CYC:  0
F7E0  24 01     BIT $01 = FF                    A:AA X:33 Y:80 P:A4 SP:F9 CYC:  0
F7E2  A9 55     LDA #$55                        A:AA X:33 Y:80 P:E4 SP:F9 CYC:  0
F7E4  60        RTS                             A:55 X:33 Y:80 P:64 SP:F9 CYC:  0
D281  25 78     AND $78 = AA                    A:55 X:33 Y:80 P:64 SP:FB CYC:  0
D283  20 E5 F7  JSR $F7E5                       A:00 X:33 Y:80 P:66 SP:FB CYC:  0
F7E5  D0 07     BNE $F7EE                       A:00 X:33 Y:80 P:66 SP:F9 CYC:  0
F7E7  50 05     BVC $F7EE                       A:00 X:33 Y:80 P:66 SP:F9 CYC:  0
F7E9  B0 03     BCS $F7EE                       A:00 X:33 Y:80 P:66 SP:F9 CYC:  0
F7EB  30 01     BMI $F7EE                       A:00 X:33 Y:80 P:66 SP:F9 CYC:  0
F7ED  60        RTS                             A:00 X:33 Y:80 P:66 SP:F9 CYC:  0
D286  C8        INY                             A:00 X:33 Y:80 P:66 SP:FB CYC:  0
D287  A9 EF     LDA #$EF                        A:00 X:33 Y:81 P:E4 SP:FB CYC:  0
D289  85 78     STA $78 = AA                    A:EF X:33 Y:81 P:E4 SP:FB CYC:  0
D28B  20 F1 F7  JSR $F7F1                       A:EF X:33 Y:81 P:E4 SP:FB CYC:  0
F7F1  38        SEC                             A:EF X:33 Y:81 P:E4 SP:F9 CYC:  0
F7F2  B8        CLV                             A:EF X:33 Y:81 P:E5 SP:F9 CYC:  0
F7F3  A9 F8     LDA #$F8                        A:EF X:33 Y:81 P:A5 SP:F9 CYC:  0
F7F5  60        RTS                             A:F8 X:33 Y:81 P:A5 SP:F9 CYC:  0
D28E  25 78     AND $78 = EF                    A:F8 X:33 Y:81 P:A5 SP:FB CYC:  0
D290  20 F6 F7  JSR $F7F6                       A:E8 X:33 Y:81 P:A5 SP:FB CYC:  0
F7F6  90 09     BCC $F801                       A:E8 X:33 Y:81 P:A5 SP:F9 CYC:  0
F7F8  10 07     BPL $F801                       A:E8 X:33 Y:81 P:A5 SP:F9 CYC:  0
F7FA  C9 E8     CMP #$E8                        A:E8 X:33 Y:81 P:A5 SP:F9 CYC:  0
F7FC  D0 03     BNE $F801                       A:E8 X:33 Y:81 P:27 SP:F9 CYC:  0
F7FE  70 01     BVS $F801                       A:E8 X:33 Y:81 P:27 SP:F9 CYC:  0
F800  60        RTS                             A:E8 X:33 Y:81 P:27 SP:F9 CYC:  0
D293  C8        INY                             A:E8 X:33 Y:81 P:27 SP:FB CYC:  0
D294  A9 AA     LDA #$AA                        A:E8 X:33 Y:82 P:A5 SP:FB CYC:  0
D296  85 78     STA $78 = EF                    A:AA X:33 Y:82 P:A5 SP:FB CYC:  0
D298  20 04 F8  JSR $F804                       A:AA X:33 Y:82 P:A5 SP:FB CYC:  0
F804  18        CLC                             A:AA X:33 Y:82 P:A5 SP:F9 CYC:  0
F805  24 01     BIT $01 = FF                    A:AA X:33 Y:82 P:A4 SP:F9 CYC:  0
F807  A9 5F     LDA #$5F                        A:AA X:33 Y:82 P:E4 SP:F9 CYC:  0
F809  60        RTS                             A:5F X:33 Y:82 P:64 SP:F9 CYC:  0
D29B  45 78     EOR $78 = AA                    A:5F X:33 Y:82 P:64 SP:FB CYC:  0
D29D  20 0A F8  JSR $F80A                       A:F5 X:33 Y:82 P:E4 SP:FB CYC:  0
F80A  B0 09     BCS $F815                       A:F5 X:33 Y:82 P:E4 SP:F9 CYC:  0
F80C  10 07     BPL $F815                       A:F5 X:33 Y:82 P:E4 SP:F9 CYC:  0
F80E  C9 F5     CMP #$F5                        A:F5 X:33 Y:82 P:E4 SP:F9 CYC:  0
F810  D0 03     BNE $F815                       A:F5 X:33 Y:82 P:67 SP:F9 CYC:  0
F812  50 01     BVC $F815                       A:F5 X:33 Y:82 P:67 SP:F9 CYC:  0
F814  60        RTS                             A:F5 X:33 Y:82 P:67 SP:F9 CYC:  0
D2A0  C8        INY                             A:F5 X:33 Y:82 P:67 SP:FB CYC:  0
D2A1  A9 70     LDA #$70                        A:F5 X:33 Y:83 P:E5 SP:FB CYC:  0
D2A3  85 78     STA $78 = AA                    A:70 X:33 Y:83 P:65 SP:FB CYC:  0
D2A5  20 18 F8  JSR $F818                       A:70 X:33 Y:83 P:65 SP:FB CYC:  0
F818  38        SEC                             A:70 X:33 Y:83 P:65 SP:F9 CYC:  0
F819  B8        CLV                             A:70 X:33 Y:83 P:65 SP:F9 CYC:  0
F81A  A9 70     LDA #$70                        A:70 X:33 Y:83 P:25 SP:F9 CYC:  0
F81C  60        RTS                             A:70 X:33 Y:83 P:25 SP:F9 CYC:  0
D2A8  45 78     EOR $78 = 70                    A:70 X:33 Y:83 P:25 SP:FB CYC:  0
D2AA  20 1D F8  JSR $F81D                       A:00 X:33 Y:83 P:27 SP:FB CYC:  0
F81D  D0 07     BNE $F826                       A:00 X:33 Y:83 P:27 SP:F9 CYC:  0
F81F  70 05     BVS $F826                       A:00 X:33 Y:83 P:27 SP:F9 CYC:  0
F821  90 03     BCC $F826                       A:00 X:33 Y:83 P:27 SP:F9 CYC:  0
F823  30 01     BMI $F826                       A:00 X:33 Y:83 P:27 SP:F9 CYC:  0
F825  60        RTS                             A:00 X:33 Y:83 P:27 SP:F9 CYC:  0
D2AD  C8        INY                             A:00 X:33 Y:83 P:27 SP:FB CYC:  0
D2AE  A9 69     LDA #$69                        A:00 X:33 Y:84 P:A5 SP:FB CYC:  0
D2B0  85 78     STA $78 = 70                    A:69 X:33 Y:84 P:25 SP:FB CYC:  0
D2B2  20 29 F8  JSR $F829                       A:69 X:33 Y:84 P:25 SP:FB CYC:  0
F829  18        CLC                             A:69 X:33 Y:84 P:25 SP:F9 CYC:  0
F82A  24 01     BIT $01 = FF                    A:69 X:33 Y:84 P:24 SP:F9 CYC:  0
F82C  A9 00     LDA #$00                        A:69 X:33 Y:84 P:E4 SP:F9 CYC:  0
F82E  60        RTS                             A:00 X:33 Y:84 P:66 SP:F9 CYC:  0
D2B5  65 78     ADC $78 = 69                    A:00 X:33 Y:84 P:66 SP:FB CYC:  0
D2B7  20 2F F8  JSR $F82F                       A:69 X:33 Y:84 P:24 SP:FB CYC:  0
F82F  30 09     BMI $F83A                       A:69 X:33 Y:84 P:24 SP:F9 CYC:  0
F831  B0 07     BCS $F83A                       A:69 X:33 Y:84 P:24 SP:F9 CYC:  0
F833  C9 69     CMP #$69                        A:69 X:33 Y:84 P:24 SP:F9 CYC:  0
F835  D0 03     BNE $F83A                       A:69 X:33 Y:84 P:27 SP:F9 CYC:  0
F837  70 01     BVS $F83A                       A:69 X:33 Y:84 P:27 SP:F9 CYC:  0
F839  60        RTS                             A:69 X:33 Y:84 P:27 SP:F9 CYC:  0
D2BA  C8        INY                             A:69 X:33 Y:84 P:27 SP:FB CYC:  0
D2BB  20 3D F8  JSR $F83D                       A:69 X:33 Y:85 P:A5 SP:FB CYC:  0
F83D  38        SEC                             A:69 X:33 Y:85 P:A5 SP:F9 CYC:  0
F83E  24 01     BIT $01 = FF                    A:69 X:33 Y:85 P:A5 SP:F9 CYC:  0
F840  A9 00     LDA #$00                        A:69 X:33 Y:85 P:E5 SP:F9 CYC:  0
F842  60        RTS                             A:00 X:33 Y:85 P:67 SP:F9 CYC:  0
D2BE  65 78     ADC $78 = 69                    A:00 X:33 Y:85 P:67 SP:FB CYC:  0
D2C0  20 43 F8  JSR $F843                       A:6A X:33 Y:85 P:24 SP:FB CYC:  0
F843  30 09     BMI $F84E                       A:6A X:33 Y:85 P:24 SP:F9 CYC:  0
F845  B0 07     BCS $F84E                       A:6A X:33 Y:85 P:24 SP:F9 CYC:  0
F847  C9 6A     CMP #$6A                        A:6A X:33 Y:85 P:24 SP:F9 CYC:  0
F849  D0 03     BNE $F84E                       A:6A X:33 Y:85 P:27 SP:F9 CYC:  0
F84B  70 01     BVS $F84E                       A:6A X:33 Y:85 P:27 SP:F9 CYC:  0
F84D  60        RTS                             A:6A X:33 Y:85 P:27 SP:F9 CYC:  0
D2C3  C8        INY                             A:6A X:33 Y:85 P:27 SP:FB CYC:  0
D2C4  A9 7F     LDA #$7F                        A:6A X:33 Y:86 P:A5 SP:FB CYC:  0
D2C6  85 78     STA $78 = 69                    A:7F X:33 Y:86 P:25 SP:FB CYC:  0
D2C8  20 51 F8  JSR $F851                       A:7F X:33 Y:86 P:25 SP:FB CYC:  0
F851  38        SEC                             A:7F X:33 Y:86 P:25 SP:F9 CYC:  0
F852  B8        CLV                             A:7F X:33 Y:86 P:25 SP:F9 CYC:  0
F853  A9 7F     LDA #$7F                        A:7F X:33 Y:86 P:25 SP:F9 CYC:  0
F855  60        RTS                             A:7F X:33 Y:86 P:25 SP:F9 CYC:  0
D2CB  65 78     ADC $78 = 7F                    A:7F X:33 Y:86 P:25 SP:FB CYC:  0
D2CD  20 56 F8  JSR $F856                       A:FF X:33 Y:86 P:E4 SP:FB CYC:  0
F856  10 09     BPL $F861                       A:FF X:33 Y:86 P:E4 SP:F9 CYC:  0
F858  B0 07     BCS $F861                       A:FF X:33 Y:86 P:E4 SP:F9 CYC:  0
F85A  C9 FF     CMP #$FF                        A:FF X:33 Y:86 P:E4 SP:F9 CYC:  0
F85C  D0 03     BNE $F861                       A:FF X:33 Y:86 P:67 SP:F9 CYC:  0
F85E  50 01     BVC $F861                       A:FF X:33 Y:86 P:67 SP:F9 CYC:  0
F860  60        RTS                             A:FF X:33 Y:86 P:67 SP:F9 CYC:  0
D2D0  C8        INY                             A:FF X:33 Y:86 P:67 SP:FB CYC:  0
D2D1  A9 80     LDA #$80                        A:FF X:33 Y:87 P:E5 SP:FB CYC:  0
D2D3  85 78     STA $78 = 7F                    A:80 X:33 Y:87 P:E5 SP:FB CYC:  0
D2D5  20 64 F8  JSR $F864                       A:80 X:33 Y:87 P:E5 SP:FB CYC:  0
F864  18        CLC                             A:80 X:33 Y:87 P:E5 SP:F9 CYC:  0
F865  24 01     BIT $01 = FF                    A:80 X:33 Y:87 P:E4 SP:F9 CYC:  0
F867  A9 7F     LDA #$7F                        A:80 X:33 Y:87 P:E4 SP:F9 CYC:  0
F869  60        RTS                             A:7F X:33 Y:87 P:64 SP:F9 CYC:  0
D2D8  65 78     ADC $78 = 80                    A:7F X:33 Y:87 P:64 SP:FB CYC:  0
D2DA  20 6A F8  JSR $F86A                       A:FF X:33 Y:87 P:A4 SP:FB CYC:  0
F86A  10 09     BPL $F875                       A:FF X:33 Y:87 P:A4 SP:F9 CYC:  0
F86C  B0 07     BCS $F875                       A:FF X:33 Y:87 P:A4 SP:F9 CYC:  0
F86E  C9 FF     CMP #$FF                        A:FF X:33 Y:87 P:A4 SP:F9 CYC:  0
F870  D0 03     BNE $F875                       A:FF X:33 Y:87 P:27 SP:F9 CYC:  0
F872  70 01     BVS $F875                       A:FF X:33 Y:87 P:27 SP:F9 CYC:  0
F874  60        RTS                             A:FF X:33 Y:87 P:27 SP:F9 CYC:  0
D2DD  C8        INY                             A:FF X:33 Y:87 P:27 SP:FB CYC:  0
D2DE  20 78 F8  JSR $F878                       A:FF X:33 Y:88 P:A5 SP:FB CYC:  0
F878  38        SEC                             A:FF X:33 Y:88 P:A5 SP:F9 CYC:  0
F879  B8        CLV                             A:FF X:33 Y:88 P:A5 SP:F9 CYC:  0
F87A  A9 7F     LDA #$7F                        A:FF X:33 Y:88 P:A5 SP:F9 CYC:  0
F87C  60        RTS                             A:7F X:33 Y:88 P:25 SP:F9 CYC:  0
D2E1  65 78     ADC $78 = 80                    A:7F X:33 Y:88 P:25 SP:FB CYC:  0
D2E3  20 7D F8  JSR $F87D                       A:00 X:33 Y:88 P:27 SP:FB CYC:  0
F87D  D0 07     BNE $F886                       A:00 X:33 Y:88 P:27 SP:F9 CYC:  0
F87F  30 05     BMI $F886                       A:00 X:33 Y:88 P:27 SP:F9 CYC:  0
F881  70 03     BVS $F886                       A:00 X:33 Y:88 P:27 SP:F9 CYC:  0
F883  90 01     BCC $F886                       A:00 X:33 Y:88 P:27 SP:F9 CYC:  0
F885  60        RTS                             A:00 X:33 Y:88 P:27 SP:F9 CYC:  0
D2E6  C8        INY                             A:00 X:33 Y:88 P:27 SP:FB CYC:  0
D2E7  A9 40     LDA #$40                        A:00 X:33 Y:89 P:A5 SP:FB CYC:  0
D2E9  85 78     STA $78 = 80                    A:40 X:33 Y:89 P:25 SP:FB CYC:  0
D2EB  20 89 F8  JSR $F889                       A:40 X:33 Y:89 P:25 SP:FB CYC:  0
F889  24 01     BIT $01 = FF                    A:40 X:33 Y:89 P:25 SP:F9 CYC:  0
F88B  A9 40     LDA #$40                        A:40 X:33 Y:89 P:E5 SP:F9 CYC:  0
F88D  60        RTS                             A:40 X:33 Y:89 P:65 SP:F9 CYC:  0
D2EE  C5 78     CMP $78 = 40                    A:40 X:33 Y:89 P:65 SP:FB CYC:  0
D2F0  20 8E F8  JSR $F88E                       A:40 X:33 Y:89 P:67 SP:FB CYC:  0
F88E  30 07     BMI $F897                       A:40 X:33 Y:89 P:67 SP:F9 CYC:  0
F890  90 05     BCC $F897                       A:40 X:33 Y:89 P:67 SP:F9 CYC:  0
F892  D0 03     BNE $F897                       A:40 X:33 Y:89 P:67 SP:F9 CYC:  0
F894  50 01     BVC $F897                       A:40 X:33 Y:89 P:67 SP:F9 CYC:  0
F896  60        RTS                             A:40 X:33 Y:89 P:67 SP:F9 CYC:  0
D2F3  C8        INY                             A:40 X:33 Y:89 P:67 SP:FB CYC:  0
D2F4  48        PHA                             A:40 X:33 Y:8A P:E5 SP:FB CYC:  0
D2F5  A9 3F     LDA #$3F                        A:40 X:33 Y:8A P:E5 SP:FA CYC:  0
D2F7  85 78     STA $78 = 40                    A:3F X:33 Y:8A P:65 SP:FA CYC:  0
D2F9  68        PLA                             A:3F X:33 Y:8A P:65 SP:FA CYC:  0
D2FA  20 9A F8  JSR $F89A                       A:40 X:33 Y:8A P:65 SP:FB CYC:  0
F89A  B8        CLV                             A:40 X:33 Y:8A P:65 SP:F9 CYC:  0
F89B  60        RTS                             A:40 X:33 Y:8A P:25 SP:F9 CYC:  0
D2FD  C5 78     CMP $78 = 3F                    A:40 X:33 Y:8A P:25 SP:FB CYC:  0
D2FF  20 9C F8  JSR $F89C                       A:40 X:33 Y:8A P:25 SP:FB CYC:  0
F89C  F0 07     BEQ $F8A5                       A:40 X:33 Y:8A P:25 SP:F9 CYC:  0
F89E  30 05     BMI $F8A5                       A:40 X:33 Y:8A P:25 SP:F9 CYC:  0
F8A0  90 03     BCC $F8A5                       A:40 X:33 Y:8A P:25 SP:F9 CYC:  0
F8A2  70 01     BVS $F8A5                       A:40 X:33 Y:8A P:25 SP:F9 CYC:  0
F8A4  60        RTS                             A:40 X:33 Y:8A P:25 SP:F9 CYC:  0
D302  C8        INY                             A:40 X:33 Y:8A P:25 SP:FB CYC:  0
D303  48        PHA                             A:40 X:33 Y:8B P:A5 SP:FB CYC:  0
D304  A9 41     LDA #$41                        A:40 X:33 Y:8B P:A5 SP:FA CYC:  0
D306  85 78     STA $78 = 3F                    A:41 X:33 Y:8B P:25 SP:FA CYC:  0
D308  68        PLA                             A:41 X:33 Y:8B P:25 SP:FA CYC:  0
D309  C5 78     CMP $78 = 41                    A:40 X:33 Y:8B P:25 SP:FB CYC:  0
D30B  20 A8 F8  JSR $F8A8                       A:40 X:33 Y:8B P:A4 SP:FB CYC:  0
F8A8  F0 05     BEQ $F8AF                       A:40 X:33 Y:8B P:A4 SP:F9 CYC:  0
F8AA  10 03     BPL $F8AF                       A:40 X:33 Y:8B P:A4 SP:F9 CYC:  0
F8AC  10 01     BPL $F8AF                       A:40 X:33 Y:8B P:A4 SP:F9 CYC:  0
F8AE  60        RTS                             A:40 X:33 Y:8B P:A4 SP:F9 CYC:  0
D30E  C8        INY                             A:40 X:33 Y:8B P:A4 SP:FB CYC:  0
D30F  48        PHA                             A:40 X:33 Y:8C P:A4 SP:FB CYC:  0
D310  A9 00     LDA #$00                        A:40 X:33 Y:8C P:A4 SP:FA CYC:  0
D312  85 78     STA $78 = 41                    A:00 X:33 Y:8C P:26 SP:FA CYC:  0
D314  68        PLA                             A:00 X:33 Y:8C P:26 SP:FA CYC:  0
D315  20 B2 F8  JSR $F8B2                       A:40 X:33 Y:8C P:24 SP:FB CYC:  0
F8B2  A9 80     LDA #$80                        A:40 X:33 Y:8C P:24 SP:F9 CYC:  0
F8B4  60        RTS                             A:80 X:33 Y:8C P:A4 SP:F9 CYC:  0
D318  C5 78     CMP $78 = 00                    A:80 X:33 Y:8C P:A4 SP:FB CYC:  0
D31A  20 B5 F8  JSR $F8B5                       A:80 X:33 Y:8C P:A5 SP:FB CYC:  0
F8B5  F0 05     BEQ $F8BC                       A:80 X:33 Y:8C P:A5 SP:F9 CYC:  0
F8B7  10 03     BPL $F8BC                       A:80 X:33 Y:8C P:A5 SP:F9 CYC:  0
F8B9  90 01     BCC $F8BC                       A:80 X:33 Y:8C P:A5 SP:F9 CYC:  0
F8BB  60        RTS                             A:80 X:33 Y:8C P:A5 SP:F9 CYC:  0
D31D  C8        INY                             A:80 X:33 Y:8C P:A5 SP:FB CYC:  0
D31E  48        PHA                             A:80 X:33 Y:8D P:A5 SP:FB CYC:  0
D31F  A9 80     LDA #$80                        A:80 X:33 Y:8D P:A5 SP:FA CYC:  0
D321  85 78     STA $78 = 00                    A:80 X:33 Y:8D P:A5 SP:FA CYC:  0
D323  68        PLA                             A:80 X:33 Y:8D P:A5 SP:FA CYC:  0
D324  C5 78     CMP $78 = 80                    A:80 X:33 Y:8D P:A5 SP:FB CYC:  0
D326  20 BF F8  JSR $F8BF                       A:80 X:33 Y:8D P:27 SP:FB CYC:  0
F8BF  D0 05     BNE $F8C6                       A:80 X:33 Y:8D P:27 SP:F9 CYC:  0
F8C1  30 03     BMI $F8C6                       A:80 X:33 Y:8D P:27 SP:F9 CYC:  0
F8C3  90 01     BCC $F8C6                       A:80 X:33 Y:8D P:27 SP:F9 CYC:  0
F8C5  60        RTS                             A:80 X:33 Y:8D P:27 SP:F9 CYC:  0
D329  C8        INY                             A:80 X:33 Y:8D P:27 SP:FB CYC:  0
D32A  48        PHA                             A:80 X:33 Y:8E P:A5 SP:FB CYC:  0
D32B  A9 81     LDA #$81                        A:80 X:33 Y:8E P:A5 SP:FA CYC:  0
D32D  85 78     STA $78 = 80                    A:81 X:33 Y:8E P:A5 SP:FA CYC:  0
D32F  68        PLA                             A:81 X:33 Y:8E P:A5 SP:FA CYC:  0
D330  C5 78     CMP $78 = 81                    A:80 X:33 Y:8E P:A5 SP:FB CYC:  0
D332  20 C9 F8  JSR $F8C9                       A:80 X:33 Y:8E P:A4 SP:FB CYC:  0
F8C9  B0 05     BCS $F8D0                       A:80 X:33 Y:8E P:A4 SP:F9 CYC:  0
F8CB  F0 03     BEQ $F8D0                       A:80 X:33 Y:8E P:A4 SP:F9 CYC:  0
F8CD  10 01     BPL $F8D0                       A:80 X:33 Y:8E P:A4 SP:F9 CYC:  0
F8CF  60        RTS                             A:80 X:33 Y:8E P:A4 SP:F9 CYC:  0
D335  C8        INY                             A:80 X:33 Y:8E P:A4 SP:FB CYC:  0
D336  48        PHA                             A:80 X:33 Y:8F P:A4 SP:FB CYC:  0
D337  A9 7F     LDA #$7F                        A:80 X:33 Y:8F P:A4 SP:FA CYC:  0
D339  85 78     STA $78 = 81                    A:7F X:33 Y:8F P:24 SP:FA CYC:  0
D33B  68        PLA                             A:7F X:33 Y:8F P:24 SP:FA CYC:  0
D33C  C5 78     CMP $78 = 7F                    A:80 X:33 Y:8F P:A4 SP:FB CYC:  0
D33E  20 D3 F8  JSR $F8D3                       A:80 X:33 Y:8F P:25 SP:FB CYC:  0
F8D3  90 05     BCC $F8DA                       A:80 X:33 Y:8F P:25 SP:F9 CYC:  0
F8D5  F0 03     BEQ $F8DA                       A:80 X:33 Y:8F P:25 SP:F9 CYC:  0
F8D7  30 01     BMI $F8DA                       A:80 X:33 Y:8F P:25 SP:F9 CYC:  0
F8D9  60        RTS                             A:80 X:33 Y:8F P:25 SP:F9 CYC:  0
D341  C8        INY                             A:80 X:33 Y:8F P:25 SP:FB CYC:  0
D342  A9 40     LDA #$40                        A:80 X:33 Y:90 P:A5 SP:FB CYC:  0
D344  85 78     STA $78 = 7F                    A:40 X:33 Y:90 P:25 SP:FB CYC:  0
D346  20 31 F9  JSR $F931                       A:40 X:33 Y:90 P:25 SP:FB CYC:  0
F931  24 01     BIT $01 = FF                    A:40 X:33 Y:90 P:25 SP:F9 CYC:  0
F933  A9 40     LDA #$40                        A:40 X:33 Y:90 P:E5 SP:F9 CYC:  0
F935  38        SEC                             A:40 X:33 Y:90 P:65 SP:F9 CYC:  0
F936  60        RTS                             A:40 X:33 Y:90 P:65 SP:F9 CYC:  0
D349  E5 78     SBC $78 = 40                    A:40 X:33 Y:90 P:65 SP:FB CYC:  0
D34B  20 37 F9  JSR $F937                       A:00 X:33 Y:90 P:27 SP:FB CYC:  0
F937  30 0B     BMI $F944                       A:00 X:33 Y:90 P:27 SP:F9 CYC:  0
F939  90 09     BCC $F944                       A:00 X:33 Y:90 P:27 SP:F9 CYC:  0
F93B  D0 07     BNE $F944                       A:00 X:33 Y:90 P:27 SP:F9 CYC:  0
F93D  70 05     BVS $F944                       A:00 X:33 Y:90 P:27 SP:F9 CYC:  0
F93F  C9 00     CMP #$00                        A:00 X:33 Y:90 P:27 SP:F9 CYC:  0
F941  D0 01     BNE $F944                       A:00 X:33 Y:90 P:27 SP:F9 CYC:  0
F943  60        RTS                             A:00 X:33 Y:90 P:27 SP:F9 CYC:  0
D34E  C8        INY                             A:00 X:33 Y:90 P:27 SP:FB CYC:  0
D34F  A9 3F     LDA #$3F                        A:00 X:33 Y:91 P:A5 SP:FB CYC:  0
D351  85 78     STA $78 = 40                    A:3F X:33 Y:91 P:25 SP:FB CYC:  0
D353  20 47 F9  JSR $F947                       A:3F X:33 Y:91 P:25 SP:FB CYC:  0
F947  B8        CLV                             A:3F X:33 Y:91 P:25 SP:F9 CYC:  0
F948  38        SEC                             A:3F X:33 Y:91 P:25 SP:F9 CYC:  0
F949  A9 40     LDA #$40                        A:3F X:33 Y:91 P:25 SP:F9 CYC:  0
F94B  60        RTS                             A:40 X:33 Y:91 P:25 SP:F9 CYC:  0
D356  E5 78     SBC $78 = 3F                    A:40 X:33 Y:91 P:25 SP:FB CYC:  0
D358  20 4C F9  JSR $F94C                       A:01 X:33 Y:91 P:25 SP:FB CYC:  0
F94C  F0 0B     BEQ $F959                       A:01 X:33 Y:91 P:25 SP:F9 CYC:  0
F94E  30 09     BMI $F959                       A:01 X:33 Y:91 P:25 SP:F9 CYC:  0
F950  90 07     BCC $F959                       A:01 X:33 Y:91 P:25 SP:F9 CYC:  0
F952  70 05     BVS $F959                       A:01 X:33 Y:91 P:25 SP:F9 CYC:  0
F954  C9 01     CMP #$01                        A:01 X:33 Y:91 P:25 SP:F9 CYC:  0
F956  D0 01     BNE $F959                       A:01 X:33 Y:91 P:27 SP:F9 CYC:  0
F958  60        RTS                             A:01 X:33 Y:91 P:27 SP:F9 CYC:  0
D35B  C8        INY                             A:01 X:33 Y:91 P:27 SP:FB CYC:  0
D35C  A9 41     LDA #$41                        A:01 X:33 Y:92 P:A5 SP:FB CYC:  0
D35E  85 78     STA $78 = 3F                    A:41 X:33 Y:92 P:25 SP:FB CYC:  0
D360  20 5C F9  JSR $F95C                       A:41 X:33 Y:92 P:25 SP:FB CYC:  0
F95C  A9 40     LDA #$40                        A:41 X:33 Y:92 P:25 SP:F9 CYC:  0
F95E  38        SEC                             A:40 X:33 Y:92 P:25 SP:F9 CYC:  0
F95F  24 01     BIT $01 = FF                    A:40 X:33 Y:92 P:25 SP:F9 CYC:  0
F961  60        RTS                             A:40 X:33 Y:92 P:E5 SP:F9 CYC:  0
D363  E5 78     SBC $78 = 41                    A:40 X:33 Y:92 P:E5 SP:FB CYC:  0
D365  20 62 F9  JSR $F962                       A:FF X:33 Y:92 P:A4 SP:FB CYC:  0
F962  B0 0B     BCS $F96F                       A:FF X:33 Y:92 P:A4 SP:F9 CYC:  0
F964  F0 09     BEQ $F96F                       A:FF X:33 Y:92 P:A4 SP:F9 CYC:  0
F966  10 07     BPL $F96F                       A:FF X:33 Y:92 P:A4 SP:F9 CYC:  0
F968  70 05     BVS $F96F                       A:FF X:33 Y:92 P:A4 SP:F9 CYC:  0
F96A  C9 FF     CMP #$FF                        A:FF X:33 Y:92 P:A4 SP:F9 CYC:  0
F96C  D0 01     BNE $F96F                       A:FF X:33 Y:92 P:27 SP:F9 CYC:  0
F96E  60        RTS                             A:FF X:33 Y:92 P:27 SP:F9 CYC:  0
D368  C8        INY                             A:FF X:33 Y:92 P:27 SP:FB CYC:  0
D369  A9 00     LDA #$00                        A:FF X:33 Y:93 P:A5 SP:FB CYC:  0
D36B  85 78     STA $78 = 41                    A:00 X:33 Y:93 P:27 SP:FB CYC:  0
D36D  20 72 F9  JSR $F972                       A:00 X:33 Y:93 P:27 SP:FB CYC:  0
F972  18        CLC                             A:00 X:33 Y:93 P:27 SP:F9 CYC:  0
F973  A9 80     LDA #$80                        A:00 X:33 Y:93 P:26 SP:F9 CYC:  0
F975  60        RTS                             A:80 X:33 Y:93 P:A4 SP:F9 CYC:  0
D370  E5 78     SBC $78 = 00                    A:80 X:33 Y:93 P:A4 SP:FB CYC:  0
D372  20 76 F9  JSR $F976                       A:7F X:33 Y:93 P:65 SP:FB CYC:  0
F976  90 05     BCC $F97D                       A:7F X:33 Y:93 P:65 SP:F9 CYC:  0
F978  C9 7F     CMP #$7F                        A:7F X:33 Y:93 P:65 SP:F9 CYC:  0
F97A  D0 01     BNE $F97D                       A:7F X:33 Y:93 P:67 SP:F9 CYC:  0
F97C  60        RTS                             A:7F X:33 Y:93 P:67 SP:F9 CYC:  0
D375  C8        INY                             A:7F X:33 Y:93 P:67 SP:FB CYC:  0
D376  A9 7F     LDA #$7F                        A:7F X:33 Y:94 P:E5 SP:FB CYC:  0
D378  85 78     STA $78 = 00                    A:7F X:33 Y:94 P:65 SP:FB CYC:  0
D37A  20 80 F9  JSR $F980                       A:7F X:33 Y:94 P:65 SP:FB CYC:  0
F980  38        SEC                             A:7F X:33 Y:94 P:65 SP:F9 CYC:  0
F981  A9 81     LDA #$81                        A:7F X:33 Y:94 P:65 SP:F9 CYC:  0
F983  60        RTS                             A:81 X:33 Y:94 P:E5 SP:F9 CYC:  0
D37D  E5 78     SBC $78 = 7F                    A:81 X:33 Y:94 P:E5 SP:FB CYC:  0
D37F  20 84 F9  JSR $F984                       A:02 X:33 Y:94 P:65 SP:FB CYC:  0
F984  50 07     BVC $F98D                       A:02 X:33 Y:94 P:65 SP:F9 CYC:  0
F986  90 05     BCC $F98D                       A:02 X:33 Y:94 P:65 SP:F9 CYC:  0
F988  C9 02     CMP #$02                        A:02 X:33 Y:94 P:65 SP:F9 CYC:  0
F98A  D0 01     BNE $F98D                       A:02 X:33 Y:94 P:67 SP:F9 CYC:  0
F98C  60        RTS                             A:02 X:33 Y:94 P:67 SP:F9 CYC:  0
D382  C8        INY                             A:02 X:33 Y:94 P:67 SP:FB CYC:  0
D383  A9 40     LDA #$40                        A:02 X:33 Y:95 P:E5 SP:FB CYC:  0
D385  85 78     STA $78 = 7F                    A:40 X:33 Y:95 P:65 SP:FB CYC:  0
D387  20 89 F8  JSR $F889                       A:40 X:33 Y:95 P:65 SP:FB CYC:  0
F889  24 01     BIT $01 = FF                    A:40 X:33 Y:95 P:65 SP:F9 CYC:  0
F88B  A9 40     LDA #$40                        A:40 X:33 Y:95 P:E5 SP:F9 CYC:  0
F88D  60        RTS                             A:40 X:33 Y:95 P:65 SP:F9 CYC:  0
D38A  AA        TAX                             A:40 X:33 Y:95 P:65 SP:FB CYC:  0
D38B  E4 78     CPX $78 = 40                    A:40 X:40 Y:95 P:65 SP:FB CYC:  0
D38D  20 8E F8  JSR $F88E                       A:40 X:40 Y:95 P:67 SP:FB CYC:  0
F88E  30 07     BMI $F897                       A:40 X:40 Y:95 P:67 SP:F9 CYC:  0
F890  90 05     BCC $F897                       A:40 X:40 Y:95 P:67 SP:F9 CYC:  0
F892  D0 03     BNE $F897                       A:40 X:40 Y:95 P:67 SP:F9 CYC:  0
F894  50 01     BVC $F897                       A:40 X:40 Y:95 P:67 SP:F9 CYC:  0
F896  60        RTS                             A:40 X:40 Y:95 P:67 SP:F9 CYC:  0
D390  C8        INY                             A:40 X:40 Y:95 P:67 SP:FB CYC:  0
D391  A9 3F     LDA #$3F                        A:40 X:40 Y:96 P:E5 SP:FB CYC:  0
D393  85 78     STA $78 = 40                    A:3F X:40 Y:96 P:65 SP:FB CYC:  0
D395  20 9A F8  JSR $F89A                       A:3F X:40 Y:96 P:65 SP:FB CYC:  0
F89A  B8        CLV                             A:3F X:40 Y:96 P:65 SP:F9 CYC:  0
F89B  60        RTS                             A:3F X:40 Y:96 P:25 SP:F9 CYC:  0
D398  E4 78     CPX $78 = 3F                    A:3F X:40 Y:96 P:25 SP:FB CYC:  0
D39A  20 9C F8  JSR $F89C                       A:3F X:40 Y:96 P:25 SP:FB CYC:  0
F89C  F0 07     BEQ $F8A5                       A:3F X:40 Y:96 P:25 SP:F9 CYC:  0
F89E  30 05     BMI $F8A5                       A:3F X:40 Y:96 P:25 SP:F9 CYC:  0
F8A0  90 03     BCC $F8A5                       A:3F X:40 Y:96 P:25 SP:F9 CYC:  0
F8A2  70 01     BVS $F8A5                       A:3F X:40 Y:96 P:25 SP:F9 CYC:  0
F8A4  60        RTS                             A:3F X:40 Y:96 P:25 SP:F9 CYC:  0
D39D  C8        INY                             A:3F X:40 Y:96 P:25 SP:FB CYC:  0
D39E  A9 41     LDA #$41                        A:3F X:40 Y:97 P:A5 SP:FB CYC:  0
D3A0  85 78     STA $78 = 3F                    A:41 X:40 Y:97 P:25 SP:FB CYC:  0
D3A2  E4 78     CPX $78 = 41                    A:41 X:40 Y:97 P:25 SP:FB CYC:  0
D3A4  20 A8 F8  JSR $F8A8                       A:41 X:40 Y:97 P:A4 SP:FB CYC:  0
F8A8  F0 05     BEQ $F8AF                       A:41 X:40 Y:97 P:A4 SP:F9 CYC:  0
F8AA  10 03     BPL $F8AF                       A:41 X:40 Y:97 P:A4 SP:F9 CYC:  0
F8AC  10 01     BPL $F8AF                       A:41 X:40 Y:97 P:A4 SP:F9 CYC:  0
F8AE  60        RTS                             A:41 X:40 Y:97 P:A4 SP:F9 CYC:  0
D3A7  C8        INY                             A:41 X:40 Y:97 P:A4 SP:FB CYC:  0
D3A8  A9 00     LDA #$00                        A:41 X:40 Y:98 P:A4 SP:FB CYC:  0
D3AA  85 78     STA $78 = 41                    A:00 X:40 Y:98 P:26 SP:FB CYC:  0
D3AC  20 B2 F8  JSR $F8B2                       A:00 X:40 Y:98 P:26 SP:FB CYC:  0
F8B2  A9 80     LDA #$80                        A:00 X:40 Y:98 P:26 SP:F9 CYC:  0
F8B4  60        RTS                             A:80 X:40 Y:98 P:A4 SP:F9 CYC:  0
D3AF  AA        TAX                             A:80 X:40 Y:98 P:A4 SP:FB CYC:  0
D3B0  E4 78     CPX $78 = 00                    A:80 X:80 Y:98 P:A4 SP:FB CYC:  0
D3B2  20 B5 F8  JSR $F8B5                       A:80 X:80 Y:98 P:A5 SP:FB CYC:  0
F8B5  F0 05     BEQ $F8BC                       A:80 X:80 Y:98 P:A5 SP:F9 CYC:  0
F8B7  10 03     BPL $F8BC                       A:80 X:80 Y:98 P:A5 SP:F9 CYC:  0
F8B9  90 01     BCC $F8BC                       A:80 X:80 Y:98 P:A5 SP:F9 CYC:  0
F8BB  60        RTS                             A:80 X:80 Y:98 P:A5 SP:F9 CYC:  0
D3B5  C8        INY                             A:80 X:80 Y:98 P:A5 SP:FB CYC:  0
D3B6  A9 80     LDA #$80                        A:80 X:80 Y:99 P:A5 SP:FB CYC:  0
D3B8  85 78     STA $78 = 00                    A:80 X:80 Y:99 P:A5 SP:FB CYC:  0
D3BA  E4 78     CPX $78 = 80                    A:80 X:80 Y:99 P:A5 SP:FB CYC:  0
D3BC  20 BF F8  JSR $F8BF                       A:80 X:80 Y:99 P:27 SP:FB CYC:  0
F8BF  D0 05     BNE $F8C6                       A:80 X:80 Y:99 P:27 SP:F9 CYC:  0
F8C1  30 03     BMI $F8C6                       A:80 X:80 Y:99 P:27 SP:F9 CYC:  0
F8C3  90 01     BCC $F8C6                       A:80 X:80 Y:99 P:27 SP:F9 CYC:  0
F8C5  60        RTS                             A:80 X:80 Y:99 P:27 SP:F9 CYC:  0
D3BF  C8        INY                             A:80 X:80 Y:99 P:27 SP:FB CYC:  0
D3C0  A9 81     LDA #$81                        A:80 X:80 Y:9A P:A5 SP:FB CYC:  0
D3C2  85 78     STA $78 = 80                    A:81 X:80 Y:9A P:A5 SP:FB CYC:  0
D3C4  E4 78     CPX $78 = 81                    A:81 X:80 Y:9A P:A5 SP:FB CYC:  0
D3C6  20 C9 F8  JSR $F8C9                       A:81 X:80 Y:9A P:A4 SP:FB CYC:  0
F8C9  B0 05     BCS $F8D0                       A:81 X:80 Y:9A P:A4 SP:F9 CYC:  0
F8CB  F0 03     BEQ $F8D0                       A:81 X:80 Y:9A P:A4 SP:F9 CYC:  0
F8CD  10 01     BPL $F8D0                       A:81 X:80 Y:9A P:A4 SP:F9 CYC:  0
F8CF  60        RTS                             A:81 X:80 Y:9A P:A4 SP:F9 CYC:  0
D3C9  C8        INY                             A:81 X:80 Y:9A P:A4 SP:FB CYC:  0
D3CA  A9 7F     LDA #$7F                        A:81 X:80 Y:9B P:A4 SP:FB CYC:  0
D3CC  85 78     STA $78 = 81                    A:7F X:80 Y:9B P:24 SP:FB CYC:  0
D3CE  E4 78     CPX $78 = 7F                    A:7F X:80 Y:9B P:24 SP:FB CYC:  0
D3D0  20 D3 F8  JSR $F8D3                       A:7F X:80 Y:9B P:25 SP:FB CYC:  0
F8D3  90 05     BCC $F8DA                       A:7F X:80 Y:9B P:25 SP:F9 CYC:  0
F8D5  F0 03     BEQ $F8DA                       A:7F X:80 Y:9B P:25 SP:F9 CYC:  0
F8D7  30 01     BMI $F8DA                       A:7F X:80 Y:9B P:25 SP:F9 CYC:  0
F8D9  60        RTS                             A:7F X:80 Y:9B P:25 SP:F9 CYC:  0
D3D3  C8        INY                             A:7F X:80 Y:9B P:25 SP:FB CYC:  0
D3D4  98        TYA                             A:7F X:80 Y:9C P:A5 SP:FB CYC:  0
D3D5  AA        TAX                             A:9C X:80 Y:9C P:A5 SP:FB CYC:  0
D3D6  A9 40     LDA #$40                        A:9C X:9C Y:9C P:A5 SP:FB CYC:  0
D3D8  85 78     STA $78 = 7F                    A:40 X:9C Y:9C P:25 SP:FB CYC:  0
D3DA  20 DD F8  JSR $F8DD                       A:40 X:9C Y:9C P:25 SP:FB CYC:  0
F8DD  24 01     BIT $01 = FF                    A:40 X:9C Y:9C P:25 SP:F9 CYC:  0
F8DF  A0 40     LDY #$40                        A:40 X:9C Y:9C P:E5 SP:F9 CYC:  0
F8E1  60        RTS                             A:40 X:9C Y:40 P:65 SP:F9 CYC:  0
D3DD  C4 78     CPY $78 = 40                    A:40 X:9C Y:40 P:65 SP:FB CYC:  0
D3DF  20 E2 F8  JSR $F8E2                       A:40 X:9C Y:40 P:67 SP:FB CYC:  0
F8E2  30 07     BMI $F8EB                       A:40 X:9C Y:40 P:67 SP:F9 CYC:  0
F8E4  90 05     BCC $F8EB                       A:40 X:9C Y:40 P:67 SP:F9 CYC:  0
F8E6  D0 03     BNE $F8EB                       A:40 X:9C Y:40 P:67 SP:F9 CYC:  0
F8E8  50 01     BVC $F8EB                       A:40 X:9C Y:40 P:67 SP:F9 CYC:  0
F8EA  60        RTS                             A:40 X:9C Y:40 P:67 SP:F9 CYC:  0
D3E2  E8        INX                             A:40 X:9C Y:40 P:67 SP:FB CYC:  0
D3E3  A9 3F     LDA #$3F                        A:40 X:9D Y:40 P:E5 SP:FB CYC:  0
D3E5  85 78     STA $78 = 40                    A:3F X:9D Y:40 P:65 SP:FB CYC:  0
D3E7  20 EE F8  JSR $F8EE                       A:3F X:9D Y:40 P:65 SP:FB CYC:  0
F8EE  B8        CLV                             A:3F X:9D Y:40 P:65 SP:F9 CYC:  0
F8EF  60        RTS                             A:3F X:9D Y:40 P:25 SP:F9 CYC:  0
D3EA  C4 78     CPY $78 = 3F                    A:3F X:9D Y:40 P:25 SP:FB CYC:  0
D3EC  20 F0 F8  JSR $F8F0                       A:3F X:9D Y:40 P:25 SP:FB CYC:  0
F8F0  F0 07     BEQ $F8F9                       A:3F X:9D Y:40 P:25 SP:F9 CYC:  0
F8F2  30 05     BMI $F8F9                       A:3F X:9D Y:40 P:25 SP:F9 CYC:  0
F8F4  90 03     BCC $F8F9                       A:3F X:9D Y:40 P:25 SP:F9 CYC:  0
F8F6  70 01     BVS $F8F9                       A:3F X:9D Y:40 P:25 SP:F9 CYC:  0
F8F8  60        RTS                             A:3F X:9D Y:40 P:25 SP:F9 CYC:  0
D3EF  E8        INX                             A:3F X:9D Y:40 P:25 SP:FB CYC:  0
D3F0  A9 41     LDA #$41                        A:3F X:9E Y:40 P:A5 SP:FB CYC:  0
D3F2  85 78     STA $78 = 3F                    A:41 X:9E Y:40 P:25 SP:FB CYC:  0
D3F4  C4 78     CPY $78 = 41                    A:41 X:9E Y:40 P:25 SP:FB CYC:  0
D3F6  20 FC F8  JSR $F8FC                       A:41 X:9E Y:40 P:A4 SP:FB CYC:  0
F8FC  F0 05     BEQ $F903                       A:41 X:9E Y:40 P:A4 SP:F9 CYC:  0
F8FE  10 03     BPL $F903                       A:41 X:9E Y:40 P:A4 SP:F9 CYC:  0
F900  10 01     BPL $F903                       A:41 X:9E Y:40 P:A4 SP:F9 CYC:  0
F902  60        RTS                             A:41 X:9E Y:40 P:A4 SP:F9 CYC:  0
D3F9  E8        INX                             A:41 X:9E Y:40 P:A4 SP:FB CYC:  0
D3FA  A9 00     LDA #$00                        A:41 X:9F Y:40 P:A4 SP:FB CYC:  0
D3FC  85 78     STA $78 = 41                    A:00 X:9F Y:40 P:26 SP:FB CYC:  0
D3FE  20 06 F9  JSR $F906                       A:00 X:9F Y:40 P:26 SP:FB CYC:  0
F906  A0 80     LDY #$80                        A:00 X:9F Y:40 P:26 SP:F9 CYC:  0
F908  60        RTS                             A:00 X:9F Y:80 P:A4 SP:F9 CYC:  0
D401  C4 78     CPY $78 = 00                    A:00 X:9F Y:80 P:A4 SP:FB CYC:  0
D403  20 09 F9  JSR $F909                       A:00 X:9F Y:80 P:A5 SP:FB CYC:  0
F909  F0 05     BEQ $F910                       A:00 X:9F Y:80 P:A5 SP:F9 CYC:  0
F90B  10 03     BPL $F910                       A:00 X:9F Y:80 P:A5 SP:F9 CYC:  0
F90D  90 01     BCC $F910                       A:00 X:9F Y:80 P:A5 SP:F9 CYC:  0
F90F  60        RTS                             A:00 X:9F Y:80 P:A5 SP:F9 CYC:  0
D406  E8        INX                             A:00 X:9F Y:80 P:A5 SP:FB CYC:  0
D407  A9 80     LDA #$80                        A:00 X:A0 Y:80 P:A5 SP:FB CYC:  0
D409  85 78     STA $78 = 00                    A:80 X:A0 Y:80 P:A5 SP:FB CYC:  0
D40B  C4 78     CPY $78 = 80                    A:80 X:A0 Y:80 P:A5 SP:FB CYC:  0
D40D  20 13 F9  JSR $F913                       A:80 X:A0 Y:80 P:27 SP:FB CYC:  0
F913  D0 05     BNE $F91A                       A:80 X:A0 Y:80 P:27 SP:F9 CYC:  0
F915  30 03     BMI $F91A                       A:80 X:A0 Y:80 P:27 SP:F9 CYC:  0
F917  90 01     BCC $F91A                       A:80 X:A0 Y:80 P:27 SP:F9 CYC:  0
F919  60        RTS                             A:80 X:A0 Y:80 P:27 SP:F9 CYC:  0
D410  E8        INX                             A:80 X:A0 Y:80 P:27 SP:FB CYC:  0
D411  A9 81     LDA #$81                        A:80 X:A1 Y:80 P:A5 SP:FB CYC:  0
D413  85 78     STA $78 = 80                    A:81 X:A1 Y:80 P:A5 SP:FB CYC:  0
D415  C4 78     CPY $78 = 81                    A:81 X:A1 Y:80 P:A5 SP:FB CYC:  0
D417  20 1D F9  JSR $F91D                       A:81 X:A1 Y:80 P:A4 SP:FB CYC:  0
F91D  B0 05     BCS $F924                       A:81 X:A1 Y:80 P:A4 SP:F9 CYC:  0
F91F  F0 03     BEQ $F924                       A:81 X:A1 Y:80 P:A4 SP:F9 CYC:  0
F921  10 01     BPL $F924                       A:81 X:A1 Y:80 P:A4 SP:F9 CYC:  0
F923  60        RTS                             A:81 X:A1 Y:80 P:A4 SP:F9 CYC:  0
D41A  E8        INX                             A:81 X:A1 Y:80 P:A4 SP:FB CYC:  0
D41B  A9 7F     LDA #$7F                        A:81 X:A2 Y:80 P:A4 SP:FB CYC:  0
D41D  85 78     STA $78 = 81                    A:7F X:A2 Y:80 P:24 SP:FB CYC:  0
D41F  C4 78     CPY $78 = 7F                    A:7F X:A2 Y:80 P:24 SP:FB CYC:  0
D421  20 27 F9  JSR $F927                       A:7F X:A2 Y:80 P:25 SP:FB CYC:  0
F927  90 05     BCC $F92E                       A:7F X:A2 Y:80 P:25 SP:F9 CYC:  0
F929  F0 03     BEQ $F92E                       A:7F X:A2 Y:80 P:25 SP:F9 CYC:  0
F92B  30 01     BMI $F92E                       A:7F X:A2 Y:80 P:25 SP:F9 CYC:  0
F92D  60        RTS                             A:7F X:A2 Y:80 P:25 SP:F9 CYC:  0
D424  E8        INX                             A:7F X:A2 Y:80 P:25 SP:FB CYC:  0
D425  8A        TXA                             A:7F X:A3 Y:80 P:A5 SP:FB CYC:  0
D426  A8        TAY                             A:A3 X:A3 Y:80 P:A5 SP:FB CYC:  0
D427  20 90 F9  JSR $F990                       A:A3 X:A3 Y:A3 P:A5 SP:FB CYC:  0
F990  A2 55     LDX #$55                        A:A3 X:A3 Y:A3 P:A5 SP:F9 CYC:  0
F992  A9 FF     LDA #$FF                        A:A3 X:55 Y:A3 P:25 SP:F9 CYC:  0
F994  85 01     STA $01 = FF                    A:FF X:55 Y:A3 P:A5 SP:F9 CYC:  0
F996  EA        NOP                             A:FF X:55 Y:A3 P:A5 SP:F9 CYC:  0
F997  24 01     BIT $01 = FF                    A:FF X:55 Y:A3 P:A5 SP:F9 CYC:  0
F999  38        SEC                             A:FF X:55 Y:A3 P:E5 SP:F9 CYC:  0
F99A  A9 01     LDA #$01                        A:FF X:55 Y:A3 P:E5 SP:F9 CYC:  0
F99C  60        RTS                             A:01 X:55 Y:A3 P:65 SP:F9 CYC:  0
D42A  85 78     STA $78 = 7F                    A:01 X:55 Y:A3 P:65 SP:FB CYC:  0
D42C  46 78     LSR $78 = 01                    A:01 X:55 Y:A3 P:65 SP:FB CYC:  0
D42E  A5 78     LDA $78 = 00                    A:01 X:55 Y:A3 P:67 SP:FB CYC:  0
D430  20 9D F9  JSR $F99D                       A:00 X:55 Y:A3 P:67 SP:FB CYC:  0
F99D  90 1B     BCC $F9BA                       A:00 X:55 Y:A3 P:67 SP:F9 CYC:  0
F99F  D0 19     BNE $F9BA                       A:00 X:55 Y:A3 P:67 SP:F9 CYC:  0
F9A1  30 17     BMI $F9BA                       A:00 X:55 Y:A3 P:67 SP:F9 CYC:  0
F9A3  50 15     BVC $F9BA                       A:00 X:55 Y:A3 P:67 SP:F9 CYC:  0
F9A5  C9 00     CMP #$00                        A:00 X:55 Y:A3 P:67 SP:F9 CYC:  0
F9A7  D0 11     BNE $F9BA                       A:00 X:55 Y:A3 P:67 SP:F9 CYC:  0
F9A9  B8        CLV                             A:00 X:55 Y:A3 P:67 SP:F9 CYC:  0
F9AA  A9 AA     LDA #$AA                        A:00 X:55 Y:A3 P:27 SP:F9 CYC:  0
F9AC  60        RTS                             A:AA X:55 Y:A3 P:A5 SP:F9 CYC:  0
D433  C8        INY                             A:AA X:55 Y:A3 P:A5 SP:FB CYC:  0
D434  85 78     STA $78 = 00                    A:AA X:55 Y:A4 P:A5 SP:FB CYC:  0
D436  46 78     LSR $78 = AA                    A:AA X:55 Y:A4 P:A5 SP:FB CYC:  0
D438  A5 78     LDA $78 = 55                    A:AA X:55 Y:A4 P:24 SP:FB CYC:  0
D43A  20 AD F9  JSR $F9AD                       A:55 X:55 Y:A4 P:24 SP:FB CYC:  0
F9AD  B0 0B     BCS $F9BA                       A:55 X:55 Y:A4 P:24 SP:F9 CYC:  0
F9AF  F0 09     BEQ $F9BA                       A:55 X:55 Y:A4 P:24 SP:F9 CYC:  0
F9B1  30 07     BMI $F9BA                       A:55 X:55 Y:A4 P:24 SP:F9 CYC:  0
F9B3  70 05     BVS $F9BA                       A:55 X:55 Y:A4 P:24 SP:F9 CYC:  0
F9B5  C9 55     CMP #$55                        A:55 X:55 Y:A4 P:24 SP:F9 CYC:  0
F9B7  D0 01     BNE $F9BA                       A:55 X:55 Y:A4 P:27 SP:F9 CYC:  0
F9B9  60        RTS                             A:55 X:55 Y:A4 P:27 SP:F9 CYC:  0
D43D  C8        INY                             A:55 X:55 Y:A4 P:27 SP:FB CYC:  0
D43E  20 BD F9  JSR $F9BD                       A:55 X:55 Y:A5 P:A5 SP:FB CYC:  0
F9BD  24 01     BIT $01 = FF                    A:55 X:55 Y:A5 P:A5 SP:F9 CYC:  0
F9BF  38        SEC                             A:55 X:55 Y:A5 P:E5 SP:F9 CYC:  0
F9C0  A9 80     LDA #$80                        A:55 X:55 Y:A5 P:E5 SP:F9 CYC:  0
F9C2  60        RTS                             A:80 X:55 Y:A5 P:E5 SP:F9 CYC:  0
D441  85 78     STA $78 = 55                    A:80 X:55 Y:A5 P:E5 SP:FB CYC:  0
D443  06 78     ASL $78 = 80                    A:80 X:55 Y:A5 P:E5 SP:FB CYC:  0
D445  A5 78     LDA $78 = 00                    A:80 X:55 Y:A5 P:67 SP:FB CYC:  0
D447  20 C3 F9  JSR $F9C3                       A:00 X:55 Y:A5 P:67 SP:FB CYC:  0
F9C3  90 1C     BCC $F9E1                       A:00 X:55 Y:A5 P:67 SP:F9 CYC:  0
F9C5  D0 1A     BNE $F9E1                       A:00 X:55 Y:A5 P:67 SP:F9 CYC:  0
F9C7  30 18     BMI $F9E1                       A:00 X:55 Y:A5 P:67 SP:F9 CYC:  0
F9C9  50 16     BVC $F9E1                       A:00 X:55 Y:A5 P:67 SP:F9 CYC:  0
F9CB  C9 00     CMP #$00                        A:00 X:55 Y:A5 P:67 SP:F9 CYC:  0
F9CD  D0 12     BNE $F9E1                       A:00 X:55 Y:A5 P:67 SP:F9 CYC:  0
F9CF  B8        CLV                             A:00 X:55 Y:A5 P:67 SP:F9 CYC:  0
F9D0  A9 55     LDA #$55                        A:00 X:55 Y:A5 P:27 SP:F9 CYC:  0
F9D2  38        SEC                             A:55 X:55 Y:A5 P:25 SP:F9 CYC:  0
F9D3  60        RTS                             A:55 X:55 Y:A5 P:25 SP:F9 CYC:  0
D44A  C8        INY                             A:55 X:55 Y:A5 P:25 SP:FB CYC:  0
D44B  85 78     STA $78 = 00                    A:55 X:55 Y:A6 P:A5 SP:FB CYC:  0
D44D  06 78     ASL $78 = 55                    A:55 X:55 Y:A6 P:A5 SP:FB CYC:  0
D44F  A5 78     LDA $78 = AA                    A:55 X:55 Y:A6 P:A4 SP:FB CYC:  0
D451  20 D4 F9  JSR $F9D4                       A:AA X:55 Y:A6 P:A4 SP:FB CYC:  0
F9D4  B0 0B     BCS $F9E1                       A:AA X:55 Y:A6 P:A4 SP:F9 CYC:  0
F9D6  F0 09     BEQ $F9E1                       A:AA X:55 Y:A6 P:A4 SP:F9 CYC:  0
F9D8  10 07     BPL $F9E1                       A:AA X:55 Y:A6 P:A4 SP:F9 CYC:  0
F9DA  70 05     BVS $F9E1                       A:AA X:55 Y:A6 P:A4 SP:F9 CYC:  0
F9DC  C9 AA     CMP #$AA                        A:AA X:55 Y:A6 P:A4 SP:F9 CYC:  0
F9DE  D0 01     BNE $F9E1                       A:AA X:55 Y:A6 P:27 SP:F9 CYC:  0
F9E0  60        RTS                             A:AA X:55 Y:A6 P:27 SP:F9 CYC:  0
D454  C8        INY                             A:AA X:55 Y:A6 P:27 SP:FB CYC:  0
D455  20 E4 F9  JSR $F9E4                       A:AA X:55 Y:A7 P:A5 SP:FB CYC:  0
F9E4  24 01     BIT $01 = FF                    A:AA X:55 Y:A7 P:A5 SP:F9 CYC:  0
F9E6  38        SEC                             A:AA X:55 Y:A7 P:E5 SP:F9 CYC:  0
F9E7  A9 01     LDA #$01                        A:AA X:55 Y:A7 P:E5 SP:F9 CYC:  0
F9E9  60        RTS                             A:01 X:55 Y:A7 P:65 SP:F9 CYC:  0
D458  85 78     STA $78 = AA                    A:01 X:55 Y:A7 P:65 SP:FB CYC:  0
D45A  66 78     ROR $78 = 01                    A:01 X:55 Y:A7 P:65 SP:FB CYC:  0
D45C  A5 78     LDA $78 = 80                    A:01 X:55 Y:A7 P:E5 SP:FB CYC:  0
D45E  20 EA F9  JSR $F9EA                       A:80 X:55 Y:A7 P:E5 SP:FB CYC:  0
F9EA  90 1C     BCC $FA08                       A:80 X:55 Y:A7 P:E5 SP:F9 CYC:  0
F9EC  F0 1A     BEQ $FA08                       A:80 X:55 Y:A7 P:E5 SP:F9 CYC:  0
F9EE  10 18     BPL $FA08                       A:80 X:55 Y:A7 P:E5 SP:F9 CYC:  0
F9F0  50 16     BVC $FA08                       A:80 X:55 Y:A7 P:E5 SP:F9 CYC:  0
F9F2  C9 80     CMP #$80                        A:80 X:55 Y:A7 P:E5 SP:F9 CYC:  0
F9F4  D0 12     BNE $FA08                       A:80 X:55 Y:A7 P:67 SP:F9 CYC:  0
F9F6  B8        CLV                             A:80 X:55 Y:A7 P:67 SP:F9 CYC:  0
F9F7  18        CLC                             A:80 X:55 Y:A7 P:27 SP:F9 CYC:  0
F9F8  A9 55     LDA #$55                        A:80 X:55 Y:A7 P:26 SP:F9 CYC:  0
F9FA  60        RTS                             A:55 X:55 Y:A7 P:24 SP:F9 CYC:  0
D461  C8        INY                             A:55 X:55 Y:A7 P:24 SP:FB CYC:  0
D462  85 78     STA $78 = 80                    A:55 X:55 Y:A8 P:A4 SP:FB CYC:  0
D464  66 78     ROR $78 = 55                    A:55 X:55 Y:A8 P:A4 SP:FB CYC:  0
D466  A5 78     LDA $78 = 2A                    A:55 X:55 Y:A8 P:25 SP:FB CYC:  0
D468  20 FB F9  JSR $F9FB                       A:2A X:55 Y:A8 P:25 SP:FB CYC:  0
F9FB  90 0B     BCC $FA08                       A:2A X:55 Y:A8 P:25 SP:F9 CYC:  0
F9FD  F0 09     BEQ $FA08                       A:2A X:55 Y:A8 P:25 SP:F9 CYC:  0
F9FF  30 07     BMI $FA08                       A:2A X:55 Y:A8 P:25 SP:F9 CYC:  0
FA01  70 05     BVS $FA08                       A:2A X:55 Y:A8 P:25 SP:F9 CYC:  0
FA03  C9 2A     CMP #$2A                        A:2A X:55 Y:A8 P:25 SP:F9 CYC:  0
FA05  D0 01     BNE $FA08                       A:2A X:55 Y:A8 P:27 SP:F9 CYC:  0
FA07  60        RTS                             A:2A X:55 Y:A8 P:27 SP:F9 CYC:  0
D46B  C8        INY                             A:2A X:55 Y:A8 P:27 SP:FB CYC:  0
D46C  20 0A FA  JSR $FA0A                       A:2A X:55 Y:A9 P:A5 SP:FB CYC:  0
FA0A  24 01     BIT $01 = FF                    A:2A X:55 Y:A9 P:A5 SP:F9 CYC:  0
FA0C  38        SEC                             A:2A X:55 Y:A9 P:E5 SP:F9 CYC:  0
FA0D  A9 80     LDA #$80                        A:2A X:55 Y:A9 P:E5 SP:F9 CYC:  0
FA0F  60        RTS                             A:80 X:55 Y:A9 P:E5 SP:F9 CYC:  0
D46F  85 78     STA $78 = 2A                    A:80 X:55 Y:A9 P:E5 SP:FB CYC:  0
D471  26 78     ROL $78 = 80                    A:80 X:55 Y:A9 P:E5 SP:FB CYC:  0
D473  A5 78     LDA $78 = 01                    A:80 X:55 Y:A9 P:65 SP:FB CYC:  0
D475  20 10 FA  JSR $FA10                       A:01 X:55 Y:A9 P:65 SP:FB CYC:  0
FA10  90 1C     BCC $FA2E                       A:01 X:55 Y:A9 P:65 SP:F9 CYC:  0
FA12  F0 1A     BEQ $FA2E                       A:01 X:55 Y:A9 P:65 SP:F9 CYC:  0
FA14  30 18     BMI $FA2E                       A:01 X:55 Y:A9 P:65 SP:F9 CYC:  0
FA16  50 16     BVC $FA2E                       A:01 X:55 Y:A9 P:65 SP:F9 CYC:  0
FA18  C9 01     CMP #$01                        A:01 X:55 Y:A9 P:65 SP:F9 CYC:  0
FA1A  D0 12     BNE $FA2E                       A:01 X:55 Y:A9 P:67 SP:F9 CYC:  0
FA1C  B8        CLV                             A:01 X:55 Y:A9 P:67 SP:F9 CYC:  0
FA1D  18        CLC                             A:01 X:55 Y:A9 P:27 SP:F9 CYC:  0
FA1E  A9 55     LDA #$55                        A:01 X:55 Y:A9 P:26 SP:F9 CYC:  0
FA20  60        RTS                             A:55 X:55 Y:A9 P:24 SP:F9 CYC:  0
D478  C8        INY                             A:55 X:55 Y:A9 P:24 SP:FB CYC:  0
D479  85 78     STA $78 = 01                    A:55 X:55 Y:AA P:A4 SP:FB CYC:  0
D47B  26 78     ROL $78 = 55                    A:55 X:55 Y:AA P:A4 SP:FB CYC:  0
D47D  A5 78     LDA $78 = AA                    A:55 X:55 Y:AA P:A4 SP:FB CYC:  0
D47F  20 21 FA  JSR $FA21                       A:AA X:55 Y:AA P:A4 SP:FB CYC:  0
FA21  B0 0B     BCS $FA2E                       A:AA X:55 Y:AA P:A4 SP:F9 CYC:  0
FA23  F0 09     BEQ $FA2E                       A:AA X:55 Y:AA P:A4 SP:F9 CYC:  0
FA25  10 07     BPL $FA2E                       A:AA X:55 Y:AA P:A4 SP:F9 CYC:  0
FA27  70 05     BVS $FA2E                       A:AA X:55 Y:AA P:A4 SP:F9 CYC:  0
FA29  C9 AA     CMP #$AA                        A:AA X:55 Y:AA P:A4 SP:F9 CYC:  0
FA2B  D0 01     BNE $FA2E                       A:AA X:55 Y:AA P:27 SP:F9 CYC:  0
FA2D  60        RTS                             A:AA X:55 Y:AA P:27 SP:F9 CYC:  0
D482  A9 FF     LDA #$FF                        A:AA X:55 Y:AA P:27 SP:FB CYC:  0
D484  85 78     STA $78 = AA                    A:FF X:55 Y:AA P:A5 SP:FB CYC:  0
D486  85 01     STA $01 = FF                    A:FF X:55 Y:AA P:A5 SP:FB CYC:  0
D488  24 01     BIT $01 = FF                    A:FF X:55 Y:AA P:A5 SP:FB CYC:  0
D48A  38        SEC                             A:FF X:55 Y:AA P:E5 SP:FB CYC:  0
D48B  E6 78     INC $78 = FF                    A:FF X:55 Y:AA P:E5 SP:FB CYC:  0
D48D  D0 0C     BNE $D49B                       A:FF X:55 Y:AA P:67 SP:FB CYC:  0
D48F  30 0A     BMI $D49B                       A:FF X:55 Y:AA P:67 SP:FB CYC:  0
D491  50 08     BVC $D49B                       A:FF X:55 Y:AA P:67 SP:FB CYC:  0
D493  90 06     BCC $D49B                       A:FF X:55 Y:AA P:67 SP:FB CYC:  0
D495  A5 78     LDA $78 = 00                    A:FF X:55 Y:AA P:67 SP:FB CYC:  0
D497  C9 00     CMP #$00                        A:00 X:55 Y:AA P:67 SP:FB CYC:  0
D499  F0 04     BEQ $D49F                       A:00 X:55 Y:AA P:67 SP:FB CYC:  0
D49F  A9 7F     LDA #$7F                        A:00 X:55 Y:AA P:67 SP:FB CYC:  0
D4A1  85 78     STA $78 = 00                    A:7F X:55 Y:AA P:65 SP:FB CYC:  0
D4A3  B8        CLV                             A:7F X:55 Y:AA P:65 SP:FB CYC:  0
D4A4  18        CLC                             A:7F X:55 Y:AA P:25 SP:FB CYC:  0
D4A5  E6 78     INC $78 = 7F                    A:7F X:55 Y:AA P:24 SP:FB CYC:  0
D4A7  F0 0C     BEQ $D4B5                       A:7F X:55 Y:AA P:A4 SP:FB CYC:  0
D4A9  10 0A     BPL $D4B5                       A:7F X:55 Y:AA P:A4 SP:FB CYC:  0
D4AB  70 08     BVS $D4B5                       A:7F X:55 Y:AA P:A4 SP:FB CYC:  0
D4AD  B0 06     BCS $D4B5                       A:7F X:55 Y:AA P:A4 SP:FB CYC:  0
D4AF  A5 78     LDA $78 = 80                    A:7F X:55 Y:AA P:A4 SP:FB CYC:  0
D4B1  C9 80     CMP #$80                        A:80 X:55 Y:AA P:A4 SP:FB CYC:  0
D4B3  F0 04     BEQ $D4B9                       A:80 X:55 Y:AA P:27 SP:FB CYC:  0
D4B9  A9 00     LDA #$00                        A:80 X:55 Y:AA P:27 SP:FB CYC:  0
D4BB  85 78     STA $78 = 80                    A:00 X:55 Y:AA P:27 SP:FB CYC:  0
D4BD  24 01     BIT $01 = FF                    A:00 X:55 Y:AA P:27 SP:FB CYC:  0
D4BF  38        SEC                             A:00 X:55 Y:AA P:E7 SP:FB CYC:  0
D4C0  C6 78     DEC $78 = 00                    A:00 X:55 Y:AA P:E7 SP:FB CYC:  0
D4C2  F0 0C     BEQ $D4D0                       A:00 X:55 Y:AA P:E5 SP:FB CYC:  0
D4C4  10 0A     BPL $D4D0                       A:00 X:55 Y:AA P:E5 SP:FB CYC:  0
D4C6  50 08     BVC $D4D0                       A:00 X:55 Y:AA P:E5 SP:FB CYC:  0
D4C8  90 06     BCC $D4D0                       A:00 X:55 Y:AA P:E5 SP:FB CYC:  0
D4CA  A5 78     LDA $78 = FF                    A:00 X:55 Y:AA P:E5 SP:FB CYC:  0
D4CC  C9 FF     CMP #$FF                        A:FF X:55 Y:AA P:E5 SP:FB CYC:  0
D4CE  F0 04     BEQ $D4D4                       A:FF X:55 Y:AA P:67 SP:FB CYC:  0
D4D4  A9 80     LDA #$80                        A:FF X:55 Y:AA P:67 SP:FB CYC:  0
D4D6  85 78     STA $78 = FF                    A:80 X:55 Y:AA P:E5 SP:FB CYC:  0
D4D8  B8        CLV                             A:80 X:55 Y:AA P:E5 SP:FB CYC:  0
D4D9  18        CLC                             A:80 X:55 Y:AA P:A5 SP:FB CYC:  0
D4DA  C6 78     DEC $78 = 80                    A:80 X:55 Y:AA P:A4 SP:FB CYC:  0
D4DC  F0 0C     BEQ $D4EA                       A:80 X:55 Y:AA P:24 SP:FB CYC:  0
D4DE  30 0A     BMI $D4EA                       A:80 X:55 Y:AA P:24 SP:FB CYC:  0
D4E0  70 08     BVS $D4EA                       A:80 X:55 Y:AA P:24 SP:FB CYC:  0
D4E2  B0 06     BCS $D4EA                       A:80 X:55 Y:AA P:24 SP:FB CYC:  0
D4E4  A5 78     LDA $78 = 7F                    A:80 X:55 Y:AA P:24 SP:FB CYC:  0
D4E6  C9 7F     CMP #$7F                        A:7F X:55 Y:AA P:24 SP:FB CYC:  0
D4E8  F0 04     BEQ $D4EE                       A:7F X:55 Y:AA P:27 SP:FB CYC:  0
D4EE  A9 01     LDA #$01                        A:7F X:55 Y:AA P:27 SP:FB CYC:  0
D4F0  85 78     STA $78 = 7F                    A:01 X:55 Y:AA P:25 SP:FB CYC:  0
D4F2  C6 78     DEC $78 = 01                    A:01 X:55 Y:AA P:25 SP:FB CYC:  0
D4F4  F0 04     BEQ $D4FA                       A:01 X:55 Y:AA P:27 SP:FB CYC:  0
D4FA  60        RTS                             A:01 X:55 Y:AA P:27 SP:FB CYC:  0
C615  20 FB D4  JSR $D4FB                       A:01 X:55 Y:AA P:27 SP:FD CYC:  0
D4FB  A9 55     LDA #$55                        A:01 X:55 Y:AA P:27 SP:FB CYC:  0
D4FD  8D 78 06  STA $0678 = 00                  A:55 X:55 Y:AA P:25 SP:FB CYC:  0
D500  A9 FF     LDA #$FF                        A:55 X:55 Y:AA P:25 SP:FB CYC:  0
D502  85 01     STA $01 = FF                    A:FF X:55 Y:AA P:A5 SP:FB CYC:  0
D504  24 01     BIT $01 = FF                    A:FF X:55 Y:AA P:A5 SP:FB CYC:  0
D506  A0 11     LDY #$11                        A:FF X:55 Y:AA P:E5 SP:FB CYC:  0
D508  A2 23     LDX #$23                        A:FF X:55 Y:11 P:65 SP:FB CYC:  0
D50A  A9 00     LDA #$00                        A:FF X:23 Y:11 P:65 SP:FB CYC:  0
D50C  AD 78 06  LDA $0678 = 55                  A:00 X:23 Y:11 P:67 SP:FB CYC:  0
D50F  F0 10     BEQ $D521                       A:55 X:23 Y:11 P:65 SP:FB CYC:  0
D511  30 0E     BMI $D521                       A:55 X:23 Y:11 P:65 SP:FB CYC:  0
D513  C9 55     CMP #$55                        A:55 X:23 Y:11 P:65 SP:FB CYC:  0
D515  D0 0A     BNE $D521                       A:55 X:23 Y:11 P:67 SP:FB CYC:  0
D517  C0 11     CPY #$11                        A:55 X:23 Y:11 P:67 SP:FB CYC:  0
D519  D0 06     BNE $D521                       A:55 X:23 Y:11 P:67 SP:FB CYC:  0
D51B  E0 23     CPX #$23                        A:55 X:23 Y:11 P:67 SP:FB CYC:  0
D51D  50 02     BVC $D521                       A:55 X:23 Y:11 P:67 SP:FB CYC:  0
D51F  F0 04     BEQ $D525                       A:55 X:23 Y:11 P:67 SP:FB CYC:  0
D525  A9 46     LDA #$46                        A:55 X:23 Y:11 P:67 SP:FB CYC:  0
D527  24 01     BIT $01 = FF                    A:46 X:23 Y:11 P:65 SP:FB CYC:  0
D529  8D 78 06  STA $0678 = 55                  A:46 X:23 Y:11 P:E5 SP:FB CYC:  0
D52C  F0 0B     BEQ $D539                       A:46 X:23 Y:11 P:E5 SP:FB CYC:  0
D52E  10 09     BPL $D539                       A:46 X:23 Y:11 P:E5 SP:FB CYC:  0
D530  50 07     BVC $D539                       A:46 X:23 Y:11 P:E5 SP:FB CYC:  0
D532  AD 78 06  LDA $0678 = 46                  A:46 X:23 Y:11 P:E5 SP:FB CYC:  0
D535  C9 46     CMP #$46                        A:46 X:23 Y:11 P:65 SP:FB CYC:  0
D537  F0 04     BEQ $D53D                       A:46 X:23 Y:11 P:67 SP:FB CYC:  0
D53D  A9 55     LDA #$55                        A:46 X:23 Y:11 P:67 SP:FB CYC:  0
D53F  8D 78 06  STA $0678 = 46                  A:55 X:23 Y:11 P:65 SP:FB CYC:  0
D542  24 01     BIT $01 = FF                    A:55 X:23 Y:11 P:65 SP:FB CYC:  0
D544  A9 11     LDA #$11                        A:55 X:23 Y:11 P:E5 SP:FB CYC:  0
D546  A2 23     LDX #$23                        A:11 X:23 Y:11 P:65 SP:FB CYC:  0
D548  A0 00     LDY #$00                        A:11 X:23 Y:11 P:65 SP:FB CYC:  0
D54A  AC 78 06  LDY $0678 = 55                  A:11 X:23 Y:00 P:67 SP:FB CYC:  0
D54D  F0 10     BEQ $D55F                       A:11 X:23 Y:55 P:65 SP:FB CYC:  0
D54F  30 0E     BMI $D55F                       A:11 X:23 Y:55 P:65 SP:FB CYC:  0
D551  C0 55     CPY #$55                        A:11 X:23 Y:55 P:65 SP:FB CYC:  0
D553  D0 0A     BNE $D55F                       A:11 X:23 Y:55 P:67 SP:FB CYC:  0
D555  C9 11     CMP #$11                        A:11 X:23 Y:55 P:67 SP:FB CYC:  0
D557  D0 06     BNE $D55F                       A:11 X:23 Y:55 P:67 SP:FB CYC:  0
D559  E0 23     CPX #$23                        A:11 X:23 Y:55 P:67 SP:FB CYC:  0
D55B  50 02     BVC $D55F                       A:11 X:23 Y:55 P:67 SP:FB CYC:  0
D55D  F0 04     BEQ $D563                       A:11 X:23 Y:55 P:67 SP:FB CYC:  0
D563  A0 46     LDY #$46                        A:11 X:23 Y:55 P:67 SP:FB CYC:  0
D565  24 01     BIT $01 = FF                    A:11 X:23 Y:46 P:65 SP:FB CYC:  0
D567  8C 78 06  STY $0678 = 55                  A:11 X:23 Y:46 P:E5 SP:FB CYC:  0
D56A  F0 0B     BEQ $D577                       A:11 X:23 Y:46 P:E5 SP:FB CYC:  0
D56C  10 09     BPL $D577                       A:11 X:23 Y:46 P:E5 SP:FB CYC:  0
D56E  50 07     BVC $D577                       A:11 X:23 Y:46 P:E5 SP:FB CYC:  0
D570  AC 78 06  LDY $0678 = 46                  A:11 X:23 Y:46 P:E5 SP:FB CYC:  0
D573  C0 46     CPY #$46                        A:11 X:23 Y:46 P:65 SP:FB CYC:  0
D575  F0 04     BEQ $D57B                       A:11 X:23 Y:46 P:67 SP:FB CYC:  0
D57B  24 01     BIT $01 = FF                    A:11 X:23 Y:46 P:67 SP:FB CYC:  0
D57D  A9 55     LDA #$55                        A:11 X:23 Y:46 P:E5 SP:FB CYC:  0
D57F  8D 78 06  STA $0678 = 46                  A:55 X:23 Y:46 P:65 SP:FB CYC:  0
D582  A0 11     LDY #$11                        A:55 X:23 Y:46 P:65 SP:FB CYC:  0
D584  A9 23     LDA #$23                        A:55 X:23 Y:11 P:65 SP:FB CYC:  0
D586  A2 00     LDX #$00                        A:23 X:23 Y:11 P:65 SP:FB CYC:  0
D588  AE 78 06  LDX $0678 = 55                  A:23 X:00 Y:11 P:67 SP:FB CYC:  0
D58B  F0 10     BEQ $D59D                       A:23 X:55 Y:11 P:65 SP:FB CYC:  0
D58D  30 0E     BMI $D59D                       A:23 X:55 Y:11 P:65 SP:FB CYC:  0
D58F  E0 55     CPX #$55                        A:23 X:55 Y:11 P:65 SP:FB CYC:  0
D591  D0 0A     BNE $D59D                       A:23 X:55 Y:11 P:67 SP:FB CYC:  0
D593  C0 11     CPY #$11                        A:23 X:55 Y:11 P:67 SP:FB CYC:  0
D595  D0 06     BNE $D59D                       A:23 X:55 Y:11 P:67 SP:FB CYC:  0
D597  C9 23     CMP #$23                        A:23 X:55 Y:11 P:67 SP:FB CYC:  0
D599  50 02     BVC $D59D                       A:23 X:55 Y:11 P:67 SP:FB CYC:  0
D59B  F0 04     BEQ $D5A1                       A:23 X:55 Y:11 P:67 SP:FB CYC:  0
D5A1  A2 46     LDX #$46                        A:23 X:55 Y:11 P:67 SP:FB CYC:  0
D5A3  24 01     BIT $01 = FF                    A:23 X:46 Y:11 P:65 SP:FB CYC:  0
D5A5  8E 78 06  STX $0678 = 55                  A:23 X:46 Y:11 P:E5 SP:FB CYC:  0
D5A8  F0 0B     BEQ $D5B5                       A:23 X:46 Y:11 P:E5 SP:FB CYC:  0
D5AA  10 09     BPL $D5B5                       A:23 X:46 Y:11 P:E5 SP:FB CYC:  0
D5AC  50 07     BVC $D5B5                       A:23 X:46 Y:11 P:E5 SP:FB CYC:  0
D5AE  AE 78 06  LDX $0678 = 46                  A:23 X:46 Y:11 P:E5 SP:FB CYC:  0
D5B1  E0 46     CPX #$46                        A:23 X:46 Y:11 P:65 SP:FB CYC:  0
D5B3  F0 04     BEQ $D5B9                       A:23 X:46 Y:11 P:67 SP:FB CYC:  0
D5B9  A9 C0     LDA #$C0                        A:23 X:46 Y:11 P:67 SP:FB CYC:  0
D5BB  8D 78 06  STA $0678 = 46                  A:C0 X:46 Y:11 P:E5 SP:FB CYC:  0
D5BE  A2 33     LDX #$33                        A:C0 X:46 Y:11 P:E5 SP:FB CYC:  0
D5C0  A0 88     LDY #$88                        A:C0 X:33 Y:11 P:65 SP:FB CYC:  0
D5C2  A9 05     LDA #$05                        A:C0 X:33 Y:88 P:E5 SP:FB CYC:  0
D5C4  2C 78 06  BIT $0678 = C0                  A:05 X:33 Y:88 P:65 SP:FB CYC:  0
D5C7  10 10     BPL $D5D9                       A:05 X:33 Y:88 P:E7 SP:FB CYC:  0
D5C9  50 0E     BVC $D5D9                       A:05 X:33 Y:88 P:E7 SP:FB CYC:  0
D5CB  D0 0C     BNE $D5D9                       A:05 X:33 Y:88 P:E7 SP:FB CYC:  0
D5CD  C9 05     CMP #$05                        A:05 X:33 Y:88 P:E7 SP:FB CYC:  0
D5CF  D0 08     BNE $D5D9                       A:05 X:33 Y:88 P:67 SP:FB CYC:  0
D5D1  E0 33     CPX #$33                        A:05 X:33 Y:88 P:67 SP:FB CYC:  0
D5D3  D0 04     BNE $D5D9                       A:05 X:33 Y:88 P:67 SP:FB CYC:  0
D5D5  C0 88     CPY #$88                        A:05 X:33 Y:88 P:67 SP:FB CYC:  0
D5D7  F0 04     BEQ $D5DD                       A:05 X:33 Y:88 P:67 SP:FB CYC:  0
D5DD  A9 03     LDA #$03                        A:05 X:33 Y:88 P:67 SP:FB CYC:  0
D5DF  8D 78 06  STA $0678 = C0                  A:03 X:33 Y:88 P:65 SP:FB CYC:  0
D5E2  A9 01     LDA #$01                        A:03 X:33 Y:88 P:65 SP:FB CYC:  0
D5E4  2C 78 06  BIT $0678 = 03                  A:01 X:33 Y:88 P:65 SP:FB CYC:  0
D5E7  30 08     BMI $D5F1                       A:01 X:33 Y:88 P:25 SP:FB CYC:  0
D5E9  70 06     BVS $D5F1                       A:01 X:33 Y:88 P:25 SP:FB CYC:  0
D5EB  F0 04     BEQ $D5F1                       A:01 X:33 Y:88 P:25 SP:FB CYC:  0
D5ED  C9 01     CMP #$01                        A:01 X:33 Y:88 P:25 SP:FB CYC:  0
D5EF  F0 04     BEQ $D5F5                       A:01 X:33 Y:88 P:27 SP:FB CYC:  0
D5F5  A0 B8     LDY #$B8                        A:01 X:33 Y:88 P:27 SP:FB CYC:  0
D5F7  A9 AA     LDA #$AA                        A:01 X:33 Y:B8 P:A5 SP:FB CYC:  0
D5F9  8D 78 06  STA $0678 = 03                  A:AA X:33 Y:B8 P:A5 SP:FB CYC:  0
D5FC  20 B6 F7  JSR $F7B6                       A:AA X:33 Y:B8 P:A5 SP:FB CYC:  0
F7B6  18        CLC                             A:AA X:33 Y:B8 P:A5 SP:F9 CYC:  0
F7B7  A9 FF     LDA #$FF                        A:AA X:33 Y:B8 P:A4 SP:F9 CYC:  0
F7B9  85 01     STA $01 = FF                    A:FF X:33 Y:B8 P:A4 SP:F9 CYC:  0
F7BB  24 01     BIT $01 = FF                    A:FF X:33 Y:B8 P:A4 SP:F9 CYC:  0
F7BD  A9 55     LDA #$55                        A:FF X:33 Y:B8 P:E4 SP:F9 CYC:  0
F7BF  60        RTS                             A:55 X:33 Y:B8 P:64 SP:F9 CYC:  0
D5FF  0D 78 06  ORA $0678 = AA                  A:55 X:33 Y:B8 P:64 SP:FB CYC:  0
D602  20 C0 F7  JSR $F7C0                       A:FF X:33 Y:B8 P:E4 SP:FB CYC:  0
F7C0  B0 09     BCS $F7CB                       A:FF X:33 Y:B8 P:E4 SP:F9 CYC:  0
F7C2  10 07     BPL $F7CB                       A:FF X:33 Y:B8 P:E4 SP:F9 CYC:  0
F7C4  C9 FF     CMP #$FF                        A:FF X:33 Y:B8 P:E4 SP:F9 CYC:  0
F7C6  D0 03     BNE $F7CB                       A:FF X:33 Y:B8 P:67 SP:F9 CYC:  0
F7C8  50 01     BVC $F7CB                       A:FF X:33 Y:B8 P:67 SP:F9 CYC:  0
F7CA  60        RTS                             A:FF X:33 Y:B8 P:67 SP:F9 CYC:  0
D605  C8        INY                             A:FF X:33 Y:B8 P:67 SP:FB CYC:  0
D606  A9 00     LDA #$00                        A:FF X:33 Y:B9 P:E5 SP:FB CYC:  0
D608  8D 78 06  STA $0678 = AA                  A:00 X:33 Y:B9 P:67 SP:FB CYC:  0
D60B  20 CE F7  JSR $F7CE                       A:00 X:33 Y:B9 P:67 SP:FB CYC:  0
F7CE  38        SEC                             A:00 X:33 Y:B9 P:67 SP:F9 CYC:  0
F7CF  B8        CLV                             A:00 X:33 Y:B9 P:67 SP:F9 CYC:  0
F7D0  A9 00     LDA #$00                        A:00 X:33 Y:B9 P:27 SP:F9 CYC:  0
F7D2  60        RTS                             A:00 X:33 Y:B9 P:27 SP:F9 CYC:  0
D60E  0D 78 06  ORA $0678 = 00                  A:00 X:33 Y:B9 P:27 SP:FB CYC:  0
D611  20 D3 F7  JSR $F7D3                       A:00 X:33 Y:B9 P:27 SP:FB CYC:  0
F7D3  D0 07     BNE $F7DC                       A:00 X:33 Y:B9 P:27 SP:F9 CYC:  0
F7D5  70 05     BVS $F7DC                       A:00 X:33 Y:B9 P:27 SP:F9 CYC:  0
F7D7  90 03     BCC $F7DC                       A:00 X:33 Y:B9 P:27 SP:F9 CYC:  0
F7D9  30 01     BMI $F7DC                       A:00 X:33 Y:B9 P:27 SP:F9 CYC:  0
F7DB  60        RTS                             A:00 X:33 Y:B9 P:27 SP:F9 CYC:  0
D614  C8        INY                             A:00 X:33 Y:B9 P:27 SP:FB CYC:  0
D615  A9 AA     LDA #$AA                        A:00 X:33 Y:BA P:A5 SP:FB CYC:  0
D617  8D 78 06  STA $0678 = 00                  A:AA X:33 Y:BA P:A5 SP:FB CYC:  0
D61A  20 DF F7  JSR $F7DF                       A:AA X:33 Y:BA P:A5 SP:FB CYC:  0
F7DF  18        CLC                             A:AA X:33 Y:BA P:A5 SP:F9 CYC:  0
F7E0  24 01     BIT $01 = FF                    A:AA X:33 Y:BA P:A4 SP:F9 CYC:  0
F7E2  A9 55     LDA #$55                        A:AA X:33 Y:BA P:E4 SP:F9 CYC:  0
F7E4  60        RTS                             A:55 X:33 Y:BA P:64 SP:F9 CYC:  0
D61D  2D 78 06  AND $0678 = AA                  A:55 X:33 Y:BA P:64 SP:FB CYC:  0
D620  20 E5 F7  JSR $F7E5                       A:00 X:33 Y:BA P:66 SP:FB CYC:  0
F7E5  D0 07     BNE $F7EE                       A:00 X:33 Y:BA P:66 SP:F9 CYC:  0
F7E7  50 05     BVC $F7EE                       A:00 X:33 Y:BA P:66 SP:F9 CYC:  0
F7E9  B0 03     BCS $F7EE                       A:00 X:33 Y:BA P:66 SP:F9 CYC:  0
F7EB  30 01     BMI $F7EE                       A:00 X:33 Y:BA P:66 SP:F9 CYC:  0
F7ED  60        RTS                             A:00 X:33 Y:BA P:66 SP:F9 CYC:  0
D623  C8        INY                             A:00 X:33 Y:BA P:66 SP:FB CYC:  0
D624  A9 EF     LDA #$EF                        A:00 X:33 Y:BB P:E4 SP:FB CYC:  0
D626  8D 78 06  STA $0678 = AA                  A:EF X:33 Y:BB P:E4 SP:FB CYC:  0
D629  20 F1 F7  JSR $F7F1                       A:EF X:33 Y:BB P:E4 SP:FB CYC:  0
F7F1  38        SEC                             A:EF X:33 Y:BB P:E4 SP:F9 CYC:  0
F7F2  B8        CLV                             A:EF X:33 Y:BB P:E5 SP:F9 CYC:  0
F7F3  A9 F8     LDA #$F8                        A:EF X:33 Y:BB P:A5 SP:F9 CYC:  0
F7F5  60        RTS                             A:F8 X:33 Y:BB P:A5 SP:F9 CYC:  0
D62C  2D 78 06  AND $0678 = EF                  A:F8 X:33 Y:BB P:A5 SP:FB CYC:  0
D62F  20 F6 F7  JSR $F7F6                       A:E8 X:33 Y:BB P:A5 SP:FB CYC:  0
F7F6  90 09     BCC $F801                       A:E8 X:33 Y:BB P:A5 SP:F9 CYC:  0
F7F8  10 07     BPL $F801                       A:E8 X:33 Y:BB P:A5 SP:F9 CYC:  0
F7FA  C9 E8     CMP #$E8                        A:E8 X:33 Y:BB P:A5 SP:F9 CYC:  0
F7FC  D0 03     BNE $F801                       A:E8 X:33 Y:BB P:27 SP:F9 CYC:  0
F7FE  70 01     BVS $F801                       A:E8 X:33 Y:BB P:27 SP:F9 CYC:  0
F800  60        RTS                             A:E8 X:33 Y:BB P:27 SP:F9 CYC:  0
D632  C8        INY                             A:E8 X:33 Y:BB P:27 SP:FB CYC:  0
D633  A9 AA     LDA #$AA                        A:E8 X:33 Y:BC P:A5 SP:FB CYC:  0
D635  8D 78 06  STA $0678 = EF                  A:AA X:33 Y:BC P:A5 SP:FB CYC:  0
D638  20 04 F8  JSR $F804                       A:AA X:33 Y:BC P:A5 SP:FB CYC:  0
F804  18        CLC                             A:AA X:33 Y:BC P:A5 SP:F9 CYC:  0
F805  24 01     BIT $01 = FF                    A:AA X:33 Y:BC P:A4 SP:F9 CYC:  0
F807  A9 5F     LDA #$5F                        A:AA X:33 Y:BC P:E4 SP:F9 CYC:  0
F809  60        RTS                             A:5F X:33 Y:BC P:64 SP:F9 CYC:  0
D63B  4D 78 06  EOR $0678 = AA                  A:5F X:33 Y:BC P:64 SP:FB CYC:  0
D63E  20 0A F8  JSR $F80A                       A:F5 X:33 Y:BC P:E4 SP:FB CYC:  0
F80A  B0 09     BCS $F815                       A:F5 X:33 Y:BC P:E4 SP:F9 CYC:  0
F80C  10 07     BPL $F815                       A:F5 X:33 Y:BC P:E4 SP:F9 CYC:  0
F80E  C9 F5     CMP #$F5                        A:F5 X:33 Y:BC P:E4 SP:F9 CYC:  0
F810  D0 03     BNE $F815                       A:F5 X:33 Y:BC P:67 SP:F9 CYC:  0
F812  50 01     BVC $F815                       A:F5 X:33 Y:BC P:67 SP:F9 CYC:  0
F814  60        RTS                             A:F5 X:33 Y:BC P:67 SP:F9 CYC:  0
D641  C8        INY                             A:F5 X:33 Y:BC P:67 SP:FB CYC:  0
D642  A9 70     LDA #$70                        A:F5 X:33 Y:BD P:E5 SP:FB CYC:  0
D644  8D 78 06  STA $0678 = AA                  A:70 X:33 Y:BD P:65 SP:FB CYC:  0
D647  20 18 F8  JSR $F818                       A:70 X:33 Y:BD P:65 SP:FB CYC:  0
F818  38        SEC                             A:70 X:33 Y:BD P:65 SP:F9 CYC:  0
F819  B8        CLV                             A:70 X:33 Y:BD P:65 SP:F9 CYC:  0
F81A  A9 70     LDA #$70                        A:70 X:33 Y:BD P:25 SP:F9 CYC:  0
F81C  60        RTS                             A:70 X:33 Y:BD P:25 SP:F9 CYC:  0
D64A  4D 78 06  EOR $0678 = 70                  A:70 X:33 Y:BD P:25 SP:FB CYC:  0
D64D  20 1D F8  JSR $F81D                       A:00 X:33 Y:BD P:27 SP:FB CYC:  0
F81D  D0 07     BNE $F826                       A:00 X:33 Y:BD P:27 SP:F9 CYC:  0
F81F  70 05     BVS $F826                       A:00 X:33 Y:BD P:27 SP:F9 CYC:  0
F821  90 03     BCC $F826                       A:00 X:33 Y:BD P:27 SP:F9 CYC:  0
F823  30 01     BMI $F826                       A:00 X:33 Y:BD P:27 SP:F9 CYC:  0
F825  60        RTS                             A:00 X:33 Y:BD P:27 SP:F9 CYC:  0
D650  C8        INY                             A:00 X:33 Y:BD P:27 SP:FB CYC:  0
D651  A9 69     LDA #$69                        A:00 X:33 Y:BE P:A5 SP:FB CYC:  0
D653  8D 78 06  STA $0678 = 70                  A:69 X:33 Y:BE P:25 SP:FB CYC:  0
D656  20 29 F8  JSR $F829                       A:69 X:33 Y:BE P:25 SP:FB CYC:  0
F829  18        CLC                             A:69 X:33 Y:BE P:25 SP:F9 CYC:  0
F82A  24 01     BIT $01 = FF                    A:69 X:33 Y:BE P:24 SP:F9 CYC:  0
F82C  A9 00     LDA #$00                        A:69 X:33 Y:BE P:E4 SP:F9 CYC:  0
F82E  60        RTS                             A:00 X:33 Y:BE P:66 SP:F9 CYC:  0
D659  6D 78 06  ADC $0678 = 69                  A:00 X:33 Y:BE P:66 SP:FB CYC:  0
D65C  20 2F F8  JSR $F82F                       A:69 X:33 Y:BE P:24 SP:FB CYC:  0
F82F  30 09     BMI $F83A                       A:69 X:33 Y:BE P:24 SP:F9 CYC:  0
F831  B0 07     BCS $F83A                       A:69 X:33 Y:BE P:24 SP:F9 CYC:  0
F833  C9 69     CMP #$69                        A:69 X:33 Y:BE P:24 SP:F9 CYC:  0
F835  D0 03     BNE $F83A                       A:69 X:33 Y:BE P:27 SP:F9 CYC:  0
F837  70 01     BVS $F83A                       A:69 X:33 Y:BE P:27 SP:F9 CYC:  0
F839  60        RTS                             A:69 X:33 Y:BE P:27 SP:F9 CYC:  0
D65F  C8        INY                             A:69 X:33 Y:BE P:27 SP:FB CYC:  0
D660  20 3D F8  JSR $F83D                       A:69 X:33 Y:BF P:A5 SP:FB CYC:  0
F83D  38        SEC                             A:69 X:33 Y:BF P:A5 SP:F9 CYC:  0
F83E  24 01     BIT $01 = FF                    A:69 X:33 Y:BF P:A5 SP:F9 CYC:  0
F840  A9 00     LDA #$00                        A:69 X:33 Y:BF P:E5 SP:F9 CYC:  0
F842  60        RTS                             A:00 X:33 Y:BF P:67 SP:F9 CYC:  0
D663  6D 78 06  ADC $0678 = 69                  A:00 X:33 Y:BF P:67 SP:FB CYC:  0
D666  20 43 F8  JSR $F843                       A:6A X:33 Y:BF P:24 SP:FB CYC:  0
F843  30 09     BMI $F84E                       A:6A X:33 Y:BF P:24 SP:F9 CYC:  0
F845  B0 07     BCS $F84E                       A:6A X:33 Y:BF P:24 SP:F9 CYC:  0
F847  C9 6A     CMP #$6A                        A:6A X:33 Y:BF P:24 SP:F9 CYC:  0
F849  D0 03     BNE $F84E                       A:6A X:33 Y:BF P:27 SP:F9 CYC:  0
F84B  70 01     BVS $F84E                       A:6A X:33 Y:BF P:27 SP:F9 CYC:  0
F84D  60        RTS                             A:6A X:33 Y:BF P:27 SP:F9 CYC:  0
D669  C8        INY                             A:6A X:33 Y:BF P:27 SP:FB CYC:  0
D66A  A9 7F     LDA #$7F                        A:6A X:33 Y:C0 P:A5 SP:FB CYC:  0
D66C  8D 78 06  STA $0678 = 69                  A:7F X:33 Y:C0 P:25 SP:FB CYC:  0
D66F  20 51 F8  JSR $F851                       A:7F X:33 Y:C0 P:25 SP:FB CYC:  0
F851  38        SEC                             A:7F X:33 Y:C0 P:25 SP:F9 CYC:  0
F852  B8        CLV                             A:7F X:33 Y:C0 P:25 SP:F9 CYC:  0
F853  A9 7F     LDA #$7F                        A:7F X:33 Y:C0 P:25 SP:F9 CYC:  0
F855  60        RTS                             A:7F X:33 Y:C0 P:25 SP:F9 CYC:  0
D672  6D 78 06  ADC $0678 = 7F                  A:7F X:33 Y:C0 P:25 SP:FB CYC:  0
D675  20 56 F8  JSR $F856                       A:FF X:33 Y:C0 P:E4 SP:FB CYC:  0
F856  10 09     BPL $F861                       A:FF X:33 Y:C0 P:E4 SP:F9 CYC:  0
F858  B0 07     BCS $F861                       A:FF X:33 Y:C0 P:E4 SP:F9 CYC:  0
F85A  C9 FF     CMP #$FF                        A:FF X:33 Y:C0 P:E4 SP:F9 CYC:  0
F85C  D0 03     BNE $F861                       A:FF X:33 Y:C0 P:67 SP:F9 CYC:  0
F85E  50 01     BVC $F861                       A:FF X:33 Y:C0 P:67 SP:F9 CYC:  0
F860  60        RTS                             A:FF X:33 Y:C0 P:67 SP:F9 CYC:  0
D678  C8        INY                             A:FF X:33 Y:C0 P:67 SP:FB CYC:  0
D679  A9 80     LDA #$80                        A:FF X:33 Y:C1 P:E5 SP:FB CYC:  0
D67B  8D 78 06  STA $0678 = 7F                  A:80 X:33 Y:C1 P:E5 SP:FB CYC:  0
D67E  20 64 F8  JSR $F864                       A:80 X:33 Y:C1 P:E5 SP:FB CYC:  0
F864  18        CLC                             A:80 X:33 Y:C1 P:E5 SP:F9 CYC:  0
F865  24 01     BIT $01 = FF                    A:80 X:33 Y:C1 P:E4 SP:F9 CYC:  0
F867  A9 7F     LDA #$7F                        A:80 X:33 Y:C1 P:E4 SP:F9 CYC:  0
F869  60        RTS                             A:7F X:33 Y:C1 P:64 SP:F9 CYC:  0
D681  6D 78 06  ADC $0678 = 80                  A:7F X:33 Y:C1 P:64 SP:FB CYC:  0
D684  20 6A F8  JSR $F86A                       A:FF X:33 Y:C1 P:A4 SP:FB CYC:  0
F86A  10 09     BPL $F875                       A:FF X:33 Y:C1 P:A4 SP:F9 CYC:  0
F86C  B0 07     BCS $F875                       A:FF X:33 Y:C1 P:A4 SP:F9 CYC:  0
F86E  C9 FF     CMP #$FF                        A:FF X:33 Y:C1 P:A4 SP:F9 CYC:  0
F870  D0 03     BNE $F875                       A:FF X:33 Y:C1 P:27 SP:F9 CYC:  0
F872  70 01     BVS $F875                       A:FF X:33 Y:C1 P:27 SP:F9 CYC:  0
F874  60        RTS                             A:FF X:33 Y:C1 P:27 SP:F9 CYC:  0
D687  C8        INY                             A:FF X:33 Y:C1 P:27 SP:FB CYC:  0
D688  20 78 F8  JSR $F878                       A:FF X:33 Y:C2 P:A5 SP:FB CYC:  0
F878  38        SEC                             A:FF X:33 Y:C2 P:A5 SP:F9 CYC:  0
F879  B8        CLV                             A:FF X:33 Y:C2 P:A5 SP:F9 CYC:  0
F87A  A9 7F     LDA #$7F                        A:FF X:33 Y:C2 P:A5 SP:F9 CYC:  0
F87C  60        RTS                             A:7F X:33 Y:C2 P:25 SP:F9 CYC:  0
D68B  6D 78 06  ADC $0678 = 80                  A:7F X:33 Y:C2 P:25 SP:FB CYC:  0
D68E  20 7D F8  JSR $F87D                       A:00 X:33 Y:C2 P:27 SP:FB CYC:  0
F87D  D0 07     BNE $F886                       A:00 X:33 Y:C2 P:27 SP:F9 CYC:  0
F87F  30 05     BMI $F886                       A:00 X:33 Y:C2 P:27 SP:F9 CYC:  0
F881  70 03     BVS $F886                       A:00 X:33 Y:C2 P:27 SP:F9 CYC:  0
F883  90 01     BCC $F886                       A:00 X:33 Y:C2 P:27 SP:F9 CYC:  0
F885  60        RTS                             A:00 X:33 Y:C2 P:27 SP:F9 CYC:  0
D691  C8        INY                             A:00 X:33 Y:C2 P:27 SP:FB CYC:  0
D692  A9 40     LDA #$40                        A:00 X:33 Y:C3 P:A5 SP:FB CYC:  0
D694  8D 78 06  STA $0678 = 80                  A:40 X:33 Y:C3 P:25 SP:FB CYC:  0
D697  20 89 F8  JSR $F889                       A:40 X:33 Y:C3 P:25 SP:FB CYC:  0
F889  24 01     BIT $01 = FF                    A:40 X:33 Y:C3 P:25 SP:F9 CYC:  0
F88B  A9 40     LDA #$40                        A:40 X:33 Y:C3 P:E5 SP:F9 CYC:  0
F88D  60        RTS                             A:40 X:33 Y:C3 P:65 SP:F9 CYC:  0
D69A  CD 78 06  CMP $0678 = 40                  A:40 X:33 Y:C3 P:65 SP:FB CYC:  0
D69D  20 8E F8  JSR $F88E                       A:40 X:33 Y:C3 P:67 SP:FB CYC:  0
F88E  30 07     BMI $F897                       A:40 X:33 Y:C3 P:67 SP:F9 CYC:  0
F890  90 05     BCC $F897                       A:40 X:33 Y:C3 P:67 SP:F9 CYC:  0
F892  D0 03     BNE $F897                       A:40 X:33 Y:C3 P:67 SP:F9 CYC:  0
F894  50 01     BVC $F897                       A:40 X:33 Y:C3 P:67 SP:F9 CYC:  0
F896  60        RTS                             A:40 X:33 Y:C3 P:67 SP:F9 CYC:  0
D6A0  C8        INY                             A:40 X:33 Y:C3 P:67 SP:FB CYC:  0
D6A1  48        PHA                             A:40 X:33 Y:C4 P:E5 SP:FB CYC:  0
D6A2  A9 3F     LDA #$3F                        A:40 X:33 Y:C4 P:E5 SP:FA CYC:  0
D6A4  8D 78 06  STA $0678 = 40                  A:3F X:33 Y:C4 P:65 SP:FA CYC:  0
D6A7  68        PLA                             A:3F X:33 Y:C4 P:65 SP:FA CYC:  0
D6A8  20 9A F8  JSR $F89A                       A:40 X:33 Y:C4 P:65 SP:FB CYC:  0
F89A  B8        CLV                             A:40 X:33 Y:C4 P:65 SP:F9 CYC:  0
F89B  60        RTS                             A:40 X:33 Y:C4 P:25 SP:F9 CYC:  0
D6AB  CD 78 06  CMP $0678 = 3F                  A:40 X:33 Y:C4 P:25 SP:FB CYC:  0
D6AE  20 9C F8  JSR $F89C                       A:40 X:33 Y:C4 P:25 SP:FB CYC:  0
F89C  F0 07     BEQ $F8A5                       A:40 X:33 Y:C4 P:25 SP:F9 CYC:  0
F89E  30 05     BMI $F8A5                       A:40 X:33 Y:C4 P:25 SP:F9 CYC:  0
F8A0  90 03     BCC $F8A5                       A:40 X:33 Y:C4 P:25 SP:F9 CYC:  0
F8A2  70 01     BVS $F8A5                       A:40 X:33 Y:C4 P:25 SP:F9 CYC:  0
F8A4  60        RTS                             A:40 X:33 Y:C4 P:25 SP:F9 CYC:  0
D6B1  C8        INY                             A:40 X:33 Y:C4 P:25 SP:FB CYC:  0
D6B2  48        PHA                             A:40 X:33 Y:C5 P:A5 SP:FB CYC:  0
D6B3  A9 41     LDA #$41                        A:40 X:33 Y:C5 P:A5 SP:FA CYC:  0
D6B5  8D 78 06  STA $0678 = 3F                  A:41 X:33 Y:C5 P:25 SP:FA CYC:  0
D6B8  68        PLA                             A:41 X:33 Y:C5 P:25 SP:FA CYC:  0
D6B9  CD 78 06  CMP $0678 = 41                  A:40 X:33 Y:C5 P:25 SP:FB CYC:  0
D6BC  20 A8 F8  JSR $F8A8                       A:40 X:33 Y:C5 P:A4 SP:FB CYC:  0
F8A8  F0 05     BEQ $F8AF                       A:40 X:33 Y:C5 P:A4 SP:F9 CYC:  0
F8AA  10 03     BPL $F8AF                       A:40 X:33 Y:C5 P:A4 SP:F9 CYC:  0
F8AC  10 01     BPL $F8AF                       A:40 X:33 Y:C5 P:A4 SP:F9 CYC:  0
F8AE  60        RTS                             A:40 X:33 Y:C5 P:A4 SP:F9 CYC:  0
D6BF  C8        INY                             A:40 X:33 Y:C5 P:A4 SP:FB CYC:  0
D6C0  48        PHA                             A:40 X:33 Y:C6 P:A4 SP:FB CYC:  0
D6C1  A9 00     LDA #$00                        A:40 X:33 Y:C6 P:A4 SP:FA CYC:  0
D6C3  8D 78 06  STA $0678 = 41                  A:00 X:33 Y:C6 P:26 SP:FA CYC:  0
D6C6  68        PLA                             A:00 X:33 Y:C6 P:26 SP:FA CYC:  0
D6C7  20 B2 F8  JSR $F8B2                       A:40 X:33 Y:C6 P:24 SP:FB CYC:  0
F8B2  A9 80     LDA #$80                        A:40 X:33 Y:C6 P:24 SP:F9 CYC:  0
F8B4  60        RTS                             A:80 X:33 Y:C6 P:A4 SP:F9 CYC:  0
D6CA  CD 78 06  CMP $0678 = 00                  A:80 X:33 Y:C6 P:A4 SP:FB CYC:  0
D6CD  20 B5 F8  JSR $F8B5                       A:80 X:33 Y:C6 P:A5 SP:FB CYC:  0
F8B5  F0 05     BEQ $F8BC                       A:80 X:33 Y:C6 P:A5 SP:F9 CYC:  0
F8B7  10 03     BPL $F8BC                       A:80 X:33 Y:C6 P:A5 SP:F9 CYC:  0
F8B9  90 01     BCC $F8BC                       A:80 X:33 Y:C6 P:A5 SP:F9 CYC:  0
F8BB  60        RTS                             A:80 X:33 Y:C6 P:A5 SP:F9 CYC:  0
D6D0  C8        INY                             A:80 X:33 Y:C6 P:A5 SP:FB CYC:  0
D6D1  48        PHA                             A:80 X:33 Y:C7 P:A5 SP:FB CYC:  0
D6D2  A9 80     LDA #$80                        A:80 X:33 Y:C7 P:A5 SP:FA CYC:  0
D6D4  8D 78 06  STA $0678 = 00                  A:80 X:33 Y:C7 P:A5 SP:FA CYC:  0
D6D7  68        PLA                             A:80 X:33 Y:C7 P:A5 SP:FA CYC:  0
D6D8  CD 78 06  CMP $0678 = 80                  A:80 X:33 Y:C7 P:A5 SP:FB CYC:  0
D6DB  20 BF F8  JSR $F8BF                       A:80 X:33 Y:C7 P:27 SP:FB CYC:  0
F8BF  D0 05     BNE $F8C6                       A:80 X:33 Y:C7 P:27 SP:F9 CYC:  0
F8C1  30 03     BMI $F8C6                       A:80 X:33 Y:C7 P:27 SP:F9 CYC:  0
F8C3  90 01     BCC $F8C6                       A:80 X:33 Y:C7 P:27 SP:F9 CYC:  0
F8C5  60        RTS                             A:80 X:33 Y:C7 P:27 SP:F9 CYC:  0
D6DE  C8        INY                             A:80 X:33 Y:C7 P:27 SP:FB CYC:  0
D6DF  48        PHA                             A:80 X:33 Y:C8 P:A5 SP:FB CYC:  0
D6E0  A9 81     LDA #$81                        A:80 X:33 Y:C8 P:A5 SP:FA CYC:  0
D6E2  8D 78 06  STA $0678 = 80                  A:81 X:33 Y:C8 P:A5 SP:FA CYC:  0
D6E5  68        PLA                             A:81 X:33 Y:C8 P:A5 SP:FA CYC:  0
D6E6  CD 78 06  CMP $0678 = 81                  A:80 X:33 Y:C8 P:A5 SP:FB CYC:  0
D6E9  20 C9 F8  JSR $F8C9                       A:80 X:33 Y:C8 P:A4 SP:FB CYC:  0
F8C9  B0 05     BCS $F8D0                       A:80 X:33 Y:C8 P:A4 SP:F9 CYC:  0
F8CB  F0 03     BEQ $F8D0                       A:80 X:33 Y:C8 P:A4 SP:F9 CYC:  0
F8CD  10 01     BPL $F8D0                       A:80 X:33 Y:C8 P:A4 SP:F9 CYC:  0
F8CF  60        RTS                             A:80 X:33 Y:C8 P:A4 SP:F9 CYC:  0
D6EC  C8        INY                             A:80 X:33 Y:C8 P:A4 SP:FB CYC:  0
D6ED  48        PHA                             A:80 X:33 Y:C9 P:A4 SP:FB CYC:  0
D6EE  A9 7F     LDA #$7F                        A:80 X:33 Y:C9 P:A4 SP:FA CYC:  0
D6F0  8D 78 06  STA $0678 = 81                  A:7F X:33 Y:C9 P:24 SP:FA CYC:  0
D6F3  68        PLA                             A:7F X:33 Y:C9 P:24 SP:FA CYC:  0
D6F4  CD 78 06  CMP $0678 = 7F                  A:80 X:33 Y:C9 P:A4 SP:FB CYC:  0
D6F7  20 D3 F8  JSR $F8D3                       A:80 X:33 Y:C9 P:25 SP:FB CYC:  0
F8D3  90 05     BCC $F8DA                       A:80 X:33 Y:C9 P:25 SP:F9 CYC:  0
F8D5  F0 03     BEQ $F8DA                       A:80 X:33 Y:C9 P:25 SP:F9 CYC:  0
F8D7  30 01     BMI $F8DA                       A:80 X:33 Y:C9 P:25 SP:F9 CYC:  0
F8D9  60        RTS                             A:80 X:33 Y:C9 P:25 SP:F9 CYC:  0
D6FA  C8        INY                             A:80 X:33 Y:C9 P:25 SP:FB CYC:  0
D6FB  A9 40     LDA #$40                        A:80 X:33 Y:CA P:A5 SP:FB CYC:  0
D6FD  8D 78 06  STA $0678 = 7F                  A:40 X:33 Y:CA P:25 SP:FB CYC:  0
D700  20 31 F9  JSR $F931                       A:40 X:33 Y:CA P:25 SP:FB CYC:  0
F931  24 01     BIT $01 = FF                    A:40 X:33 Y:CA P:25 SP:F9 CYC:  0
F933  A9 40     LDA #$40                        A:40 X:33 Y:CA P:E5 SP:F9 CYC:  0
F935  38        SEC                             A:40 X:33 Y:CA P:65 SP:F9 CYC:  0
F936  60        RTS                             A:40 X:33 Y:CA P:65 SP:F9 CYC:  0
D703  ED 78 06  SBC $0678 = 40                  A:40 X:33 Y:CA P:65 SP:FB CYC:  0
D706  20 37 F9  JSR $F937                       A:00 X:33 Y:CA P:27 SP:FB CYC:  0
F937  30 0B     BMI $F944                       A:00 X:33 Y:CA P:27 SP:F9 CYC:  0
F939  90 09     BCC $F944                       A:00 X:33 Y:CA P:27 SP:F9 CYC:  0
F93B  D0 07     BNE $F944                       A:00 X:33 Y:CA P:27 SP:F9 CYC:  0
F93D  70 05     BVS $F944                       A:00 X:33 Y:CA P:27 SP:F9 CYC:  0
F93F  C9 00     CMP #$00                        A:00 X:33 Y:CA P:27 SP:F9 CYC:  0
F941  D0 01     BNE $F944                       A:00 X:33 Y:CA P:27 SP:F9 CYC:  0
F943  60        RTS                             A:00 X:33 Y:CA P:27 SP:F9 CYC:  0
D709  C8        INY                             A:00 X:33 Y:CA P:27 SP:FB CYC:  0
D70A  A9 3F     LDA #$3F                        A:00 X:33 Y:CB P:A5 SP:FB CYC:  0
D70C  8D 78 06  STA $0678 = 40                  A:3F X:33 Y:CB P:25 SP:FB CYC:  0
D70F  20 47 F9  JSR $F947                       A:3F X:33 Y:CB P:25 SP:FB CYC:  0
F947  B8        CLV                             A:3F X:33 Y:CB P:25 SP:F9 CYC:  0
F948  38        SEC                             A:3F X:33 Y:CB P:25 SP:F9 CYC:  0
F949  A9 40     LDA #$40                        A:3F X:33 Y:CB P:25 SP:F9 CYC:  0
F94B  60        RTS                             A:40 X:33 Y:CB P:25 SP:F9 CYC:  0
D712  ED 78 06  SBC $0678 = 3F                  A:40 X:33 Y:CB P:25 SP:FB CYC:  0
D715  20 4C F9  JSR $F94C                       A:01 X:33 Y:CB P:25 SP:FB CYC:  0
F94C  F0 0B     BEQ $F959                       A:01 X:33 Y:CB P:25 SP:F9 CYC:  0
F94E  30 09     BMI $F959                       A:01 X:33 Y:CB P:25 SP:F9 CYC:  0
F950  90 07     BCC $F959                       A:01 X:33 Y:CB P:25 SP:F9 CYC:  0
F952  70 05     BVS $F959                       A:01 X:33 Y:CB P:25 SP:F9 CYC:  0
F954  C9 01     CMP #$01                        A:01 X:33 Y:CB P:25 SP:F9 CYC:  0
F956  D0 01     BNE $F959                       A:01 X:33 Y:CB P:27 SP:F9 CYC:  0
F958  60        RTS                             A:01 X:33 Y:CB P:27 SP:F9 CYC:  0
D718  C8        INY                             A:01 X:33 Y:CB P:27 SP:FB CYC:  0
D719  A9 41     LDA #$41                        A:01 X:33 Y:CC P:A5 SP:FB CYC:  0
D71B  8D 78 06  STA $0678 = 3F                  A:41 X:33 Y:CC P:25 SP:FB CYC:  0
D71E  20 5C F9  JSR $F95C                       A:41 X:33 Y:CC P:25 SP:FB CYC:  0
F95C  A9 40     LDA #$40                        A:41 X:33 Y:CC P:25 SP:F9 CYC:  0
F95E  38        SEC                             A:40 X:33 Y:CC P:25 SP:F9 CYC:  0
F95F  24 01     BIT $01 = FF                    A:40 X:33 Y:CC P:25 SP:F9 CYC:  0
F961  60        RTS                             A:40 X:33 Y:CC P:E5 SP:F9 CYC:  0
D721  ED 78 06  SBC $0678 = 41                  A:40 X:33 Y:CC P:E5 SP:FB CYC:  0
D724  20 62 F9  JSR $F962                       A:FF X:33 Y:CC P:A4 SP:FB CYC:  0
F962  B0 0B     BCS $F96F                       A:FF X:33 Y:CC P:A4 SP:F9 CYC:  0
F964  F0 09     BEQ $F96F                       A:FF X:33 Y:CC P:A4 SP:F9 CYC:  0
F966  10 07     BPL $F96F                       A:FF X:33 Y:CC P:A4 SP:F9 CYC:  0
F968  70 05     BVS $F96F                       A:FF X:33 Y:CC P:A4 SP:F9 CYC:  0
F96A  C9 FF     CMP #$FF                        A:FF X:33 Y:CC P:A4 SP:F9 CYC:  0
F96C  D0 01     BNE $F96F                       A:FF X:33 Y:CC P:27 SP:F9 CYC:  0
F96E  60        RTS                             A:FF X:33 Y:CC P:27 SP:F9 CYC:  0
D727  C8        INY                             A:FF X:33 Y:CC P:27 SP:FB CYC:  0
D728  A9 00     LDA #$00                        A:FF X:33 Y:CD P:A5 SP:FB CYC:  0
D72A  8D 78 06  STA $0678 = 41                  A:00 X:33 Y:CD P:27 SP:FB CYC:  0
D72D  20 72 F9  JSR $F972                       A:00 X:33 Y:CD P:27 SP:FB CYC:  0
F972  18        CLC                             A:00 X:33 Y:CD P:27 SP:F9 CYC:  0
F973  A9 80     LDA #$80                        A:00 X:33 Y:CD P:26 SP:F9 CYC:  0
F975  60        RTS                             A:80 X:33 Y:CD P:A4 SP:F9 CYC:  0
D730  ED 78 06  SBC $0678 = 00                  A:80 X:33 Y:CD P:A4 SP:FB CYC:  0
D733  20 76 F9  JSR $F976                       A:7F X:33 Y:CD P:65 SP:FB CYC:  0
F976  90 05     BCC $F97D                       A:7F X:33 Y:CD P:65 SP:F9 CYC:  0
F978  C9 7F     CMP #$7F                        A:7F X:33 Y:CD P:65 SP:F9 CYC:  0
F97A  D0 01     BNE $F97D                       A:7F X:33 Y:CD P:67 SP:F9 CYC:  0
F97C  60        RTS                             A:7F X:33 Y:CD P:67 SP:F9 CYC:  0
D736  C8        INY                             A:7F X:33 Y:CD P:67 SP:FB CYC:  0
D737  A9 7F     LDA #$7F                        A:7F X:33 Y:CE P:E5 SP:FB CYC:  0
D739  8D 78 06  STA $0678 = 00                  A:7F X:33 Y:CE P:65 SP:FB CYC:  0
D73C  20 80 F9  JSR $F980                       A:7F X:33 Y:CE P:65 SP:FB CYC:  0
F980  38        SEC                             A:7F X:33 Y:CE P:65 SP:F9 CYC:  0
F981  A9 81     LDA #$81                        A:7F X:33 Y:CE P:65 SP:F9 CYC:  0
F983  60        RTS                             A:81 X:33 Y:CE P:E5 SP:F9 CYC:  0
D73F  ED 78 06  SBC $0678 = 7F                  A:81 X:33 Y:CE P:E5 SP:FB CYC:  0
D742  20 84 F9  JSR $F984                       A:02 X:33 Y:CE P:65 SP:FB CYC:  0
F984  50 07     BVC $F98D                       A:02 X:33 Y:CE P:65 SP:F9 CYC:  0
F986  90 05     BCC $F98D                       A:02 X:33 Y:CE P:65 SP:F9 CYC:  0
F988  C9 02     CMP #$02                        A:02 X:33 Y:CE P:65 SP:F9 CYC:  0
F98A  D0 01     BNE $F98D                       A:02 X:33 Y:CE P:67 SP:F9 CYC:  0
F98C  60        RTS                             A:02 X:33 Y:CE P:67 SP:F9 CYC:  0
D745  C8        INY                             A:02 X:33 Y:CE P:67 SP:FB CYC:  0
D746  A9 40     LDA #$40                        A:02 X:33 Y:CF P:E5 SP:FB CYC:  0
D748  8D 78 06  STA $0678 = 7F                  A:40 X:33 Y:CF P:65 SP:FB CYC:  0
D74B  20 89 F8  JSR $F889                       A:40 X:33 Y:CF P:65 SP:FB CYC:  0
F889  24 01     BIT $01 = FF                    A:40 X:33 Y:CF P:65 SP:F9 CYC:  0
F88B  A9 40     LDA #$40                        A:40 X:33 Y:CF P:E5 SP:F9 CYC:  0
F88D  60        RTS                             A:40 X:33 Y:CF P:65 SP:F9 CYC:  0
D74E  AA        TAX                             A:40 X:33 Y:CF P:65 SP:FB CYC:  0
D74F  EC 78 06  CPX $0678 = 40                  A:40 X:40 Y:CF P:65 SP:FB CYC:  0
D752  20 8E F8  JSR $F88E                       A:40 X:40 Y:CF P:67 SP:FB CYC:  0
F88E  30 07     BMI $F897                       A:40 X:40 Y:CF P:67 SP:F9 CYC:  0
F890  90 05     BCC $F897                       A:40 X:40 Y:CF P:67 SP:F9 CYC:  0
F892  D0 03     BNE $F897                       A:40 X:40 Y:CF P:67 SP:F9 CYC:  0
F894  50 01     BVC $F897                       A:40 X:40 Y:CF P:67 SP:F9 CYC:  0
F896  60        RTS                             A:40 X:40 Y:CF P:67 SP:F9 CYC:  0
D755  C8        INY                             A:40 X:40 Y:CF P:67 SP:FB CYC:  0
D756  A9 3F     LDA #$3F                        A:40 X:40 Y:D0 P:E5 SP:FB CYC:  0
D758  8D 78 06  STA $0678 = 40                  A:3F X:40 Y:D0 P:65 SP:FB CYC:  0
D75B  20 9A F8  JSR $F89A                       A:3F X:40 Y:D0 P:65 SP:FB CYC:  0
F89A  B8        CLV                             A:3F X:40 Y:D0 P:65 SP:F9 CYC:  0
F89B  60        RTS                             A:3F X:40 Y:D0 P:25 SP:F9 CYC:  0
D75E  EC 78 06  CPX $0678 = 3F                  A:3F X:40 Y:D0 P:25 SP:FB CYC:  0
D761  20 9C F8  JSR $F89C                       A:3F X:40 Y:D0 P:25 SP:FB CYC:  0
F89C  F0 07     BEQ $F8A5                       A:3F X:40 Y:D0 P:25 SP:F9 CYC:  0
F89E  30 05     BMI $F8A5                       A:3F X:40 Y:D0 P:25 SP:F9 CYC:  0
F8A0  90 03     BCC $F8A5                       A:3F X:40 Y:D0 P:25 SP:F9 CYC:  0
F8A2  70 01     BVS $F8A5                       A:3F X:40 Y:D0 P:25 SP:F9 CYC:  0
F8A4  60        RTS                             A:3F X:40 Y:D0 P:25 SP:F9 CYC:  0
D764  C8        INY                             A:3F X:40 Y:D0 P:25 SP:FB CYC:  0
D765  A9 41     LDA #$41                        A:3F X:40 Y:D1 P:A5 SP:FB CYC:  0
D767  8D 78 06  STA $0678 = 3F                  A:41 X:40 Y:D1 P:25 SP:FB CYC:  0
D76A  EC 78 06  CPX $0678 = 41                  A:41 X:40 Y:D1 P:25 SP:FB CYC:  0
D76D  20 A8 F8  JSR $F8A8                       A:41 X:40 Y:D1 P:A4 SP:FB CYC:  0
F8A8  F0 05     BEQ $F8AF                       A:41 X:40 Y:D1 P:A4 SP:F9 CYC:  0
F8AA  10 03     BPL $F8AF                       A:41 X:40 Y:D1 P:A4 SP:F9 CYC:  0
F8AC  10 01     BPL $F8AF                       A:41 X:40 Y:D1 P:A4 SP:F9 CYC:  0
F8AE  60        RTS                             A:41 X:40 Y:D1 P:A4 SP:F9 CYC:  0
D770  C8        INY                             A:41 X:40 Y:D1 P:A4 SP:FB CYC:  0
D771  A9 00     LDA #$00                        A:41 X:40 Y:D2 P:A4 SP:FB CYC:  0
D773  8D 78 06  STA $0678 = 41                  A:00 X:40 Y:D2 P:26 SP:FB CYC:  0
D776  20 B2 F8  JSR $F8B2                       A:00 X:40 Y:D2 P:26 SP:FB CYC:  0
F8B2  A9 80     LDA #$80                        A:00 X:40 Y:D2 P:26 SP:F9 CYC:  0
F8B4  60        RTS                             A:80 X:40 Y:D2 P:A4 SP:F9 CYC:  0
D779  AA        TAX                             A:80 X:40 Y:D2 P:A4 SP:FB CYC:  0
D77A  EC 78 06  CPX $0678 = 00                  A:80 X:80 Y:D2 P:A4 SP:FB CYC:  0
D77D  20 B5 F8  JSR $F8B5                       A:80 X:80 Y:D2 P:A5 SP:FB CYC:  0
F8B5  F0 05     BEQ $F8BC                       A:80 X:80 Y:D2 P:A5 SP:F9 CYC:  0
F8B7  10 03     BPL $F8BC                       A:80 X:80 Y:D2 P:A5 SP:F9 CYC:  0
F8B9  90 01     BCC $F8BC                       A:80 X:80 Y:D2 P:A5 SP:F9 CYC:  0
F8BB  60        RTS                             A:80 X:80 Y:D2 P:A5 SP:F9 CYC:  0
D780  C8        INY                             A:80 X:80 Y:D2 P:A5 SP:FB CYC:  0
D781  A9 80     LDA #$80                        A:80 X:80 Y:D3 P:A5 SP:FB CYC:  0
D783  8D 78 06  STA $0678 = 00                  A:80 X:80 Y:D3 P:A5 SP:FB CYC:  0
D786  EC 78 06  CPX $0678 = 80                  A:80 X:80 Y:D3 P:A5 SP:FB CYC:  0
D789  20 BF F8  JSR $F8BF                       A:80 X:80 Y:D3 P:27 SP:FB CYC:  0
F8BF  D0 05     BNE $F8C6                       A:80 X:80 Y:D3 P:27 SP:F9 CYC:  0
F8C1  30 03     BMI $F8C6                       A:80 X:80 Y:D3 P:27 SP:F9 CYC:  0
F8C3  90 01     BCC $F8C6                       A:80 X:80 Y:D3 P:27 SP:F9 CYC:  0
F8C5  60        RTS                             A:80 X:80 Y:D3 P:27 SP:F9 CYC:  0
D78C  C8        INY                             A:80 X:80 Y:D3 P:27 SP:FB CYC:  0
D78D  A9 81     LDA #$81                        A:80 X:80 Y:D4 P:A5 SP:FB CYC:  0
D78F  8D 78 06  STA $0678 = 80                  A:81 X:80 Y:D4 P:A5 SP:FB CYC:  0
D792  EC 78 06  CPX $0678 = 81                  A:81 X:80 Y:D4 P:A5 SP:FB CYC:  0
D795  20 C9 F8  JSR $F8C9                       A:81 X:80 Y:D4 P:A4 SP:FB CYC:  0
F8C9  B0 05     BCS $F8D0                       A:81 X:80 Y:D4 P:A4 SP:F9 CYC:  0
F8CB  F0 03     BEQ $F8D0                       A:81 X:80 Y:D4 P:A4 SP:F9 CYC:  0
F8CD  10 01     BPL $F8D0                       A:81 X:80 Y:D4 P:A4 SP:F9 CYC:  0
F8CF  60        RTS                             A:81 X:80 Y:D4 P:A4 SP:F9 CYC:  0
D798  C8        INY                             A:81 X:80 Y:D4 P:A4 SP:FB CYC:  0
D799  A9 7F     LDA #$7F                        A:81 X:80 Y:D5 P:A4 SP:FB CYC:  0
D79B  8D 78 06  STA $0678 = 81                  A:7F X:80 Y:D5 P:24 SP:FB CYC:  0
D79E  EC 78 06  CPX $0678 = 7F                  A:7F X:80 Y:D5 P:24 SP:FB CYC:  0
D7A1  20 D3 F8  JSR $F8D3                       A:7F X:80 Y:D5 P:25 SP:FB CYC:  0
F8D3  90 05     BCC $F8DA                       A:7F X:80 Y:D5 P:25 SP:F9 CYC:  0
F8D5  F0 03     BEQ $F8DA                       A:7F X:80 Y:D5 P:25 SP:F9 CYC:  0
F8D7  30 01     BMI $F8DA                       A:7F X:80 Y:D5 P:25 SP:F9 CYC:  0
F8D9  60        RTS                             A:7F X:80 Y:D5 P:25 SP:F9 CYC:  0
D7A4  C8        INY                             A:7F X:80 Y:D5 P:25 SP:FB CYC:  0
D7A5  98        TYA                             A:7F X:80 Y:D6 P:A5 SP:FB CYC:  0
D7A6  AA        TAX                             A:D6 X:80 Y:D6 P:A5 SP:FB CYC:  0
D7A7  A9 40     LDA #$40                        A:D6 X:D6 Y:D6 P:A5 SP:FB CYC:  0
D7A9  8D 78 06  STA $0678 = 7F                  A:40 X:D6 Y:D6 P:25 SP:FB CYC:  0
D7AC  20 DD F8  JSR $F8DD                       A:40 X:D6 Y:D6 P:25 SP:FB CYC:  0
F8DD  24 01     BIT $01 = FF                    A:40 X:D6 Y:D6 P:25 SP:F9 CYC:  0
F8DF  A0 40     LDY #$40                        A:40 X:D6 Y:D6 P:E5 SP:F9 CYC:  0
F8E1  60        RTS                             A:40 X:D6 Y:40 P:65 SP:F9 CYC:  0
D7AF  CC 78 06  CPY $0678 = 40                  A:40 X:D6 Y:40 P:65 SP:FB CYC:  0
D7B2  20 E2 F8  JSR $F8E2                       A:40 X:D6 Y:40 P:67 SP:FB CYC:  0
F8E2  30 07     BMI $F8EB                       A:40 X:D6 Y:40 P:67 SP:F9 CYC:  0
F8E4  90 05     BCC $F8EB                       A:40 X:D6 Y:40 P:67 SP:F9 CYC:  0
F8E6  D0 03     BNE $F8EB                       A:40 X:D6 Y:40 P:67 SP:F9 CYC:  0
F8E8  50 01     BVC $F8EB                       A:40 X:D6 Y:40 P:67 SP:F9 CYC:  0
F8EA  60        RTS                             A:40 X:D6 Y:40 P:67 SP:F9 CYC:  0
D7B5  E8        INX                             A:40 X:D6 Y:40 P:67 SP:FB CYC:  0
D7B6  A9 3F     LDA #$3F                        A:40 X:D7 Y:40 P:E5 SP:FB CYC:  0
D7B8  8D 78 06  STA $0678 = 40                  A:3F X:D7 Y:40 P:65 SP:FB CYC:  0
D7BB  20 EE F8  JSR $F8EE                       A:3F X:D7 Y:40 P:65 SP:FB CYC:  0
F8EE  B8        CLV                             A:3F X:D7 Y:40 P:65 SP:F9 CYC:  0
F8EF  60        RTS                             A:3F X:D7 Y:40 P:25 SP:F9 CYC:  0
D7BE  CC 78 06  CPY $0678 = 3F                  A:3F X:D7 Y:40 P:25 SP:FB CYC:  0
D7C1  20 F0 F8  JSR $F8F0                       A:3F X:D7 Y:40 P:25 SP:FB CYC:  0
F8F0  F0 07     BEQ $F8F9                       A:3F X:D7 Y:40 P:25 SP:F9 CYC:  0
F8F2  30 05     BMI $F8F9                       A:3F X:D7 Y:40 P:25 SP:F9 CYC:  0
F8F4  90 03     BCC $F8F9                       A:3F X:D7 Y:40 P:25 SP:F9 CYC:  0
F8F6  70 01     BVS $F8F9                       A:3F X:D7 Y:40 P:25 SP:F9 CYC:  0
F8F8  60        RTS                             A:3F X:D7 Y:40 P:25 SP:F9 CYC:  0
D7C4  E8        INX                             A:3F X:D7 Y:40 P:25 SP:FB CYC:  0
D7C5  A9 41     LDA #$41                        A:3F X:D8 Y:40 P:A5 SP:FB CYC:  0
D7C7  8D 78 06  STA $0678 = 3F                  A:41 X:D8 Y:40 P:25 SP:FB CYC:  0
D7CA  CC 78 06  CPY $0678 = 41                  A:41 X:D8 Y:40 P:25 SP:FB CYC:  0
D7CD  20 FC F8  JSR $F8FC                       A:41 X:D8 Y:40 P:A4 SP:FB CYC:  0
F8FC  F0 05     BEQ $F903                       A:41 X:D8 Y:40 P:A4 SP:F9 CYC:  0
F8FE  10 03     BPL $F903                       A:41 X:D8 Y:40 P:A4 SP:F9 CYC:  0
F900  10 01     BPL $F903                       A:41 X:D8 Y:40 P:A4 SP:F9 CYC:  0
F902  60        RTS                             A:41 X:D8 Y:40 P:A4 SP:F9 CYC:  0
D7D0  E8        INX                             A:41 X:D8 Y:40 P:A4 SP:FB CYC:  0
D7D1  A9 00     LDA #$00                        A:41 X:D9 Y:40 P:A4 SP:FB CYC:  0
D7D3  8D 78 06  STA $0678 = 41                  A:00 X:D9 Y:40 P:26 SP:FB CYC:  0
D7D6  20 06 F9  JSR $F906                       A:00 X:D9 Y:40 P:26 SP:FB CYC:  0
F906  A0 80     LDY #$80                        A:00 X:D9 Y:40 P:26 SP:F9 CYC:  0
F908  60        RTS                             A:00 X:D9 Y:80 P:A4 SP:F9 CYC:  0
D7D9  CC 78 06  CPY $0678 = 00                  A:00 X:D9 Y:80 P:A4 SP:FB CYC:  0
D7DC  20 09 F9  JSR $F909                       A:00 X:D9 Y:80 P:A5 SP:FB CYC:  0
F909  F0 05     BEQ $F910                       A:00 X:D9 Y:80 P:A5 SP:F9 CYC:  0
F90B  10 03     BPL $F910                       A:00 X:D9 Y:80 P:A5 SP:F9 CYC:  0
F90D  90 01     BCC $F910                       A:00 X:D9 Y:80 P:A5 SP:F9 CYC:  0
F90F  60        RTS                             A:00 X:D9 Y:80 P:A5 SP:F9 CYC:  0
D7DF  E8        INX                             A:00 X:D9 Y:80 P:A5 SP:FB CYC:  0
D7E0  A9 80     LDA #$80                        A:00 X:DA Y:80 P:A5 SP:FB CYC:  0
D7E2  8D 78 06  STA $0678 = 00                  A:80 X:DA Y:80 P:A5 SP:FB CYC:  0
D7E5  CC 78 06  CPY $0678 = 80                  A:80 X:DA Y:80 P:A5 SP:FB CYC:  0
D7E8  20 13 F9  JSR $F913                       A:80 X:DA Y:80 P:27 SP:FB CYC:  0
F913  D0 05     BNE $F91A                       A:80 X:DA Y:80 P:27 SP:F9 CYC:  0
F915  30 03     BMI $F91A                       A:80 X:DA Y:80 P:27 SP:F9 CYC:  0
F917  90 01     BCC $F91A                       A:80 X:DA Y:80 P:27 SP:F9 CYC:  0
F919  60        RTS                             A:80 X:DA Y:80 P:27 SP:F9 CYC:  0
D7EB  E8        INX                             A:80 X:DA Y:80 P:27 SP:FB CYC:  0
D7EC  A9 81     LDA #$81                        A:80 X:DB Y:80 P:A5 SP:FB CYC:  0
D7EE  8D 78 06  STA $0678 = 80                  A:81 X:DB Y:80 P:A5 SP:FB CYC:  0
D7F1  CC 78 06  CPY $0678 = 81                  A:81 X:DB Y:80 P:A5 SP:FB CYC:  0
D7F4  20 1D F9  JSR $F91D                       A:81 X:DB Y:80 P:A4 SP:FB CYC:  0
F91D  B0 05     BCS $F924                       A:81 X:DB Y:80 P:A4 SP:F9 CYC:  0
F91F  F0 03     BEQ $F924                       A:81 X:DB Y:80 P:A4 SP:F9 CYC:  0
F921  10 01     BPL $F924                       A:81 X:DB Y:80 P:A4 SP:F9 CYC:  0
F923  60        RTS                             A:81 X:DB Y:80 P:A4 SP:F9 CYC:  0
D7F7  E8        INX                             A:81 X:DB Y:80 P:A4 SP:FB CYC:  0
D7F8  A9 7F     LDA #$7F                        A:81 X:DC Y:80 P:A4 SP:FB CYC:  0
D7FA  8D 78 06  STA $0678 = 81                  A:7F X:DC Y:80 P:24 SP:FB CYC:  0
D7FD  CC 78 06  CPY $0678 = 7F                  A:7F X:DC Y:80 P:24 SP:FB CYC:  0
D800  20 27 F9  JSR $F927                       A:7F X:DC Y:80 P:25 SP:FB CYC:  0
F927  90 05     BCC $F92E                       A:7F X:DC Y:80 P:25 SP:F9 CYC:  0
F929  F0 03     BEQ $F92E                       A:7F X:DC Y:80 P:25 SP:F9 CYC:  0
F92B  30 01     BMI $F92E                       A:7F X:DC Y:80 P:25 SP:F9 CYC:  0
F92D  60        RTS                             A:7F X:DC Y:80 P:25 SP:F9 CYC:  0
D803  E8        INX                             A:7F X:DC Y:80 P:25 SP:FB CYC:  0
D804  8A        TXA                             A:7F X:DD Y:80 P:A5 SP:FB CYC:  0
D805  A8        TAY                             A:DD X:DD Y:80 P:A5 SP:FB CYC:  0
D806  20 90 F9  JSR $F990                       A:DD X:DD Y:DD P:A5 SP:FB CYC:  0
F990  A2 55     LDX #$55                        A:DD X:DD Y:DD P:A5 SP:F9 CYC:  0
F992  A9 FF     LDA #$FF                        A:DD X:55 Y:DD P:25 SP:F9 CYC:  0
F994  85 01     STA $01 = FF                    A:FF X:55 Y:DD P:A5 SP:F9 CYC:  0
F996  EA        NOP                             A:FF X:55 Y:DD P:A5 SP:F9 CYC:  0
F997  24 01     BIT $01 = FF                    A:FF X:55 Y:DD P:A5 SP:F9 CYC:  0
F999  38        SEC                             A:FF X:55 Y:DD P:E5 SP:F9 CYC:  0
F99A  A9 01     LDA #$01                        A:FF X:55 Y:DD P:E5 SP:F9 CYC:  0
F99C  60        RTS                             A:01 X:55 Y:DD P:65 SP:F9 CYC:  0
D809  8D 78 06  STA $0678 = 7F                  A:01 X:55 Y:DD P:65 SP:FB CYC:  0
D80C  4E 78 06  LSR $0678 = 01                  A:01 X:55 Y:DD P:65 SP:FB CYC:  0
D80F  AD 78 06  LDA $0678 = 00                  A:01 X:55 Y:DD P:67 SP:FB CYC:  0
D812  20 9D F9  JSR $F99D                       A:00 X:55 Y:DD P:67 SP:FB CYC:  0
F99D  90 1B     BCC $F9BA                       A:00 X:55 Y:DD P:67 SP:F9 CYC:  0
F99F  D0 19     BNE $F9BA                       A:00 X:55 Y:DD P:67 SP:F9 CYC:  0
F9A1  30 17     BMI $F9BA                       A:00 X:55 Y:DD P:67 SP:F9 CYC:  0
F9A3  50 15     BVC $F9BA                       A:00 X:55 Y:DD P:67 SP:F9 CYC:  0
F9A5  C9 00     CMP #$00                        A:00 X:55 Y:DD P:67 SP:F9 CYC:  0
F9A7  D0 11     BNE $F9BA                       A:00 X:55 Y:DD P:67 SP:F9 CYC:  0
F9A9  B8        CLV                             A:00 X:55 Y:DD P:67 SP:F9 CYC:  0
F9AA  A9 AA     LDA #$AA                        A:00 X:55 Y:DD P:27 SP:F9 CYC:  0
F9AC  60        RTS                             A:AA X:55 Y:DD P:A5 SP:F9 CYC:  0
D815  C8        INY                             A:AA X:55 Y:DD P:A5 SP:FB CYC:  0
D816  8D 78 06  STA $0678 = 00                  A:AA X:55 Y:DE P:A5 SP:FB CYC:  0
D819  4E 78 06  LSR $0678 = AA                  A:AA X:55 Y:DE P:A5 SP:FB CYC:  0
D81C  AD 78 06  LDA $0678 = 55                  A:AA X:55 Y:DE P:24 SP:FB CYC:  0
D81F  20 AD F9  JSR $F9AD                       A:55 X:55 Y:DE P:24 SP:FB CYC:  0
F9AD  B0 0B     BCS $F9BA                       A:55 X:55 Y:DE P:24 SP:F9 CYC:  0
F9AF  F0 09     BEQ $F9BA                       A:55 X:55 Y:DE P:24 SP:F9 CYC:  0
F9B1  30 07     BMI $F9BA                       A:55 X:55 Y:DE P:24 SP:F9 CYC:  0
F9B3  70 05     BVS $F9BA                       A:55 X:55 Y:DE P:24 SP:F9 CYC:  0
F9B5  C9 55     CMP #$55                        A:55 X:55 Y:DE P:24 SP:F9 CYC:  0
F9B7  D0 01     BNE $F9BA                       A:55 X:55 Y:DE P:27 SP:F9 CYC:  0
F9B9  60        RTS                             A:55 X:55 Y:DE P:27 SP:F9 CYC:  0
D822  C8        INY                             A:55 X:55 Y:DE P:27 SP:FB CYC:  0
D823  20 BD F9  JSR $F9BD                       A:55 X:55 Y:DF P:A5 SP:FB CYC:  0
F9BD  24 01     BIT $01 = FF                    A:55 X:55 Y:DF P:A5 SP:F9 CYC:  0
F9BF  38        SEC                             A:55 X:55 Y:DF P:E5 SP:F9 CYC:  0
F9C0  A9 80     LDA #$80                        A:55 X:55 Y:DF P:E5 SP:F9 CYC:  0
F9C2  60        RTS                             A:80 X:55 Y:DF P:E5 SP:F9 CYC:  0
D826  8D 78 06  STA $0678 = 55                  A:80 X:55 Y:DF P:E5 SP:FB CYC:  0
D829  0E 78 06  ASL $0678 = 80                  A:80 X:55 Y:DF P:E5 SP:FB CYC:  0
D82C  AD 78 06  LDA $0678 = 00                  A:80 X:55 Y:DF P:67 SP:FB CYC:  0
D82F  20 C3 F9  JSR $F9C3                       A:00 X:55 Y:DF P:67 SP:FB CYC:  0
F9C3  90 1C     BCC $F9E1                       A:00 X:55 Y:DF P:67 SP:F9 CYC:  0
F9C5  D0 1A     BNE $F9E1                       A:00 X:55 Y:DF P:67 SP:F9 CYC:  0
F9C7  30 18     BMI $F9E1                       A:00 X:55 Y:DF P:67 SP:F9 CYC:  0
F9C9  50 16     BVC $F9E1                       A:00 X:55 Y:DF P:67 SP:F9 CYC:  0
F9CB  C9 00     CMP #$00                        A:00 X:55 Y:DF P:67 SP:F9 CYC:  0
F9CD  D0 12     BNE $F9E1                       A:00 X:55 Y:DF P:67 SP:F9 CYC:  0
F9CF  B8        CLV                             A:00 X:55 Y:DF P:67 SP:F9 CYC:  0
F9D0  A9 55     LDA #$55                        A:00 X:55 Y:DF P:27 SP:F9 CYC:  0
F9D2  38        SEC                             A:55 X:55 Y:DF P:25 SP:F9 CYC:  0
F9D3  60        RTS                             A:55 X:55 Y:DF P:25 SP:F9 CYC:  0
D832  C8        INY                             A:55 X:55 Y:DF P:25 SP:FB CYC:  0
D833  8D 78 06  STA $0678 = 00                  A:55 X:55 Y:E0 P:A5 SP:FB CYC:  0
D836  0E 78 06  ASL $0678 = 55                  A:55 X:55 Y:E0 P:A5 SP:FB CYC:  0
D839  AD 78 06  LDA $0678 = AA                  A:55 X:55 Y:E0 P:A4 SP:FB CYC:  0
D83C  20 D4 F9  JSR $F9D4                       A:AA X:55 Y:E0 P:A4 SP:FB CYC:  0
F9D4  B0 0B     BCS $F9E1                       A:AA X:55 Y:E0 P:A4 SP:F9 CYC:  0
F9D6  F0 09     BEQ $F9E1                       A:AA X:55 Y:E0 P:A4 SP:F9 CYC:  0
F9D8  10 07     BPL $F9E1                       A:AA X:55 Y:E0 P:A4 SP:F9 CYC:  0
F9DA  70 05     BVS $F9E1                       A:AA X:55 Y:E0 P:A4 SP:F9 CYC:  0
F9DC  C9 AA     CMP #$AA                        A:AA X:55 Y:E0 P:A4 SP:F9 CYC:  0
F9DE  D0 01     BNE $F9E1                       A:AA X:55 Y:E0 P:27 SP:F9 CYC:  0
F9E0  60        RTS                             A:AA X:55 Y:E0 P:27 SP:F9 CYC:  0
D83F  C8        INY                             A:AA X:55 Y:E0 P:27 SP:FB CYC:  0
D840  20 E4 F9  JSR $F9E4                       A:AA X:55 Y:E1 P:A5 SP:FB CYC:  0
F9E4  24 01     BIT $01 = FF                    A:AA X:55 Y:E1 P:A5 SP:F9 CYC:  0
F9E6  38        SEC                             A:AA X:55 Y:E1 P:E5 SP:F9 CYC:  0
F9E7  A9 01     LDA #$01                        A:AA X:55 Y:E1 P:E5 SP:F9 CYC:  0
F9E9  60        RTS                             A:01 X:55 Y:E1 P:65 SP:F9 CYC:  0
D843  8D 78 06  STA $0678 = AA                  A:01 X:55 Y:E1 P:65 SP:FB CYC:  0
D846  6E 78 06  ROR $0678 = 01                  A:01 X:55 Y:E1 P:65 SP:FB CYC:  0
D849  AD 78 06  LDA $0678 = 80                  A:01 X:55 Y:E1 P:E5 SP:FB CYC:  0
D84C  20 EA F9  JSR $F9EA                       A:80 X:55 Y:E1 P:E5 SP:FB CYC:  0
F9EA  90 1C     BCC $FA08                       A:80 X:55 Y:E1 P:E5 SP:F9 CYC:  0
F9EC  F0 1A     BEQ $FA08                       A:80 X:55 Y:E1 P:E5 SP:F9 CYC:  0
F9EE  10 18     BPL $FA08                       A:80 X:55 Y:E1 P:E5 SP:F9 CYC:  0
F9F0  50 16     BVC $FA08                       A:80 X:55 Y:E1 P:E5 SP:F9 CYC:  0
F9F2  C9 80     CMP #$80                        A:80 X:55 Y:E1 P:E5 SP:F9 CYC:  0
F9F4  D0 12     BNE $FA08                       A:80 X:55 Y:E1 P:67 SP:F9 CYC:  0
F9F6  B8        CLV                             A:80 X:55 Y:E1 P:67 SP:F9 CYC:  0
F9F7  18        CLC                             A:80 X:55 Y:E1 P:27 SP:F9 CYC:  0
F9F8  A9 55     LDA #$55                        A:80 X:55 Y:E1 P:26 SP:F9 CYC:  0
F9FA  60        RTS                             A:55 X:55 Y:E1 P:24 SP:F9 CYC:  0
D84F  C8        INY                             A:55 X:55 Y:E1 P:24 SP:FB CYC:  0
D850  8D 78 06  STA $0678 = 80                  A:55 X:55 Y:E2 P:A4 SP:FB CYC:  0
D853  6E 78 06  ROR $0678 = 55                  A:55 X:55 Y:E2 P:A4 SP:FB CYC:  0
D856  AD 78 06  LDA $0678 = 2A                  A:55 X:55 Y:E2 P:25 SP:FB CYC:  0
D859  20 FB F9  JSR $F9FB                       A:2A X:55 Y:E2 P:25 SP:FB CYC:  0
F9FB  90 0B     BCC $FA08                       A:2A X:55 Y:E2 P:25 SP:F9 CYC:  0
F9FD  F0 09     BEQ $FA08                       A:2A X:55 Y:E2 P:25 SP:F9 CYC:  0
F9FF  30 07     BMI $FA08                       A:2A X:55 Y:E2 P:25 SP:F9 CYC:  0
FA01  70 05     BVS $FA08                       A:2A X:55 Y:E2 P:25 SP:F9 CYC:  0
FA03  C9 2A     CMP #$2A                        A:2A X:55 Y:E2 P:25 SP:F9 CYC:  0
FA05  D0 01     BNE $FA08                       A:2A X:55 Y:E2 P:27 SP:F9 CYC:  0
FA07  60        RTS                             A:2A X:55 Y:E2 P:27 SP:F9 CYC:  0
D85C  C8        INY                             A:2A X:55 Y:E2 P:27 SP:FB CYC:  0
D85D  20 0A FA  JSR $FA0A                       A:2A X:55 Y:E3 P:A5 SP:FB CYC:  0
FA0A  24 01     BIT $01 = FF                    A:2A X:55 Y:E3 P:A5 SP:F9 CYC:  0
FA0C  38        SEC                             A:2A X:55 Y:E3 P:E5 SP:F9 CYC:  0
FA0D  A9 80     LDA #$80                        A:2A X:55 Y:E3 P:E5 SP:F9 CYC:  0
FA0F  60        RTS                             A:80 X:55 Y:E3 P:E5 SP:F9 CYC:  0
D860  8D 78 06  STA $0678 = 2A                  A:80 X:55 Y:E3 P:E5 SP:FB CYC:  0
D863  2E 78 06  ROL $0678 = 80                  A:80 X:55 Y:E3 P:E5 SP:FB CYC:  0
D866  AD 78 06  LDA $0678 = 01                  A:80 X:55 Y:E3 P:65 SP:FB CYC:  0
D869  20 10 FA  JSR $FA10                       A:01 X:55 Y:E3 P:65 SP:FB CYC:  0
FA10  90 1C     BCC $FA2E                       A:01 X:55 Y:E3 P:65 SP:F9 CYC:  0
FA12  F0 1A     BEQ $FA2E                       A:01 X:55 Y:E3 P:65 SP:F9 CYC:  0
FA14  30 18     BMI $FA2E                       A:01 X:55 Y:E3 P:65 SP:F9 CYC:  0
FA16  50 16     BVC $FA2E                       A:01 X:55 Y:E3 P:65 SP:F9 CYC:  0
FA18  C9 01     CMP #$01                        A:01 X:55 Y:E3 P:65 SP:F9 CYC:  0
FA1A  D0 12     BNE $FA2E                       A:01 X:55 Y:E3 P:67 SP:F9 CYC:  0
FA1C  B8        CLV                             A:01 X:55 Y:E3 P:67 SP:F9 CYC:  0
FA1D  18        CLC                             A:01 X:55 Y:E3 P:27 SP:F9 CYC:  0
FA1E  A9 55     LDA #$55                        A:01 X:55 Y:E3 P:26 SP:F9 CYC:  0
FA20  60        RTS                             A:55 X:55 Y:E3 P:24 SP:F9 CYC:  0
D86C  C8        INY                             A:55 X:55 Y:E3 P:24 SP:FB CYC:  0
D86D  8D 78 06  STA $0678 = 01                  A:55 X:55 Y:E4 P:A4 SP:FB CYC:  0
D870  2E 78 06  ROL $0678 = 55                  A:55 X:55 Y:E4 P:A4 SP:FB CYC:  0
D873  AD 78 06  LDA $0678 = AA                  A:55 X:55 Y:E4 P:A4 SP:FB CYC:  0
D876  20 21 FA  JSR $FA21                       A:AA X:55 Y:E4 P:A4 SP:FB CYC:  0
FA21  B0 0B     BCS $FA2E                       A:AA X:55 Y:E4 P:A4 SP:F9 CYC:  0
FA23  F0 09     BEQ $FA2E                       A:AA X:55 Y:E4 P:A4 SP:F9 CYC:  0
FA25  10 07     BPL $FA2E                       A:AA X:55 Y:E4 P:A4 SP:F9 CYC:  0
FA27  70 05     BVS $FA2E                       A:AA X:55 Y:E4 P:A4 SP:F9 CYC:  0
FA29  C9 AA     CMP #$AA                        A:AA X:55 Y:E4 P:A4 SP:F9 CYC:  0
FA2B  D0 01     BNE $FA2E                       A:AA X:55 Y:E4 P:27 SP:F9 CYC:  0
FA2D  60        RTS                             A:AA X:55 Y:E4 P:27 SP:F9 CYC:  0
D879  A9 FF     LDA #$FF                        A:AA X:55 Y:E4 P:27 SP:FB CYC:  0
D87B  8D 78 06  STA $0678 = AA                  A:FF X:55 Y:E4 P:A5 SP:FB CYC:  0
D87E  85 01     STA $01 = FF                    A:FF X:55 Y:E4 P:A5 SP:FB CYC:  0
D880  24 01     BIT $01 = FF                    A:FF X:55 Y:E4 P:A5 SP:FB CYC:  0
D882  38        SEC                             A:FF X:55 Y:E4 P:E5 SP:FB CYC:  0
D883  EE 78 06  INC $0678 = FF                  A:FF X:55 Y:E4 P:E5 SP:FB CYC:  0
D886  D0 0D     BNE $D895                       A:FF X:55 Y:E4 P:67 SP:FB CYC:  0
D888  30 0B     BMI $D895                       A:FF X:55 Y:E4 P:67 SP:FB CYC:  0
D88A  50 09     BVC $D895                       A:FF X:55 Y:E4 P:67 SP:FB CYC:  0
D88C  90 07     BCC $D895                       A:FF X:55 Y:E4 P:67 SP:FB CYC:  0
D88E  AD 78 06  LDA $0678 = 00                  A:FF X:55 Y:E4 P:67 SP:FB CYC:  0
D891  C9 00     CMP #$00                        A:00 X:55 Y:E4 P:67 SP:FB CYC:  0
D893  F0 04     BEQ $D899                       A:00 X:55 Y:E4 P:67 SP:FB CYC:  0
D899  A9 7F     LDA #$7F                        A:00 X:55 Y:E4 P:67 SP:FB CYC:  0
D89B  8D 78 06  STA $0678 = 00                  A:7F X:55 Y:E4 P:65 SP:FB CYC:  0
D89E  B8        CLV                             A:7F X:55 Y:E4 P:65 SP:FB CYC:  0
D89F  18        CLC                             A:7F X:55 Y:E4 P:25 SP:FB CYC:  0
D8A0  EE 78 06  INC $0678 = 7F                  A:7F X:55 Y:E4 P:24 SP:FB CYC:  0
D8A3  F0 0D     BEQ $D8B2                       A:7F X:55 Y:E4 P:A4 SP:FB CYC:  0
D8A5  10 0B     BPL $D8B2                       A:7F X:55 Y:E4 P:A4 SP:FB CYC:  0
D8A7  70 09     BVS $D8B2                       A:7F X:55 Y:E4 P:A4 SP:FB CYC:  0
D8A9  B0 07     BCS $D8B2                       A:7F X:55 Y:E4 P:A4 SP:FB CYC:  0
D8AB  AD 78 06  LDA $0678 = 80                  A:7F X:55 Y:E4 P:A4 SP:FB CYC:  0
D8AE  C9 80     CMP #$80                        A:80 X:55 Y:E4 P:A4 SP:FB CYC:  0
D8B0  F0 04     BEQ $D8B6                       A:80 X:55 Y:E4 P:27 SP:FB CYC:  0
D8B6  A9 00     LDA #$00                        A:80 X:55 Y:E4 P:27 SP:FB CYC:  0
D8B8  8D 78 06  STA $0678 = 80                  A:00 X:55 Y:E4 P:27 SP:FB CYC:  0
D8BB  24 01     BIT $01 = FF                    A:00 X:55 Y:E4 P:27 SP:FB CYC:  0
D8BD  38        SEC                             A:00 X:55 Y:E4 P:E7 SP:FB CYC:  0
D8BE  CE 78 06  DEC $0678 = 00                  A:00 X:55 Y:E4 P:E7 SP:FB CYC:  0
D8C1  F0 0D     BEQ $D8D0                       A:00 X:55 Y:E4 P:E5 SP:FB CYC:  0
D8C3  10 0B     BPL $D8D0                       A:00 X:55 Y:E4 P:E5 SP:FB CYC:  0
D8C5  50 09     BVC $D8D0                       A:00 X:55 Y:E4 P:E5 SP:FB CYC:  0
D8C7  90 07     BCC $D8D0                       A:00 X:55 Y:E4 P:E5 SP:FB CYC:  0
D8C9  AD 78 06  LDA $0678 = FF                  A:00 X:55 Y:E4 P:E5 SP:FB CYC:  0
D8CC  C9 FF     CMP #$FF                        A:FF X:55 Y:E4 P:E5 SP:FB CYC:  0
D8CE  F0 04     BEQ $D8D4                       A:FF X:55 Y:E4 P:67 SP:FB CYC:  0
D8D4  A9 80     LDA #$80                        A:FF X:55 Y:E4 P:67 SP:FB CYC:  0
D8D6  8D 78 06  STA $0678 = FF                  A:80 X:55 Y:E4 P:E5 SP:FB CYC:  0
D8D9  B8        CLV                             A:80 X:55 Y:E4 P:E5 SP:FB CYC:  0
D8DA  18        CLC                             A:80 X:55 Y:E4 P:A5 SP:FB CYC:  0
D8DB  CE 78 06  DEC $0678 = 80                  A:80 X:55 Y:E4 P:A4 SP:FB CYC:  0
D8DE  F0 0D     BEQ $D8ED                       A:80 X:55 Y:E4 P:24 SP:FB CYC:  0
D8E0  30 0B     BMI $D8ED                       A:80 X:55 Y:E4 P:24 SP:FB CYC:  0
D8E2  70 09     BVS $D8ED                       A:80 X:55 Y:E4 P:24 SP:FB CYC:  0
D8E4  B0 07     BCS $D8ED                       A:80 X:55 Y:E4 P:24 SP:FB CYC:  0
D8E6  AD 78 06  LDA $0678 = 7F                  A:80 X:55 Y:E4 P:24 SP:FB CYC:  0
D8E9  C9 7F     CMP #$7F                        A:7F X:55 Y:E4 P:24 SP:FB CYC:  0
D8EB  F0 04     BEQ $D8F1                       A:7F X:55 Y:E4 P:27 SP:FB CYC:  0
D8F1  A9 01     LDA #$01                        A:7F X:55 Y:E4 P:27 SP:FB CYC:  0
D8F3  8D 78 06  STA $0678 = 7F                  A:01 X:55 Y:E4 P:25 SP:FB CYC:  0
D8F6  CE 78 06  DEC $0678 = 01                  A:01 X:55 Y:E4 P:25 SP:FB CYC:  0
D8F9  F0 04     BEQ $D8FF                       A:01 X:55 Y:E4 P:27 SP:FB CYC:  0
D8FF  60        RTS                             A:01 X:55 Y:E4 P:27 SP:FB CYC:  0
C618  20 00 D9  JSR $D900                       A:01 X:55 Y:E4 P:27 SP:FD CYC:  0
D900  A9 A3     LDA #$A3                        A:01 X:55 Y:E4 P:27 SP:FB CYC:  0
D902  85 33     STA $33 = 00                    A:A3 X:55 Y:E4 P:A5 SP:FB CYC:  0
D904  A9 89     LDA #$89                        A:A3 X:55 Y:E4 P:A5 SP:FB CYC:  0
D906  8D 00 03  STA $0300 = 70                  A:89 X:55 Y:E4 P:A5 SP:FB CYC:  0
D909  A9 12     LDA #$12                        A:89 X:55 Y:E4 P:A5 SP:FB CYC:  0
D90B  8D 45 02  STA $0245 = 00                  A:12 X:55 Y:E4 P:25 SP:FB CYC:  0
D90E  A9 FF     LDA #$FF                        A:12 X:55 Y:E4 P:25 SP:FB CYC:  0
D910  85 01     STA $01 = FF                    A:FF X:55 Y:E4 P:A5 SP:FB CYC:  0
D912  A2 65     LDX #$65                        A:FF X:55 Y:E4 P:A5 SP:FB CYC:  0
D914  A9 00     LDA #$00                        A:FF X:65 Y:E4 P:25 SP:FB CYC:  0
D916  85 89     STA $89 = 00                    A:00 X:65 Y:E4 P:27 SP:FB CYC:  0
D918  A9 03     LDA #$03                        A:00 X:65 Y:E4 P:27 SP:FB CYC:  0
D91A  85 8A     STA $8A = 00                    A:03 X:65 Y:E4 P:25 SP:FB CYC:  0
D91C  A0 00     LDY #$00                        A:03 X:65 Y:E4 P:25 SP:FB CYC:  0
D91E  38        SEC                             A:03 X:65 Y:00 P:27 SP:FB CYC:  0
D91F  A9 00     LDA #$00                        A:03 X:65 Y:00 P:27 SP:FB CYC:  0
D921  B8        CLV                             A:00 X:65 Y:00 P:27 SP:FB CYC:  0
D922  B1 89     LDA ($89),Y = 0300 @ 0300 = 89  A:00 X:65 Y:00 P:27 SP:FB CYC:  0
D924  F0 0C     BEQ $D932                       A:89 X:65 Y:00 P:A5 SP:FB CYC:  0
D926  90 0A     BCC $D932                       A:89 X:65 Y:00 P:A5 SP:FB CYC:  0
D928  70 08     BVS $D932                       A:89 X:65 Y:00 P:A5 SP:FB CYC:  0
D92A  C9 89     CMP #$89                        A:89 X:65 Y:00 P:A5 SP:FB CYC:  0
D92C  D0 04     BNE $D932                       A:89 X:65 Y:00 P:27 SP:FB CYC:  0
D92E  E0 65     CPX #$65                        A:89 X:65 Y:00 P:27 SP:FB CYC:  0
D930  F0 04     BEQ $D936                       A:89 X:65 Y:00 P:27 SP:FB CYC:  0
D936  A9 FF     LDA #$FF                        A:89 X:65 Y:00 P:27 SP:FB CYC:  0
D938  85 97     STA $97 = 00                    A:FF X:65 Y:00 P:A5 SP:FB CYC:  0
D93A  85 98     STA $98 = 00                    A:FF X:65 Y:00 P:A5 SP:FB CYC:  0
D93C  24 98     BIT $98 = FF                    A:FF X:65 Y:00 P:A5 SP:FB CYC:  0
D93E  A0 34     LDY #$34                        A:FF X:65 Y:00 P:E5 SP:FB CYC:  0
D940  B1 97     LDA ($97),Y = FFFF @ 0033 = A3  A:FF X:65 Y:34 P:65 SP:FB CYC:  0
D942  C9 A3     CMP #$A3                        A:A3 X:65 Y:34 P:E5 SP:FB CYC:  0
D944  D0 02     BNE $D948                       A:A3 X:65 Y:34 P:67 SP:FB CYC:  0
D946  B0 04     BCS $D94C                       A:A3 X:65 Y:34 P:67 SP:FB CYC:  0
D94C  A5 00     LDA $00 = 00                    A:A3 X:65 Y:34 P:67 SP:FB CYC:  0
D94E  48        PHA                             A:00 X:65 Y:34 P:67 SP:FB CYC:  0
D94F  A9 46     LDA #$46                        A:00 X:65 Y:34 P:67 SP:FA CYC:  0
D951  85 FF     STA $FF = 00                    A:46 X:65 Y:34 P:65 SP:FA CYC:  0
D953  A9 01     LDA #$01                        A:46 X:65 Y:34 P:65 SP:FA CYC:  0
D955  85 00     STA $00 = 00                    A:01 X:65 Y:34 P:65 SP:FA CYC:  0
D957  A0 FF     LDY #$FF                        A:01 X:65 Y:34 P:65 SP:FA CYC:  0
D959  B1 FF     LDA ($FF),Y = 0146 @ 0245 = 12  A:01 X:65 Y:FF P:E5 SP:FA CYC:  0
D95B  C9 12     CMP #$12                        A:12 X:65 Y:FF P:65 SP:FA CYC:  0
D95D  F0 04     BEQ $D963                       A:12 X:65 Y:FF P:67 SP:FA CYC:  0
D963  68        PLA                             A:12 X:65 Y:FF P:67 SP:FA CYC:  0
D964  85 00     STA $00 = 01                    A:00 X:65 Y:FF P:67 SP:FB CYC:  0
D966  A2 ED     LDX #$ED                        A:00 X:65 Y:FF P:67 SP:FB CYC:  0
D968  A9 00     LDA #$00                        A:00 X:ED Y:FF P:E5 SP:FB CYC:  0
D96A  85 33     STA $33 = A3                    A:00 X:ED Y:FF P:67 SP:FB CYC:  0
D96C  A9 04     LDA #$04                        A:00 X:ED Y:FF P:67 SP:FB CYC:  0
D96E  85 34     STA $34 = 00                    A:04 X:ED Y:FF P:65 SP:FB CYC:  0
D970  A0 00     LDY #$00                        A:04 X:ED Y:FF P:65 SP:FB CYC:  0
D972  18        CLC                             A:04 X:ED Y:00 P:67 SP:FB CYC:  0
D973  A9 FF     LDA #$FF                        A:04 X:ED Y:00 P:66 SP:FB CYC:  0
D975  85 01     STA $01 = FF                    A:FF X:ED Y:00 P:E4 SP:FB CYC:  0
D977  24 01     BIT $01 = FF                    A:FF X:ED Y:00 P:E4 SP:FB CYC:  0
D979  A9 AA     LDA #$AA                        A:FF X:ED Y:00 P:E4 SP:FB CYC:  0
D97B  8D 00 04  STA $0400 = AD                  A:AA X:ED Y:00 P:E4 SP:FB CYC:  0
D97E  A9 55     LDA #$55                        A:AA X:ED Y:00 P:E4 SP:FB CYC:  0
D980  11 33     ORA ($33),Y = 0400 @ 0400 = AA  A:55 X:ED Y:00 P:64 SP:FB CYC:  0
D982  B0 08     BCS $D98C                       A:FF X:ED Y:00 P:E4 SP:FB CYC:  0
D984  10 06     BPL $D98C                       A:FF X:ED Y:00 P:E4 SP:FB CYC:  0
D986  C9 FF     CMP #$FF                        A:FF X:ED Y:00 P:E4 SP:FB CYC:  0
D988  D0 02     BNE $D98C                       A:FF X:ED Y:00 P:67 SP:FB CYC:  0
D98A  70 02     BVS $D98E                       A:FF X:ED Y:00 P:67 SP:FB CYC:  0
D98E  E8        INX                             A:FF X:ED Y:00 P:67 SP:FB CYC:  0
D98F  38        SEC                             A:FF X:EE Y:00 P:E5 SP:FB CYC:  0
D990  B8        CLV                             A:FF X:EE Y:00 P:E5 SP:FB CYC:  0
D991  A9 00     LDA #$00                        A:FF X:EE Y:00 P:A5 SP:FB CYC:  0
D993  11 33     ORA ($33),Y = 0400 @ 0400 = AA  A:00 X:EE Y:00 P:27 SP:FB CYC:  0
D995  F0 06     BEQ $D99D                       A:AA X:EE Y:00 P:A5 SP:FB CYC:  0
D997  70 04     BVS $D99D                       A:AA X:EE Y:00 P:A5 SP:FB CYC:  0
D999  90 02     BCC $D99D                       A:AA X:EE Y:00 P:A5 SP:FB CYC:  0
D99B  30 02     BMI $D99F                       A:AA X:EE Y:00 P:A5 SP:FB CYC:  0
D99F  E8        INX                             A:AA X:EE Y:00 P:A5 SP:FB CYC:  0
D9A0  18        CLC                             A:AA X:EF Y:00 P:A5 SP:FB CYC:  0
D9A1  24 01     BIT $01 = FF                    A:AA X:EF Y:00 P:A4 SP:FB CYC:  0
D9A3  A9 55     LDA #$55                        A:AA X:EF Y:00 P:E4 SP:FB CYC:  0
D9A5  31 33     AND ($33),Y = 0400 @ 0400 = AA  A:55 X:EF Y:00 P:64 SP:FB CYC:  0
D9A7  D0 06     BNE $D9AF                       A:00 X:EF Y:00 P:66 SP:FB CYC:  0
D9A9  50 04     BVC $D9AF                       A:00 X:EF Y:00 P:66 SP:FB CYC:  0
D9AB  B0 02     BCS $D9AF                       A:00 X:EF Y:00 P:66 SP:FB CYC:  0
D9AD  10 02     BPL $D9B1                       A:00 X:EF Y:00 P:66 SP:FB CYC:  0
D9B1  E8        INX                             A:00 X:EF Y:00 P:66 SP:FB CYC:  0
D9B2  38        SEC                             A:00 X:F0 Y:00 P:E4 SP:FB CYC:  0
D9B3  B8        CLV                             A:00 X:F0 Y:00 P:E5 SP:FB CYC:  0
D9B4  A9 EF     LDA #$EF                        A:00 X:F0 Y:00 P:A5 SP:FB CYC:  0
D9B6  8D 00 04  STA $0400 = AA                  A:EF X:F0 Y:00 P:A5 SP:FB CYC:  0
D9B9  A9 F8     LDA #$F8                        A:EF X:F0 Y:00 P:A5 SP:FB CYC:  0
D9BB  31 33     AND ($33),Y = 0400 @ 0400 = EF  A:F8 X:F0 Y:00 P:A5 SP:FB CYC:  0
D9BD  90 08     BCC $D9C7                       A:E8 X:F0 Y:00 P:A5 SP:FB CYC:  0
D9BF  10 06     BPL $D9C7                       A:E8 X:F0 Y:00 P:A5 SP:FB CYC:  0
D9C1  C9 E8     CMP #$E8                        A:E8 X:F0 Y:00 P:A5 SP:FB CYC:  0
D9C3  D0 02     BNE $D9C7                       A:E8 X:F0 Y:00 P:27 SP:FB CYC:  0
D9C5  50 02     BVC $D9C9                       A:E8 X:F0 Y:00 P:27 SP:FB CYC:  0
D9C9  E8        INX                             A:E8 X:F0 Y:00 P:27 SP:FB CYC:  0
D9CA  18        CLC                             A:E8 X:F1 Y:00 P:A5 SP:FB CYC:  0
D9CB  24 01     BIT $01 = FF                    A:E8 X:F1 Y:00 P:A4 SP:FB CYC:  0
D9CD  A9 AA     LDA #$AA                        A:E8 X:F1 Y:00 P:E4 SP:FB CYC:  0
D9CF  8D 00 04  STA $0400 = EF                  A:AA X:F1 Y:00 P:E4 SP:FB CYC:  0
D9D2  A9 5F     LDA #$5F                        A:AA X:F1 Y:00 P:E4 SP:FB CYC:  0
D9D4  51 33     EOR ($33),Y = 0400 @ 0400 = AA  A:5F X:F1 Y:00 P:64 SP:FB CYC:  0
D9D6  B0 08     BCS $D9E0                       A:F5 X:F1 Y:00 P:E4 SP:FB CYC:  0
D9D8  10 06     BPL $D9E0                       A:F5 X:F1 Y:00 P:E4 SP:FB CYC:  0
D9DA  C9 F5     CMP #$F5                        A:F5 X:F1 Y:00 P:E4 SP:FB CYC:  0
D9DC  D0 02     BNE $D9E0                       A:F5 X:F1 Y:00 P:67 SP:FB CYC:  0
D9DE  70 02     BVS $D9E2                       A:F5 X:F1 Y:00 P:67 SP:FB CYC:  0
D9E2  E8        INX                             A:F5 X:F1 Y:00 P:67 SP:FB CYC:  0
D9E3  38        SEC                             A:F5 X:F2 Y:00 P:E5 SP:FB CYC:  0
D9E4  B8        CLV                             A:F5 X:F2 Y:00 P:E5 SP:FB CYC:  0
D9E5  A9 70     LDA #$70                        A:F5 X:F2 Y:00 P:A5 SP:FB CYC:  0
D9E7  8D 00 04  STA $0400 = AA                  A:70 X:F2 Y:00 P:25 SP:FB CYC:  0
D9EA  51 33     EOR ($33),Y = 0400 @ 0400 = 70  A:70 X:F2 Y:00 P:25 SP:FB CYC:  0
D9EC  D0 06     BNE $D9F4                       A:00 X:F2 Y:00 P:27 SP:FB CYC:  0
D9EE  70 04     BVS $D9F4                       A:00 X:F2 Y:00 P:27 SP:FB CYC:  0
D9F0  90 02     BCC $D9F4                       A:00 X:F2 Y:00 P:27 SP:FB CYC:  0
D9F2  10 02     BPL $D9F6                       A:00 X:F2 Y:00 P:27 SP:FB CYC:  0
D9F6  E8        INX                             A:00 X:F2 Y:00 P:27 SP:FB CYC:  0
D9F7  18        CLC                             A:00 X:F3 Y:00 P:A5 SP:FB CYC:  0
D9F8  24 01     BIT $01 = FF                    A:00 X:F3 Y:00 P:A4 SP:FB CYC:  0
D9FA  A9 69     LDA #$69                        A:00 X:F3 Y:00 P:E6 SP:FB CYC:  0
D9FC  8D 00 04  STA $0400 = 70                  A:69 X:F3 Y:00 P:64 SP:FB CYC:  0
D9FF  A9 00     LDA #$00                        A:69 X:F3 Y:00 P:64 SP:FB CYC:  0
DA01  71 33     ADC ($33),Y = 0400 @ 0400 = 69  A:00 X:F3 Y:00 P:66 SP:FB CYC:  0
DA03  30 08     BMI $DA0D                       A:69 X:F3 Y:00 P:24 SP:FB CYC:  0
DA05  B0 06     BCS $DA0D                       A:69 X:F3 Y:00 P:24 SP:FB CYC:  0
DA07  C9 69     CMP #$69                        A:69 X:F3 Y:00 P:24 SP:FB CYC:  0
DA09  D0 02     BNE $DA0D                       A:69 X:F3 Y:00 P:27 SP:FB CYC:  0
DA0B  50 02     BVC $DA0F                       A:69 X:F3 Y:00 P:27 SP:FB CYC:  0
DA0F  E8        INX                             A:69 X:F3 Y:00 P:27 SP:FB CYC:  0
DA10  38        SEC                             A:69 X:F4 Y:00 P:A5 SP:FB CYC:  0
DA11  24 01     BIT $01 = FF                    A:69 X:F4 Y:00 P:A5 SP:FB CYC:  0
DA13  A9 00     LDA #$00                        A:69 X:F4 Y:00 P:E5 SP:FB CYC:  0
DA15  71 33     ADC ($33),Y = 0400 @ 0400 = 69  A:00 X:F4 Y:00 P:67 SP:FB CYC:  0
DA17  30 08     BMI $DA21                       A:6A X:F4 Y:00 P:24 SP:FB CYC:  0
DA19  B0 06     BCS $DA21                       A:6A X:F4 Y:00 P:24 SP:FB CYC:  0
DA1B  C9 6A     CMP #$6A                        A:6A X:F4 Y:00 P:24 SP:FB CYC:  0
DA1D  D0 02     BNE $DA21                       A:6A X:F4 Y:00 P:27 SP:FB CYC:  0
DA1F  50 02     BVC $DA23                       A:6A X:F4 Y:00 P:27 SP:FB CYC:  0
DA23  E8        INX                             A:6A X:F4 Y:00 P:27 SP:FB CYC:  0
DA24  38        SEC                             A:6A X:F5 Y:00 P:A5 SP:FB CYC:  0
DA25  B8        CLV                             A:6A X:F5 Y:00 P:A5 SP:FB CYC:  0
DA26  A9 7F     LDA #$7F                        A:6A X:F5 Y:00 P:A5 SP:FB CYC:  0
DA28  8D 00 04  STA $0400 = 69                  A:7F X:F5 Y:00 P:25 SP:FB CYC:  0
DA2B  71 33     ADC ($33),Y = 0400 @ 0400 = 7F  A:7F X:F5 Y:00 P:25 SP:FB CYC:  0
DA2D  10 08     BPL $DA37                       A:FF X:F5 Y:00 P:E4 SP:FB CYC:  0
DA2F  B0 06     BCS $DA37                       A:FF X:F5 Y:00 P:E4 SP:FB CYC:  0
DA31  C9 FF     CMP #$FF                        A:FF X:F5 Y:00 P:E4 SP:FB CYC:  0
DA33  D0 02     BNE $DA37                       A:FF X:F5 Y:00 P:67 SP:FB CYC:  0
DA35  70 02     BVS $DA39                       A:FF X:F5 Y:00 P:67 SP:FB CYC:  0
DA39  E8        INX                             A:FF X:F5 Y:00 P:67 SP:FB CYC:  0
DA3A  18        CLC                             A:FF X:F6 Y:00 P:E5 SP:FB CYC:  0
DA3B  24 01     BIT $01 = FF                    A:FF X:F6 Y:00 P:E4 SP:FB CYC:  0
DA3D  A9 80     LDA #$80                        A:FF X:F6 Y:00 P:E4 SP:FB CYC:  0
DA3F  8D 00 04  STA $0400 = 7F                  A:80 X:F6 Y:00 P:E4 SP:FB CYC:  0
DA42  A9 7F     LDA #$7F                        A:80 X:F6 Y:00 P:E4 SP:FB CYC:  0
DA44  71 33     ADC ($33),Y = 0400 @ 0400 = 80  A:7F X:F6 Y:00 P:64 SP:FB CYC:  0
DA46  10 08     BPL $DA50                       A:FF X:F6 Y:00 P:A4 SP:FB CYC:  0
DA48  B0 06     BCS $DA50                       A:FF X:F6 Y:00 P:A4 SP:FB CYC:  0
DA4A  C9 FF     CMP #$FF                        A:FF X:F6 Y:00 P:A4 SP:FB CYC:  0
DA4C  D0 02     BNE $DA50                       A:FF X:F6 Y:00 P:27 SP:FB CYC:  0
DA4E  50 02     BVC $DA52                       A:FF X:F6 Y:00 P:27 SP:FB CYC:  0
DA52  E8        INX                             A:FF X:F6 Y:00 P:27 SP:FB CYC:  0
DA53  38        SEC                             A:FF X:F7 Y:00 P:A5 SP:FB CYC:  0
DA54  B8        CLV                             A:FF X:F7 Y:00 P:A5 SP:FB CYC:  0
DA55  A9 80     LDA #$80                        A:FF X:F7 Y:00 P:A5 SP:FB CYC:  0
DA57  8D 00 04  STA $0400 = 80                  A:80 X:F7 Y:00 P:A5 SP:FB CYC:  0
DA5A  A9 7F     LDA #$7F                        A:80 X:F7 Y:00 P:A5 SP:FB CYC:  0
DA5C  71 33     ADC ($33),Y = 0400 @ 0400 = 80  A:7F X:F7 Y:00 P:25 SP:FB CYC:  0
DA5E  D0 06     BNE $DA66                       A:00 X:F7 Y:00 P:27 SP:FB CYC:  0
DA60  30 04     BMI $DA66                       A:00 X:F7 Y:00 P:27 SP:FB CYC:  0
DA62  70 02     BVS $DA66                       A:00 X:F7 Y:00 P:27 SP:FB CYC:  0
DA64  B0 02     BCS $DA68                       A:00 X:F7 Y:00 P:27 SP:FB CYC:  0
DA68  E8        INX                             A:00 X:F7 Y:00 P:27 SP:FB CYC:  0
DA69  24 01     BIT $01 = FF                    A:00 X:F8 Y:00 P:A5 SP:FB CYC:  0
DA6B  A9 40     LDA #$40                        A:00 X:F8 Y:00 P:E7 SP:FB CYC:  0
DA6D  8D 00 04  STA $0400 = 80                  A:40 X:F8 Y:00 P:65 SP:FB CYC:  0
DA70  D1 33     CMP ($33),Y = 0400 @ 0400 = 40  A:40 X:F8 Y:00 P:65 SP:FB CYC:  0
DA72  30 06     BMI $DA7A                       A:40 X:F8 Y:00 P:67 SP:FB CYC:  0
DA74  90 04     BCC $DA7A                       A:40 X:F8 Y:00 P:67 SP:FB CYC:  0
DA76  D0 02     BNE $DA7A                       A:40 X:F8 Y:00 P:67 SP:FB CYC:  0
DA78  70 02     BVS $DA7C                       A:40 X:F8 Y:00 P:67 SP:FB CYC:  0
DA7C  E8        INX                             A:40 X:F8 Y:00 P:67 SP:FB CYC:  0
DA7D  B8        CLV                             A:40 X:F9 Y:00 P:E5 SP:FB CYC:  0
DA7E  CE 00 04  DEC $0400 = 40                  A:40 X:F9 Y:00 P:A5 SP:FB CYC:  0
DA81  D1 33     CMP ($33),Y = 0400 @ 0400 = 3F  A:40 X:F9 Y:00 P:25 SP:FB CYC:  0
DA83  F0 06     BEQ $DA8B                       A:40 X:F9 Y:00 P:25 SP:FB CYC:  0
DA85  30 04     BMI $DA8B                       A:40 X:F9 Y:00 P:25 SP:FB CYC:  0
DA87  90 02     BCC $DA8B                       A:40 X:F9 Y:00 P:25 SP:FB CYC:  0
DA89  50 02     BVC $DA8D                       A:40 X:F9 Y:00 P:25 SP:FB CYC:  0
DA8D  E8        INX                             A:40 X:F9 Y:00 P:25 SP:FB CYC:  0
DA8E  EE 00 04  INC $0400 = 3F                  A:40 X:FA Y:00 P:A5 SP:FB CYC:  0
DA91  EE 00 04  INC $0400 = 40                  A:40 X:FA Y:00 P:25 SP:FB CYC:  0
DA94  D1 33     CMP ($33),Y = 0400 @ 0400 = 41  A:40 X:FA Y:00 P:25 SP:FB CYC:  0
DA96  F0 02     BEQ $DA9A                       A:40 X:FA Y:00 P:A4 SP:FB CYC:  0
DA98  30 02     BMI $DA9C                       A:40 X:FA Y:00 P:A4 SP:FB CYC:  0
DA9C  E8        INX                             A:40 X:FA Y:00 P:A4 SP:FB CYC:  0
DA9D  A9 00     LDA #$00                        A:40 X:FB Y:00 P:A4 SP:FB CYC:  0
DA9F  8D 00 04  STA $0400 = 41                  A:00 X:FB Y:00 P:26 SP:FB CYC:  0
DAA2  A9 80     LDA #$80                        A:00 X:FB Y:00 P:26 SP:FB CYC:  0
DAA4  D1 33     CMP ($33),Y = 0400 @ 0400 = 00  A:80 X:FB Y:00 P:A4 SP:FB CYC:  0
DAA6  F0 04     BEQ $DAAC                       A:80 X:FB Y:00 P:A5 SP:FB CYC:  0
DAA8  10 02     BPL $DAAC                       A:80 X:FB Y:00 P:A5 SP:FB CYC:  0
DAAA  B0 02     BCS $DAAE                       A:80 X:FB Y:00 P:A5 SP:FB CYC:  0
DAAE  E8        INX                             A:80 X:FB Y:00 P:A5 SP:FB CYC:  0
DAAF  A0 80     LDY #$80                        A:80 X:FC Y:00 P:A5 SP:FB CYC:  0
DAB1  8C 00 04  STY $0400 = 00                  A:80 X:FC Y:80 P:A5 SP:FB CYC:  0
DAB4  A0 00     LDY #$00                        A:80 X:FC Y:80 P:A5 SP:FB CYC:  0
DAB6  D1 33     CMP ($33),Y = 0400 @ 0400 = 80  A:80 X:FC Y:00 P:27 SP:FB CYC:  0
DAB8  D0 04     BNE $DABE                       A:80 X:FC Y:00 P:27 SP:FB CYC:  0
DABA  30 02     BMI $DABE                       A:80 X:FC Y:00 P:27 SP:FB CYC:  0
DABC  B0 02     BCS $DAC0                       A:80 X:FC Y:00 P:27 SP:FB CYC:  0
DAC0  E8        INX                             A:80 X:FC Y:00 P:27 SP:FB CYC:  0
DAC1  EE 00 04  INC $0400 = 80                  A:80 X:FD Y:00 P:A5 SP:FB CYC:  0
DAC4  D1 33     CMP ($33),Y = 0400 @ 0400 = 81  A:80 X:FD Y:00 P:A5 SP:FB CYC:  0
DAC6  B0 04     BCS $DACC                       A:80 X:FD Y:00 P:A4 SP:FB CYC:  0
DAC8  F0 02     BEQ $DACC                       A:80 X:FD Y:00 P:A4 SP:FB CYC:  0
DACA  30 02     BMI $DACE                       A:80 X:FD Y:00 P:A4 SP:FB CYC:  0
DACE  E8        INX                             A:80 X:FD Y:00 P:A4 SP:FB CYC:  0
DACF  CE 00 04  DEC $0400 = 81                  A:80 X:FE Y:00 P:A4 SP:FB CYC:  0
DAD2  CE 00 04  DEC $0400 = 80                  A:80 X:FE Y:00 P:A4 SP:FB CYC:  0
DAD5  D1 33     CMP ($33),Y = 0400 @ 0400 = 7F  A:80 X:FE Y:00 P:24 SP:FB CYC:  0
DAD7  90 04     BCC $DADD                       A:80 X:FE Y:00 P:25 SP:FB CYC:  0
DAD9  F0 02     BEQ $DADD                       A:80 X:FE Y:00 P:25 SP:FB CYC:  0
DADB  10 02     BPL $DADF                       A:80 X:FE Y:00 P:25 SP:FB CYC:  0
DADF  60        RTS                             A:80 X:FE Y:00 P:25 SP:FB CYC:  0
C61B  A5 00     LDA $00 = 00                    A:80 X:FE Y:00 P:25 SP:FD CYC:  0
C61D  85 10     STA $10 = 00                    A:00 X:FE Y:00 P:27 SP:FD CYC:  0
C61F  A9 00     LDA #$00                        A:00 X:FE Y:00 P:27 SP:FD CYC:  0
C621  85 00     STA $00 = 00                    A:00 X:FE Y:00 P:27 SP:FD CYC:  0
C623  20 E0 DA  JSR $DAE0                       A:00 X:FE Y:00 P:27 SP:FD CYC:  0
DAE0  A9 00     LDA #$00                        A:00 X:FE Y:00 P:27 SP:FB CYC:  0
DAE2  85 33     STA $33 = 00                    A:00 X:FE Y:00 P:27 SP:FB CYC:  0
DAE4  A9 04     LDA #$04                        A:00 X:FE Y:00 P:27 SP:FB CYC:  0
DAE6  85 34     STA $34 = 04                    A:04 X:FE Y:00 P:25 SP:FB CYC:  0
DAE8  A0 00     LDY #$00                        A:04 X:FE Y:00 P:25 SP:FB CYC:  0
DAEA  A2 01     LDX #$01                        A:04 X:FE Y:00 P:27 SP:FB CYC:  0
DAEC  24 01     BIT $01 = FF                    A:04 X:01 Y:00 P:25 SP:FB CYC:  0
DAEE  A9 40     LDA #$40                        A:04 X:01 Y:00 P:E5 SP:FB CYC:  0
DAF0  8D 00 04  STA $0400 = 7F                  A:40 X:01 Y:00 P:65 SP:FB CYC:  0
DAF3  38        SEC                             A:40 X:01 Y:00 P:65 SP:FB CYC:  0
DAF4  F1 33     SBC ($33),Y = 0400 @ 0400 = 40  A:40 X:01 Y:00 P:65 SP:FB CYC:  0
DAF6  30 0A     BMI $DB02                       A:00 X:01 Y:00 P:27 SP:FB CYC:  0
DAF8  90 08     BCC $DB02                       A:00 X:01 Y:00 P:27 SP:FB CYC:  0
DAFA  D0 06     BNE $DB02                       A:00 X:01 Y:00 P:27 SP:FB CYC:  0
DAFC  70 04     BVS $DB02                       A:00 X:01 Y:00 P:27 SP:FB CYC:  0
DAFE  C9 00     CMP #$00                        A:00 X:01 Y:00 P:27 SP:FB CYC:  0
DB00  F0 02     BEQ $DB04                       A:00 X:01 Y:00 P:27 SP:FB CYC:  0
DB04  E8        INX                             A:00 X:01 Y:00 P:27 SP:FB CYC:  0
DB05  B8        CLV                             A:00 X:02 Y:00 P:25 SP:FB CYC:  0
DB06  38        SEC                             A:00 X:02 Y:00 P:25 SP:FB CYC:  0
DB07  A9 40     LDA #$40                        A:00 X:02 Y:00 P:25 SP:FB CYC:  0
DB09  CE 00 04  DEC $0400 = 40                  A:40 X:02 Y:00 P:25 SP:FB CYC:  0
DB0C  F1 33     SBC ($33),Y = 0400 @ 0400 = 3F  A:40 X:02 Y:00 P:25 SP:FB CYC:  0
DB0E  F0 0A     BEQ $DB1A                       A:01 X:02 Y:00 P:25 SP:FB CYC:  0
DB10  30 08     BMI $DB1A                       A:01 X:02 Y:00 P:25 SP:FB CYC:  0
DB12  90 06     BCC $DB1A                       A:01 X:02 Y:00 P:25 SP:FB CYC:  0
DB14  70 04     BVS $DB1A                       A:01 X:02 Y:00 P:25 SP:FB CYC:  0
DB16  C9 01     CMP #$01                        A:01 X:02 Y:00 P:25 SP:FB CYC:  0
DB18  F0 02     BEQ $DB1C                       A:01 X:02 Y:00 P:27 SP:FB CYC:  0
DB1C  E8        INX                             A:01 X:02 Y:00 P:27 SP:FB CYC:  0
DB1D  A9 40     LDA #$40                        A:01 X:03 Y:00 P:25 SP:FB CYC:  0
DB1F  38        SEC                             A:40 X:03 Y:00 P:25 SP:FB CYC:  0
DB20  24 01     BIT $01 = FF                    A:40 X:03 Y:00 P:25 SP:FB CYC:  0
DB22  EE 00 04  INC $0400 = 3F                  A:40 X:03 Y:00 P:E5 SP:FB CYC:  0
DB25  EE 00 04  INC $0400 = 40                  A:40 X:03 Y:00 P:65 SP:FB CYC:  0
DB28  F1 33     SBC ($33),Y = 0400 @ 0400 = 41  A:40 X:03 Y:00 P:65 SP:FB CYC:  0
DB2A  B0 0A     BCS $DB36                       A:FF X:03 Y:00 P:A4 SP:FB CYC:  0
DB2C  F0 08     BEQ $DB36                       A:FF X:03 Y:00 P:A4 SP:FB CYC:  0
DB2E  10 06     BPL $DB36                       A:FF X:03 Y:00 P:A4 SP:FB CYC:  0
DB30  70 04     BVS $DB36                       A:FF X:03 Y:00 P:A4 SP:FB CYC:  0
DB32  C9 FF     CMP #$FF                        A:FF X:03 Y:00 P:A4 SP:FB CYC:  0
DB34  F0 02     BEQ $DB38                       A:FF X:03 Y:00 P:27 SP:FB CYC:  0
DB38  E8        INX                             A:FF X:03 Y:00 P:27 SP:FB CYC:  0
DB39  18        CLC                             A:FF X:04 Y:00 P:25 SP:FB CYC:  0
DB3A  A9 00     LDA #$00                        A:FF X:04 Y:00 P:24 SP:FB CYC:  0
DB3C  8D 00 04  STA $0400 = 41                  A:00 X:04 Y:00 P:26 SP:FB CYC:  0
DB3F  A9 80     LDA #$80                        A:00 X:04 Y:00 P:26 SP:FB CYC:  0
DB41  F1 33     SBC ($33),Y = 0400 @ 0400 = 00  A:80 X:04 Y:00 P:A4 SP:FB CYC:  0
DB43  90 04     BCC $DB49                       A:7F X:04 Y:00 P:65 SP:FB CYC:  0
DB45  C9 7F     CMP #$7F                        A:7F X:04 Y:00 P:65 SP:FB CYC:  0
DB47  F0 02     BEQ $DB4B                       A:7F X:04 Y:00 P:67 SP:FB CYC:  0
DB4B  E8        INX                             A:7F X:04 Y:00 P:67 SP:FB CYC:  0
DB4C  38        SEC                             A:7F X:05 Y:00 P:65 SP:FB CYC:  0
DB4D  A9 7F     LDA #$7F                        A:7F X:05 Y:00 P:65 SP:FB CYC:  0
DB4F  8D 00 04  STA $0400 = 00                  A:7F X:05 Y:00 P:65 SP:FB CYC:  0
DB52  A9 81     LDA #$81                        A:7F X:05 Y:00 P:65 SP:FB CYC:  0
DB54  F1 33     SBC ($33),Y = 0400 @ 0400 = 7F  A:81 X:05 Y:00 P:E5 SP:FB CYC:  0
DB56  50 06     BVC $DB5E                       A:02 X:05 Y:00 P:65 SP:FB CYC:  0
DB58  90 04     BCC $DB5E                       A:02 X:05 Y:00 P:65 SP:FB CYC:  0
DB5A  C9 02     CMP #$02                        A:02 X:05 Y:00 P:65 SP:FB CYC:  0
DB5C  F0 02     BEQ $DB60                       A:02 X:05 Y:00 P:67 SP:FB CYC:  0
DB60  E8        INX                             A:02 X:05 Y:00 P:67 SP:FB CYC:  0
DB61  A9 00     LDA #$00                        A:02 X:06 Y:00 P:65 SP:FB CYC:  0
DB63  A9 87     LDA #$87                        A:00 X:06 Y:00 P:67 SP:FB CYC:  0
DB65  91 33     STA ($33),Y = 0400 @ 0400 = 7F  A:87 X:06 Y:00 P:E5 SP:FB CYC:  0
DB67  AD 00 04  LDA $0400 = 87                  A:87 X:06 Y:00 P:E5 SP:FB CYC:  0
DB6A  C9 87     CMP #$87                        A:87 X:06 Y:00 P:E5 SP:FB CYC:  0
DB6C  F0 02     BEQ $DB70                       A:87 X:06 Y:00 P:67 SP:FB CYC:  0
DB70  E8        INX                             A:87 X:06 Y:00 P:67 SP:FB CYC:  0
DB71  A9 7E     LDA #$7E                        A:87 X:07 Y:00 P:65 SP:FB CYC:  0
DB73  8D 00 02  STA $0200 = 7F                  A:7E X:07 Y:00 P:65 SP:FB CYC:  0
DB76  A9 DB     LDA #$DB                        A:7E X:07 Y:00 P:65 SP:FB CYC:  0
DB78  8D 01 02  STA $0201 = 00                  A:DB X:07 Y:00 P:E5 SP:FB CYC:  0
DB7B  6C 00 02  JMP (0200) = DB7E               A:DB X:07 Y:00 P:E5 SP:FB CYC:  0
DB7E  A9 00     LDA #$00                        A:DB X:07 Y:00 P:E5 SP:FB CYC:  0
DB80  8D FF 02  STA $02FF = 00                  A:00 X:07 Y:00 P:67 SP:FB CYC:  0
DB83  A9 01     LDA #$01                        A:00 X:07 Y:00 P:67 SP:FB CYC:  0
DB85  8D 00 03  STA $0300 = 89                  A:01 X:07 Y:00 P:65 SP:FB CYC:  0
DB88  A9 03     LDA #$03                        A:01 X:07 Y:00 P:65 SP:FB CYC:  0
DB8A  8D 00 02  STA $0200 = 7E                  A:03 X:07 Y:00 P:65 SP:FB CYC:  0
DB8D  A9 A9     LDA #$A9                        A:03 X:07 Y:00 P:65 SP:FB CYC:  0
DB8F  8D 00 01  STA $0100 = 00                  A:A9 X:07 Y:00 P:E5 SP:FB CYC:  0
DB92  A9 55     LDA #$55                        A:A9 X:07 Y:00 P:E5 SP:FB CYC:  0
DB94  8D 01 01  STA $0101 = 00                  A:55 X:07 Y:00 P:65 SP:FB CYC:  0
DB97  A9 60     LDA #$60                        A:55 X:07 Y:00 P:65 SP:FB CYC:  0
DB99  8D 02 01  STA $0102 = 00                  A:60 X:07 Y:00 P:65 SP:FB CYC:  0
DB9C  A9 A9     LDA #$A9                        A:60 X:07 Y:00 P:65 SP:FB CYC:  0
DB9E  8D 00 03  STA $0300 = 01                  A:A9 X:07 Y:00 P:E5 SP:FB CYC:  0
DBA1  A9 AA     LDA #$AA                        A:A9 X:07 Y:00 P:E5 SP:FB CYC:  0
DBA3  8D 01 03  STA $0301 = 00                  A:AA X:07 Y:00 P:E5 SP:FB CYC:  0
DBA6  A9 60     LDA #$60                        A:AA X:07 Y:00 P:E5 SP:FB CYC:  0
DBA8  8D 02 03  STA $0302 = 00                  A:60 X:07 Y:00 P:65 SP:FB CYC:  0
DBAB  20 B5 DB  JSR $DBB5                       A:60 X:07 Y:00 P:65 SP:FB CYC:  0
DBB5  6C FF 02  JMP (02FF) = 0300               A:60 X:07 Y:00 P:65 SP:F9 CYC:  0
0300  A9 AA     LDA #$AA                        A:60 X:07 Y:00 P:65 SP:F9 CYC:  0
0302  60        RTS                             A:AA X:07 Y:00 P:E5 SP:F9 CYC:  0
DBAE  C9 AA     CMP #$AA                        A:AA X:07 Y:00 P:E5 SP:FB CYC:  0
DBB0  F0 02     BEQ $DBB4                       A:AA X:07 Y:00 P:67 SP:FB CYC:  0
DBB4  60        RTS                             A:AA X:07 Y:00 P:67 SP:FB CYC:  0
C626  20 4A DF  JSR $DF4A                       A:AA X:07 Y:00 P:67 SP:FD CYC:  0
DF4A  A9 89     LDA #$89                        A:AA X:07 Y:00 P:67 SP:FB CYC:  0
DF4C  8D 00 03  STA $0300 = A9                  A:89 X:07 Y:00 P:E5 SP:FB CYC:  0
DF4F  A9 A3     LDA #$A3                        A:89 X:07 Y:00 P:E5 SP:FB CYC:  0
DF51  85 33     STA $33 = 00                    A:A3 X:07 Y:00 P:E5 SP:FB CYC:  0
DF53  A9 12     LDA #$12                        A:A3 X:07 Y:00 P:E5 SP:FB CYC:  0
DF55  8D 45 02  STA $0245 = 12                  A:12 X:07 Y:00 P:65 SP:FB CYC:  0
DF58  A2 65     LDX #$65                        A:12 X:07 Y:00 P:65 SP:FB CYC:  0
DF5A  A0 00     LDY #$00                        A:12 X:65 Y:00 P:65 SP:FB CYC:  0
DF5C  38        SEC                             A:12 X:65 Y:00 P:67 SP:FB CYC:  0
DF5D  A9 00     LDA #$00                        A:12 X:65 Y:00 P:67 SP:FB CYC:  0
DF5F  B8        CLV                             A:00 X:65 Y:00 P:67 SP:FB CYC:  0
DF60  B9 00 03  LDA $0300,Y @ 0300 = 89         A:00 X:65 Y:00 P:27 SP:FB CYC:  0
DF63  F0 0C     BEQ $DF71                       A:89 X:65 Y:00 P:A5 SP:FB CYC:  0
DF65  90 0A     BCC $DF71                       A:89 X:65 Y:00 P:A5 SP:FB CYC:  0
DF67  70 08     BVS $DF71                       A:89 X:65 Y:00 P:A5 SP:FB CYC:  0
DF69  C9 89     CMP #$89                        A:89 X:65 Y:00 P:A5 SP:FB CYC:  0
DF6B  D0 04     BNE $DF71                       A:89 X:65 Y:00 P:27 SP:FB CYC:  0
DF6D  E0 65     CPX #$65                        A:89 X:65 Y:00 P:27 SP:FB CYC:  0
DF6F  F0 04     BEQ $DF75                       A:89 X:65 Y:00 P:27 SP:FB CYC:  0
DF75  A9 FF     LDA #$FF                        A:89 X:65 Y:00 P:27 SP:FB CYC:  0
DF77  85 01     STA $01 = FF                    A:FF X:65 Y:00 P:A5 SP:FB CYC:  0
DF79  24 01     BIT $01 = FF                    A:FF X:65 Y:00 P:A5 SP:FB CYC:  0
DF7B  A0 34     LDY #$34                        A:FF X:65 Y:00 P:E5 SP:FB CYC:  0
DF7D  B9 FF FF  LDA $FFFF,Y @ 0033 = A3         A:FF X:65 Y:34 P:65 SP:FB CYC:  0
DF80  C9 A3     CMP #$A3                        A:A3 X:65 Y:34 P:E5 SP:FB CYC:  0
DF82  D0 02     BNE $DF86                       A:A3 X:65 Y:34 P:67 SP:FB CYC:  0
DF84  B0 04     BCS $DF8A                       A:A3 X:65 Y:34 P:67 SP:FB CYC:  0
DF8A  A9 46     LDA #$46                        A:A3 X:65 Y:34 P:67 SP:FB CYC:  0
DF8C  85 FF     STA $FF = 46                    A:46 X:65 Y:34 P:65 SP:FB CYC:  0
DF8E  A0 FF     LDY #$FF                        A:46 X:65 Y:34 P:65 SP:FB CYC:  0
DF90  B9 46 01  LDA $0146,Y @ 0245 = 12         A:46 X:65 Y:FF P:E5 SP:FB CYC:  0
DF93  C9 12     CMP #$12                        A:12 X:65 Y:FF P:65 SP:FB CYC:  0
DF95  F0 04     BEQ $DF9B                       A:12 X:65 Y:FF P:67 SP:FB CYC:  0
DF9B  A2 39     LDX #$39                        A:12 X:65 Y:FF P:67 SP:FB CYC:  0
DF9D  18        CLC                             A:12 X:39 Y:FF P:65 SP:FB CYC:  0
DF9E  A9 FF     LDA #$FF                        A:12 X:39 Y:FF P:64 SP:FB CYC:  0
DFA0  85 01     STA $01 = FF                    A:FF X:39 Y:FF P:E4 SP:FB CYC:  0
DFA2  24 01     BIT $01 = FF                    A:FF X:39 Y:FF P:E4 SP:FB CYC:  0
DFA4  A9 AA     LDA #$AA                        A:FF X:39 Y:FF P:E4 SP:FB CYC:  0
DFA6  8D 00 04  STA $0400 = 87                  A:AA X:39 Y:FF P:E4 SP:FB CYC:  0
DFA9  A9 55     LDA #$55                        A:AA X:39 Y:FF P:E4 SP:FB CYC:  0
DFAB  A0 00     LDY #$00                        A:55 X:39 Y:FF P:64 SP:FB CYC:  0
DFAD  19 00 04  ORA $0400,Y @ 0400 = AA         A:55 X:39 Y:00 P:66 SP:FB CYC:  0
DFB0  B0 08     BCS $DFBA                       A:FF X:39 Y:00 P:E4 SP:FB CYC:  0
DFB2  10 06     BPL $DFBA                       A:FF X:39 Y:00 P:E4 SP:FB CYC:  0
DFB4  C9 FF     CMP #$FF                        A:FF X:39 Y:00 P:E4 SP:FB CYC:  0
DFB6  D0 02     BNE $DFBA                       A:FF X:39 Y:00 P:67 SP:FB CYC:  0
DFB8  70 02     BVS $DFBC                       A:FF X:39 Y:00 P:67 SP:FB CYC:  0
DFBC  E8        INX                             A:FF X:39 Y:00 P:67 SP:FB CYC:  0
DFBD  38        SEC                             A:FF X:3A Y:00 P:65 SP:FB CYC:  0
DFBE  B8        CLV                             A:FF X:3A Y:00 P:65 SP:FB CYC:  0
DFBF  A9 00     LDA #$00                        A:FF X:3A Y:00 P:25 SP:FB CYC:  0
DFC1  19 00 04  ORA $0400,Y @ 0400 = AA         A:00 X:3A Y:00 P:27 SP:FB CYC:  0
DFC4  F0 06     BEQ $DFCC                       A:AA X:3A Y:00 P:A5 SP:FB CYC:  0
DFC6  70 04     BVS $DFCC                       A:AA X:3A Y:00 P:A5 SP:FB CYC:  0
DFC8  90 02     BCC $DFCC                       A:AA X:3A Y:00 P:A5 SP:FB CYC:  0
DFCA  30 02     BMI $DFCE                       A:AA X:3A Y:00 P:A5 SP:FB CYC:  0
DFCE  E8        INX                             A:AA X:3A Y:00 P:A5 SP:FB CYC:  0
DFCF  18        CLC                             A:AA X:3B Y:00 P:25 SP:FB CYC:  0
DFD0  24 01     BIT $01 = FF                    A:AA X:3B Y:00 P:24 SP:FB CYC:  0
DFD2  A9 55     LDA #$55                        A:AA X:3B Y:00 P:E4 SP:FB CYC:  0
DFD4  39 00 04  AND $0400,Y @ 0400 = AA         A:55 X:3B Y:00 P:64 SP:FB CYC:  0
DFD7  D0 06     BNE $DFDF                       A:00 X:3B Y:00 P:66 SP:FB CYC:  0
DFD9  50 04     BVC $DFDF                       A:00 X:3B Y:00 P:66 SP:FB CYC:  0
DFDB  B0 02     BCS $DFDF                       A:00 X:3B Y:00 P:66 SP:FB CYC:  0
DFDD  10 02     BPL $DFE1                       A:00 X:3B Y:00 P:66 SP:FB CYC:  0
DFE1  E8        INX                             A:00 X:3B Y:00 P:66 SP:FB CYC:  0
DFE2  38        SEC                             A:00 X:3C Y:00 P:64 SP:FB CYC:  0
DFE3  B8        CLV                             A:00 X:3C Y:00 P:65 SP:FB CYC:  0
DFE4  A9 EF     LDA #$EF                        A:00 X:3C Y:00 P:25 SP:FB CYC:  0
DFE6  8D 00 04  STA $0400 = AA                  A:EF X:3C Y:00 P:A5 SP:FB CYC:  0
DFE9  A9 F8     LDA #$F8                        A:EF X:3C Y:00 P:A5 SP:FB CYC:  0
DFEB  39 00 04  AND $0400,Y @ 0400 = EF         A:F8 X:3C Y:00 P:A5 SP:FB CYC:  0
DFEE  90 08     BCC $DFF8                       A:E8 X:3C Y:00 P:A5 SP:FB CYC:  0
DFF0  10 06     BPL $DFF8                       A:E8 X:3C Y:00 P:A5 SP:FB CYC:  0
DFF2  C9 E8     CMP #$E8                        A:E8 X:3C Y:00 P:A5 SP:FB CYC:  0
DFF4  D0 02     BNE $DFF8                       A:E8 X:3C Y:00 P:27 SP:FB CYC:  0
DFF6  50 02     BVC $DFFA                       A:E8 X:3C Y:00 P:27 SP:FB CYC:  0
DFFA  E8        INX                             A:E8 X:3C Y:00 P:27 SP:FB CYC:  0
DFFB  18        CLC                             A:E8 X:3D Y:00 P:25 SP:FB CYC:  0
DFFC  24 01     BIT $01 = FF                    A:E8 X:3D Y:00 P:24 SP:FB CYC:  0
DFFE  A9 AA     LDA #$AA                        A:E8 X:3D Y:00 P:E4 SP:FB CYC:  0
E000  8D 00 04  STA $0400 = EF                  A:AA X:3D Y:00 P:E4 SP:FB CYC:  0
E003  A9 5F     LDA #$5F                        A:AA X:3D Y:00 P:E4 SP:FB CYC:  0
E005  59 00 04  EOR $0400,Y @ 0400 = AA         A:5F X:3D Y:00 P:64 SP:FB CYC:  0
E008  B0 08     BCS $E012                       A:F5 X:3D Y:00 P:E4 SP:FB CYC:  0
E00A  10 06     BPL $E012                       A:F5 X:3D Y:00 P:E4 SP:FB CYC:  0
E00C  C9 F5     CMP #$F5                        A:F5 X:3D Y:00 P:E4 SP:FB CYC:  0
E00E  D0 02     BNE $E012                       A:F5 X:3D Y:00 P:67 SP:FB CYC:  0
E010  70 02     BVS $E014                       A:F5 X:3D Y:00 P:67 SP:FB CYC:  0
E014  E8        INX                             A:F5 X:3D Y:00 P:67 SP:FB CYC:  0
E015  38        SEC                             A:F5 X:3E Y:00 P:65 SP:FB CYC:  0
E016  B8        CLV                             A:F5 X:3E Y:00 P:65 SP:FB CYC:  0
E017  A9 70     LDA #$70                        A:F5 X:3E Y:00 P:25 SP:FB CYC:  0
E019  8D 00 04  STA $0400 = AA                  A:70 X:3E Y:00 P:25 SP:FB CYC:  0
E01C  59 00 04  EOR $0400,Y @ 0400 = 70         A:70 X:3E Y:00 P:25 SP:FB CYC:  0
E01F  D0 06     BNE $E027                       A:00 X:3E Y:00 P:27 SP:FB CYC:  0
E021  70 04     BVS $E027                       A:00 X:3E Y:00 P:27 SP:FB CYC:  0
E023  90 02     BCC $E027                       A:00 X:3E Y:00 P:27 SP:FB CYC:  0
E025  10 02     BPL $E029                       A:00 X:3E Y:00 P:27 SP:FB CYC:  0
E029  E8        INX                             A:00 X:3E Y:00 P:27 SP:FB CYC:  0
E02A  18        CLC                             A:00 X:3F Y:00 P:25 SP:FB CYC:  0
E02B  24 01     BIT $01 = FF                    A:00 X:3F Y:00 P:24 SP:FB CYC:  0
E02D  A9 69     LDA #$69                        A:00 X:3F Y:00 P:E6 SP:FB CYC:  0
E02F  8D 00 04  STA $0400 = 70                  A:69 X:3F Y:00 P:64 SP:FB CYC:  0
E032  A9 00     LDA #$00                        A:69 X:3F Y:00 P:64 SP:FB CYC:  0
E034  79 00 04  ADC $0400,Y @ 0400 = 69         A:00 X:3F Y:00 P:66 SP:FB CYC:  0
E037  30 08     BMI $E041                       A:69 X:3F Y:00 P:24 SP:FB CYC:  0
E039  B0 06     BCS $E041                       A:69 X:3F Y:00 P:24 SP:FB CYC:  0
E03B  C9 69     CMP #$69                        A:69 X:3F Y:00 P:24 SP:FB CYC:  0
E03D  D0 02     BNE $E041                       A:69 X:3F Y:00 P:27 SP:FB CYC:  0
E03F  50 02     BVC $E043                       A:69 X:3F Y:00 P:27 SP:FB CYC:  0
E043  E8        INX                             A:69 X:3F Y:00 P:27 SP:FB CYC:  0
E044  38        SEC                             A:69 X:40 Y:00 P:25 SP:FB CYC:  0
E045  24 01     BIT $01 = FF                    A:69 X:40 Y:00 P:25 SP:FB CYC:  0
E047  A9 00     LDA #$00                        A:69 X:40 Y:00 P:E5 SP:FB CYC:  0
E049  79 00 04  ADC $0400,Y @ 0400 = 69         A:00 X:40 Y:00 P:67 SP:FB CYC:  0
E04C  30 08     BMI $E056                       A:6A X:40 Y:00 P:24 SP:FB CYC:  0
E04E  B0 06     BCS $E056                       A:6A X:40 Y:00 P:24 SP:FB CYC:  0
E050  C9 6A     CMP #$6A                        A:6A X:40 Y:00 P:24 SP:FB CYC:  0
E052  D0 02     BNE $E056                       A:6A X:40 Y:00 P:27 SP:FB CYC:  0
E054  50 02     BVC $E058                       A:6A X:40 Y:00 P:27 SP:FB CYC:  0
E058  E8        INX                             A:6A X:40 Y:00 P:27 SP:FB CYC:  0
E059  38        SEC                             A:6A X:41 Y:00 P:25 SP:FB CYC:  0
E05A  B8        CLV                             A:6A X:41 Y:00 P:25 SP:FB CYC:  0
E05B  A9 7F     LDA #$7F                        A:6A X:41 Y:00 P:25 SP:FB CYC:  0
E05D  8D 00 04  STA $0400 = 69                  A:7F X:41 Y:00 P:25 SP:FB CYC:  0
E060  79 00 04  ADC $0400,Y @ 0400 = 7F         A:7F X:41 Y:00 P:25 SP:FB CYC:  0
E063  10 08     BPL $E06D                       A:FF X:41 Y:00 P:E4 SP:FB CYC:  0
E065  B0 06     BCS $E06D                       A:FF X:41 Y:00 P:E4 SP:FB CYC:  0
E067  C9 FF     CMP #$FF                        A:FF X:41 Y:00 P:E4 SP:FB CYC:  0
E069  D0 02     BNE $E06D                       A:FF X:41 Y:00 P:67 SP:FB CYC:  0
E06B  70 02     BVS $E06F                       A:FF X:41 Y:00 P:67 SP:FB CYC:  0
E06F  E8        INX                             A:FF X:41 Y:00 P:67 SP:FB CYC:  0
E070  18        CLC                             A:FF X:42 Y:00 P:65 SP:FB CYC:  0
E071  24 01     BIT $01 = FF                    A:FF X:42 Y:00 P:64 SP:FB CYC:  0
E073  A9 80     LDA #$80                        A:FF X:42 Y:00 P:E4 SP:FB CYC:  0
E075  8D 00 04  STA $0400 = 7F                  A:80 X:42 Y:00 P:E4 SP:FB CYC:  0
E078  A9 7F     LDA #$7F                        A:80 X:42 Y:00 P:E4 SP:FB CYC:  0
E07A  79 00 04  ADC $0400,Y @ 0400 = 80         A:7F X:42 Y:00 P:64 SP:FB CYC:  0
E07D  10 08     BPL $E087                       A:FF X:42 Y:00 P:A4 SP:FB CYC:  0
E07F  B0 06     BCS $E087                       A:FF X:42 Y:00 P:A4 SP:FB CYC:  0
E081  C9 FF     CMP #$FF                        A:FF X:42 Y:00 P:A4 SP:FB CYC:  0
E083  D0 02     BNE $E087                       A:FF X:42 Y:00 P:27 SP:FB CYC:  0
E085  50 02     BVC $E089                       A:FF X:42 Y:00 P:27 SP:FB CYC:  0
E089  E8        INX                             A:FF X:42 Y:00 P:27 SP:FB CYC:  0
E08A  38        SEC                             A:FF X:43 Y:00 P:25 SP:FB CYC:  0
E08B  B8        CLV                             A:FF X:43 Y:00 P:25 SP:FB CYC:  0
E08C  A9 80     LDA #$80                        A:FF X:43 Y:00 P:25 SP:FB CYC:  0
E08E  8D 00 04  STA $0400 = 80                  A:80 X:43 Y:00 P:A5 SP:FB CYC:  0
E091  A9 7F     LDA #$7F                        A:80 X:43 Y:00 P:A5 SP:FB CYC:  0
E093  79 00 04  ADC $0400,Y @ 0400 = 80         A:7F X:43 Y:00 P:25 SP:FB CYC:  0
E096  D0 06     BNE $E09E                       A:00 X:43 Y:00 P:27 SP:FB CYC:  0
E098  30 04     BMI $E09E                       A:00 X:43 Y:00 P:27 SP:FB CYC:  0
E09A  70 02     BVS $E09E                       A:00 X:43 Y:00 P:27 SP:FB CYC:  0
E09C  B0 02     BCS $E0A0                       A:00 X:43 Y:00 P:27 SP:FB CYC:  0
E0A0  E8        INX                             A:00 X:43 Y:00 P:27 SP:FB CYC:  0
E0A1  24 01     BIT $01 = FF                    A:00 X:44 Y:00 P:25 SP:FB CYC:  0
E0A3  A9 40     LDA #$40                        A:00 X:44 Y:00 P:E7 SP:FB CYC:  0
E0A5  8D 00 04  STA $0400 = 80                  A:40 X:44 Y:00 P:65 SP:FB CYC:  0
E0A8  D9 00 04  CMP $0400,Y @ 0400 = 40         A:40 X:44 Y:00 P:65 SP:FB CYC:  0
E0AB  30 06     BMI $E0B3                       A:40 X:44 Y:00 P:67 SP:FB CYC:  0
E0AD  90 04     BCC $E0B3                       A:40 X:44 Y:00 P:67 SP:FB CYC:  0
E0AF  D0 02     BNE $E0B3                       A:40 X:44 Y:00 P:67 SP:FB CYC:  0
E0B1  70 02     BVS $E0B5                       A:40 X:44 Y:00 P:67 SP:FB CYC:  0
E0B5  E8        INX                             A:40 X:44 Y:00 P:67 SP:FB CYC:  0
E0B6  B8        CLV                             A:40 X:45 Y:00 P:65 SP:FB CYC:  0
E0B7  CE 00 04  DEC $0400 = 40                  A:40 X:45 Y:00 P:25 SP:FB CYC:  0
E0BA  D9 00 04  CMP $0400,Y @ 0400 = 3F         A:40 X:45 Y:00 P:25 SP:FB CYC:  0
E0BD  F0 06     BEQ $E0C5                       A:40 X:45 Y:00 P:25 SP:FB CYC:  0
E0BF  30 04     BMI $E0C5                       A:40 X:45 Y:00 P:25 SP:FB CYC:  0
E0C1  90 02     BCC $E0C5                       A:40 X:45 Y:00 P:25 SP:FB CYC:  0
E0C3  50 02     BVC $E0C7                       A:40 X:45 Y:00 P:25 SP:FB CYC:  0
E0C7  E8        INX                             A:40 X:45 Y:00 P:25 SP:FB CYC:  0
E0C8  EE 00 04  INC $0400 = 3F                  A:40 X:46 Y:00 P:25 SP:FB CYC:  0
E0CB  EE 00 04  INC $0400 = 40                  A:40 X:46 Y:00 P:25 SP:FB CYC:  0
E0CE  D9 00 04  CMP $0400,Y @ 0400 = 41         A:40 X:46 Y:00 P:25 SP:FB CYC:  0
E0D1  F0 02     BEQ $E0D5                       A:40 X:46 Y:00 P:A4 SP:FB CYC:  0
E0D3  30 02     BMI $E0D7                       A:40 X:46 Y:00 P:A4 SP:FB CYC:  0
E0D7  E8        INX                             A:40 X:46 Y:00 P:A4 SP:FB CYC:  0
E0D8  A9 00     LDA #$00                        A:40 X:47 Y:00 P:24 SP:FB CYC:  0
E0DA  8D 00 04  STA $0400 = 41                  A:00 X:47 Y:00 P:26 SP:FB CYC:  0
E0DD  A9 80     LDA #$80                        A:00 X:47 Y:00 P:26 SP:FB CYC:  0
E0DF  D9 00 04  CMP $0400,Y @ 0400 = 00         A:80 X:47 Y:00 P:A4 SP:FB CYC:  0
E0E2  F0 04     BEQ $E0E8                       A:80 X:47 Y:00 P:A5 SP:FB CYC:  0
E0E4  10 02     BPL $E0E8                       A:80 X:47 Y:00 P:A5 SP:FB CYC:  0
E0E6  B0 02     BCS $E0EA                       A:80 X:47 Y:00 P:A5 SP:FB CYC:  0
E0EA  E8        INX                             A:80 X:47 Y:00 P:A5 SP:FB CYC:  0
E0EB  A0 80     LDY #$80                        A:80 X:48 Y:00 P:25 SP:FB CYC:  0
E0ED  8C 00 04  STY $0400 = 00                  A:80 X:48 Y:80 P:A5 SP:FB CYC:  0
E0F0  A0 00     LDY #$00                        A:80 X:48 Y:80 P:A5 SP:FB CYC:  0
E0F2  D9 00 04  CMP $0400,Y @ 0400 = 80         A:80 X:48 Y:00 P:27 SP:FB CYC:  0
E0F5  D0 04     BNE $E0FB                       A:80 X:48 Y:00 P:27 SP:FB CYC:  0
E0F7  30 02     BMI $E0FB                       A:80 X:48 Y:00 P:27 SP:FB CYC:  0
E0F9  B0 02     BCS $E0FD                       A:80 X:48 Y:00 P:27 SP:FB CYC:  0
E0FD  E8        INX                             A:80 X:48 Y:00 P:27 SP:FB CYC:  0
E0FE  EE 00 04  INC $0400 = 80                  A:80 X:49 Y:00 P:25 SP:FB CYC:  0
E101  D9 00 04  CMP $0400,Y @ 0400 = 81         A:80 X:49 Y:00 P:A5 SP:FB CYC:  0
E104  B0 04     BCS $E10A                       A:80 X:49 Y:00 P:A4 SP:FB CYC:  0
E106  F0 02     BEQ $E10A                       A:80 X:49 Y:00 P:A4 SP:FB CYC:  0
E108  30 02     BMI $E10C                       A:80 X:49 Y:00 P:A4 SP:FB CYC:  0
E10C  E8        INX                             A:80 X:49 Y:00 P:A4 SP:FB CYC:  0
E10D  CE 00 04  DEC $0400 = 81                  A:80 X:4A Y:00 P:24 SP:FB CYC:  0
E110  CE 00 04  DEC $0400 = 80                  A:80 X:4A Y:00 P:A4 SP:FB CYC:  0
E113  D9 00 04  CMP $0400,Y @ 0400 = 7F         A:80 X:4A Y:00 P:24 SP:FB CYC:  0
E116  90 04     BCC $E11C                       A:80 X:4A Y:00 P:25 SP:FB CYC:  0
E118  F0 02     BEQ $E11C                       A:80 X:4A Y:00 P:25 SP:FB CYC:  0
E11A  10 02     BPL $E11E                       A:80 X:4A Y:00 P:25 SP:FB CYC:  0
E11E  E8        INX                             A:80 X:4A Y:00 P:25 SP:FB CYC:  0
E11F  24 01     BIT $01 = FF                    A:80 X:4B Y:00 P:25 SP:FB CYC:  0
E121  A9 40     LDA #$40                        A:80 X:4B Y:00 P:E5 SP:FB CYC:  0
E123  8D 00 04  STA $0400 = 7F                  A:40 X:4B Y:00 P:65 SP:FB CYC:  0
E126  38        SEC                             A:40 X:4B Y:00 P:65 SP:FB CYC:  0
E127  F9 00 04  SBC $0400,Y @ 0400 = 40         A:40 X:4B Y:00 P:65 SP:FB CYC:  0
E12A  30 0A     BMI $E136                       A:00 X:4B Y:00 P:27 SP:FB CYC:  0
E12C  90 08     BCC $E136                       A:00 X:4B Y:00 P:27 SP:FB CYC:  0
E12E  D0 06     BNE $E136                       A:00 X:4B Y:00 P:27 SP:FB CYC:  0
E130  70 04     BVS $E136                       A:00 X:4B Y:00 P:27 SP:FB CYC:  0
E132  C9 00     CMP #$00                        A:00 X:4B Y:00 P:27 SP:FB CYC:  0
E134  F0 02     BEQ $E138                       A:00 X:4B Y:00 P:27 SP:FB CYC:  0
E138  E8        INX                             A:00 X:4B Y:00 P:27 SP:FB CYC:  0
E139  B8        CLV                             A:00 X:4C Y:00 P:25 SP:FB CYC:  0
E13A  38        SEC                             A:00 X:4C Y:00 P:25 SP:FB CYC:  0
E13B  A9 40     LDA #$40                        A:00 X:4C Y:00 P:25 SP:FB CYC:  0
E13D  CE 00 04  DEC $0400 = 40                  A:40 X:4C Y:00 P:25 SP:FB CYC:  0
E140  F9 00 04  SBC $0400,Y @ 0400 = 3F         A:40 X:4C Y:00 P:25 SP:FB CYC:  0
E143  F0 0A     BEQ $E14F                       A:01 X:4C Y:00 P:25 SP:FB CYC:  0
E145  30 08     BMI $E14F                       A:01 X:4C Y:00 P:25 SP:FB CYC:  0
E147  90 06     BCC $E14F                       A:01 X:4C Y:00 P:25 SP:FB CYC:  0
E149  70 04     BVS $E14F                       A:01 X:4C Y:00 P:25 SP:FB CYC:  0
E14B  C9 01     CMP #$01                        A:01 X:4C Y:00 P:25 SP:FB CYC:  0
E14D  F0 02     BEQ $E151                       A:01 X:4C Y:00 P:27 SP:FB CYC:  0
E151  E8        INX                             A:01 X:4C Y:00 P:27 SP:FB CYC:  0
E152  A9 40     LDA #$40                        A:01 X:4D Y:00 P:25 SP:FB CYC:  0
E154  38        SEC                             A:40 X:4D Y:00 P:25 SP:FB CYC:  0
E155  24 01     BIT $01 = FF                    A:40 X:4D Y:00 P:25 SP:FB CYC:  0
E157  EE 00 04  INC $0400 = 3F                  A:40 X:4D Y:00 P:E5 SP:FB CYC:  0
E15A  EE 00 04  INC $0400 = 40                  A:40 X:4D Y:00 P:65 SP:FB CYC:  0
E15D  F9 00 04  SBC $0400,Y @ 0400 = 41         A:40 X:4D Y:00 P:65 SP:FB CYC:  0
E160  B0 0A     BCS $E16C                       A:FF X:4D Y:00 P:A4 SP:FB CYC:  0
E162  F0 08     BEQ $E16C                       A:FF X:4D Y:00 P:A4 SP:FB CYC:  0
E164  10 06     BPL $E16C                       A:FF X:4D Y:00 P:A4 SP:FB CYC:  0
E166  70 04     BVS $E16C                       A:FF X:4D Y:00 P:A4 SP:FB CYC:  0
E168  C9 FF     CMP #$FF                        A:FF X:4D Y:00 P:A4 SP:FB CYC:  0
E16A  F0 02     BEQ $E16E                       A:FF X:4D Y:00 P:27 SP:FB CYC:  0
E16E  E8        INX                             A:FF X:4D Y:00 P:27 SP:FB CYC:  0
E16F  18        CLC                             A:FF X:4E Y:00 P:25 SP:FB CYC:  0
E170  A9 00     LDA #$00                        A:FF X:4E Y:00 P:24 SP:FB CYC:  0
E172  8D 00 04  STA $0400 = 41                  A:00 X:4E Y:00 P:26 SP:FB CYC:  0
E175  A9 80     LDA #$80                        A:00 X:4E Y:00 P:26 SP:FB CYC:  0
E177  F9 00 04  SBC $0400,Y @ 0400 = 00         A:80 X:4E Y:00 P:A4 SP:FB CYC:  0
E17A  90 04     BCC $E180                       A:7F X:4E Y:00 P:65 SP:FB CYC:  0
E17C  C9 7F     CMP #$7F                        A:7F X:4E Y:00 P:65 SP:FB CYC:  0
E17E  F0 02     BEQ $E182                       A:7F X:4E Y:00 P:67 SP:FB CYC:  0
E182  E8        INX                             A:7F X:4E Y:00 P:67 SP:FB CYC:  0
E183  38        SEC                             A:7F X:4F Y:00 P:65 SP:FB CYC:  0
E184  A9 7F     LDA #$7F                        A:7F X:4F Y:00 P:65 SP:FB CYC:  0
E186  8D 00 04  STA $0400 = 00                  A:7F X:4F Y:00 P:65 SP:FB CYC:  0
E189  A9 81     LDA #$81                        A:7F X:4F Y:00 P:65 SP:FB CYC:  0
E18B  F9 00 04  SBC $0400,Y @ 0400 = 7F         A:81 X:4F Y:00 P:E5 SP:FB CYC:  0
E18E  50 06     BVC $E196                       A:02 X:4F Y:00 P:65 SP:FB CYC:  0
E190  90 04     BCC $E196                       A:02 X:4F Y:00 P:65 SP:FB CYC:  0
E192  C9 02     CMP #$02                        A:02 X:4F Y:00 P:65 SP:FB CYC:  0
E194  F0 02     BEQ $E198                       A:02 X:4F Y:00 P:67 SP:FB CYC:  0
E198  E8        INX                             A:02 X:4F Y:00 P:67 SP:FB CYC:  0
E199  A9 00     LDA #$00                        A:02 X:50 Y:00 P:65 SP:FB CYC:  0
E19B  A9 87     LDA #$87                        A:00 X:50 Y:00 P:67 SP:FB CYC:  0
E19D  99 00 04  STA $0400,Y @ 0400 = 7F         A:87 X:50 Y:00 P:E5 SP:FB CYC:  0
E1A0  AD 00 04  LDA $0400 = 87                  A:87 X:50 Y:00 P:E5 SP:FB CYC:  0
E1A3  C9 87     CMP #$87                        A:87 X:50 Y:00 P:E5 SP:FB CYC:  0
E1A5  F0 02     BEQ $E1A9                       A:87 X:50 Y:00 P:67 SP:FB CYC:  0
E1A9  60        RTS                             A:87 X:50 Y:00 P:67 SP:FB CYC:  0
C629  20 B8 DB  JSR $DBB8                       A:87 X:50 Y:00 P:67 SP:FD CYC:  0
DBB8  A9 FF     LDA #$FF                        A:87 X:50 Y:00 P:67 SP:FB CYC:  0
DBBA  85 01     STA $01 = FF                    A:FF X:50 Y:00 P:E5 SP:FB CYC:  0
DBBC  A9 AA     LDA #$AA                        A:FF X:50 Y:00 P:E5 SP:FB CYC:  0
DBBE  85 33     STA $33 = A3                    A:AA X:50 Y:00 P:E5 SP:FB CYC:  0
DBC0  A9 BB     LDA #$BB                        A:AA X:50 Y:00 P:E5 SP:FB CYC:  0
DBC2  85 89     STA $89 = 00                    A:BB X:50 Y:00 P:E5 SP:FB CYC:  0
DBC4  A2 00     LDX #$00                        A:BB X:50 Y:00 P:E5 SP:FB CYC:  0
DBC6  A9 66     LDA #$66                        A:BB X:00 Y:00 P:67 SP:FB CYC:  0
DBC8  24 01     BIT $01 = FF                    A:66 X:00 Y:00 P:65 SP:FB CYC:  0
DBCA  38        SEC                             A:66 X:00 Y:00 P:E5 SP:FB CYC:  0
DBCB  A0 00     LDY #$00                        A:66 X:00 Y:00 P:E5 SP:FB CYC:  0
DBCD  B4 33     LDY $33,X @ 33 = AA             A:66 X:00 Y:00 P:67 SP:FB CYC:  0
DBCF  10 12     BPL $DBE3                       A:66 X:00 Y:AA P:E5 SP:FB CYC:  0
DBD1  F0 10     BEQ $DBE3                       A:66 X:00 Y:AA P:E5 SP:FB CYC:  0
DBD3  50 0E     BVC $DBE3                       A:66 X:00 Y:AA P:E5 SP:FB CYC:  0
DBD5  90 0C     BCC $DBE3                       A:66 X:00 Y:AA P:E5 SP:FB CYC:  0
DBD7  C9 66     CMP #$66                        A:66 X:00 Y:AA P:E5 SP:FB CYC:  0
DBD9  D0 08     BNE $DBE3                       A:66 X:00 Y:AA P:67 SP:FB CYC:  0
DBDB  E0 00     CPX #$00                        A:66 X:00 Y:AA P:67 SP:FB CYC:  0
DBDD  D0 04     BNE $DBE3                       A:66 X:00 Y:AA P:67 SP:FB CYC:  0
DBDF  C0 AA     CPY #$AA                        A:66 X:00 Y:AA P:67 SP:FB CYC:  0
DBE1  F0 04     BEQ $DBE7                       A:66 X:00 Y:AA P:67 SP:FB CYC:  0
DBE7  A2 8A     LDX #$8A                        A:66 X:00 Y:AA P:67 SP:FB CYC:  0
DBE9  A9 66     LDA #$66                        A:66 X:8A Y:AA P:E5 SP:FB CYC:  0
DBEB  B8        CLV                             A:66 X:8A Y:AA P:65 SP:FB CYC:  0
DBEC  18        CLC                             A:66 X:8A Y:AA P:25 SP:FB CYC:  0
DBED  A0 00     LDY #$00                        A:66 X:8A Y:AA P:24 SP:FB CYC:  0
DBEF  B4 FF     LDY $FF,X @ 89 = BB             A:66 X:8A Y:00 P:26 SP:FB CYC:  0
DBF1  10 12     BPL $DC05                       A:66 X:8A Y:BB P:A4 SP:FB CYC:  0
DBF3  F0 10     BEQ $DC05                       A:66 X:8A Y:BB P:A4 SP:FB CYC:  0
DBF5  70 0E     BVS $DC05                       A:66 X:8A Y:BB P:A4 SP:FB CYC:  0
DBF7  B0 0C     BCS $DC05                       A:66 X:8A Y:BB P:A4 SP:FB CYC:  0
DBF9  C0 BB     CPY #$BB                        A:66 X:8A Y:BB P:A4 SP:FB CYC:  0
DBFB  D0 08     BNE $DC05                       A:66 X:8A Y:BB P:27 SP:FB CYC:  0
DBFD  C9 66     CMP #$66                        A:66 X:8A Y:BB P:27 SP:FB CYC:  0
DBFF  D0 04     BNE $DC05                       A:66 X:8A Y:BB P:27 SP:FB CYC:  0
DC01  E0 8A     CPX #$8A                        A:66 X:8A Y:BB P:27 SP:FB CYC:  0
DC03  F0 04     BEQ $DC09                       A:66 X:8A Y:BB P:27 SP:FB CYC:  0
DC09  24 01     BIT $01 = FF                    A:66 X:8A Y:BB P:27 SP:FB CYC:  0
DC0B  38        SEC                             A:66 X:8A Y:BB P:E5 SP:FB CYC:  0
DC0C  A0 44     LDY #$44                        A:66 X:8A Y:BB P:E5 SP:FB CYC:  0
DC0E  A2 00     LDX #$00                        A:66 X:8A Y:44 P:65 SP:FB CYC:  0
DC10  94 33     STY $33,X @ 33 = AA             A:66 X:00 Y:44 P:67 SP:FB CYC:  0
DC12  A5 33     LDA $33 = 44                    A:66 X:00 Y:44 P:67 SP:FB CYC:  0
DC14  90 18     BCC $DC2E                       A:44 X:00 Y:44 P:65 SP:FB CYC:  0
DC16  C9 44     CMP #$44                        A:44 X:00 Y:44 P:65 SP:FB CYC:  0
DC18  D0 14     BNE $DC2E                       A:44 X:00 Y:44 P:67 SP:FB CYC:  0
DC1A  50 12     BVC $DC2E                       A:44 X:00 Y:44 P:67 SP:FB CYC:  0
DC1C  18        CLC                             A:44 X:00 Y:44 P:67 SP:FB CYC:  0
DC1D  B8        CLV                             A:44 X:00 Y:44 P:66 SP:FB CYC:  0
DC1E  A0 99     LDY #$99                        A:44 X:00 Y:44 P:26 SP:FB CYC:  0
DC20  A2 80     LDX #$80                        A:44 X:00 Y:99 P:A4 SP:FB CYC:  0
DC22  94 85     STY $85,X @ 05 = 00             A:44 X:80 Y:99 P:A4 SP:FB CYC:  0
DC24  A5 05     LDA $05 = 99                    A:44 X:80 Y:99 P:A4 SP:FB CYC:  0
DC26  B0 06     BCS $DC2E                       A:99 X:80 Y:99 P:A4 SP:FB CYC:  0
DC28  C9 99     CMP #$99                        A:99 X:80 Y:99 P:A4 SP:FB CYC:  0
DC2A  D0 02     BNE $DC2E                       A:99 X:80 Y:99 P:27 SP:FB CYC:  0
DC2C  50 04     BVC $DC32                       A:99 X:80 Y:99 P:27 SP:FB CYC:  0
DC32  A0 0B     LDY #$0B                        A:99 X:80 Y:99 P:27 SP:FB CYC:  0
DC34  A9 AA     LDA #$AA                        A:99 X:80 Y:0B P:25 SP:FB CYC:  0
DC36  A2 78     LDX #$78                        A:AA X:80 Y:0B P:A5 SP:FB CYC:  0
DC38  85 78     STA $78 = 00                    A:AA X:78 Y:0B P:25 SP:FB CYC:  0
DC3A  20 B6 F7  JSR $F7B6                       A:AA X:78 Y:0B P:25 SP:FB CYC:  0
F7B6  18        CLC                             A:AA X:78 Y:0B P:25 SP:F9 CYC:  0
F7B7  A9 FF     LDA #$FF                        A:AA X:78 Y:0B P:24 SP:F9 CYC:  0
F7B9  85 01     STA $01 = FF                    A:FF X:78 Y:0B P:A4 SP:F9 CYC:  0
F7BB  24 01     BIT $01 = FF                    A:FF X:78 Y:0B P:A4 SP:F9 CYC:  0
F7BD  A9 55     LDA #$55                        A:FF X:78 Y:0B P:E4 SP:F9 CYC:  0
F7BF  60        RTS                             A:55 X:78 Y:0B P:64 SP:F9 CYC:  0
DC3D  15 00     ORA $00,X @ 78 = AA             A:55 X:78 Y:0B P:64 SP:FB CYC:  0
DC3F  20 C0 F7  JSR $F7C0                       A:FF X:78 Y:0B P:E4 SP:FB CYC:  0
F7C0  B0 09     BCS $F7CB                       A:FF X:78 Y:0B P:E4 SP:F9 CYC:  0
F7C2  10 07     BPL $F7CB                       A:FF X:78 Y:0B P:E4 SP:F9 CYC:  0
F7C4  C9 FF     CMP #$FF                        A:FF X:78 Y:0B P:E4 SP:F9 CYC:  0
F7C6  D0 03     BNE $F7CB                       A:FF X:78 Y:0B P:67 SP:F9 CYC:  0
F7C8  50 01     BVC $F7CB                       A:FF X:78 Y:0B P:67 SP:F9 CYC:  0
F7CA  60        RTS                             A:FF X:78 Y:0B P:67 SP:F9 CYC:  0
DC42  C8        INY                             A:FF X:78 Y:0B P:67 SP:FB CYC:  0
DC43  A9 00     LDA #$00                        A:FF X:78 Y:0C P:65 SP:FB CYC:  0
DC45  85 78     STA $78 = AA                    A:00 X:78 Y:0C P:67 SP:FB CYC:  0
DC47  20 CE F7  JSR $F7CE                       A:00 X:78 Y:0C P:67 SP:FB CYC:  0
F7CE  38        SEC                             A:00 X:78 Y:0C P:67 SP:F9 CYC:  0
F7CF  B8        CLV                             A:00 X:78 Y:0C P:67 SP:F9 CYC:  0
F7D0  A9 00     LDA #$00                        A:00 X:78 Y:0C P:27 SP:F9 CYC:  0
F7D2  60        RTS                             A:00 X:78 Y:0C P:27 SP:F9 CYC:  0
DC4A  15 00     ORA $00,X @ 78 = 00             A:00 X:78 Y:0C P:27 SP:FB CYC:  0
DC4C  20 D3 F7  JSR $F7D3                       A:00 X:78 Y:0C P:27 SP:FB CYC:  0
F7D3  D0 07     BNE $F7DC                       A:00 X:78 Y:0C P:27 SP:F9 CYC:  0
F7D5  70 05     BVS $F7DC                       A:00 X:78 Y:0C P:27 SP:F9 CYC:  0
F7D7  90 03     BCC $F7DC                       A:00 X:78 Y:0C P:27 SP:F9 CYC:  0
F7D9  30 01     BMI $F7DC                       A:00 X:78 Y:0C P:27 SP:F9 CYC:  0
F7DB  60        RTS                             A:00 X:78 Y:0C P:27 SP:F9 CYC:  0
DC4F  C8        INY                             A:00 X:78 Y:0C P:27 SP:FB CYC:  0
DC50  A9 AA     LDA #$AA                        A:00 X:78 Y:0D P:25 SP:FB CYC:  0
DC52  85 78     STA $78 = 00                    A:AA X:78 Y:0D P:A5 SP:FB CYC:  0
DC54  20 DF F7  JSR $F7DF                       A:AA X:78 Y:0D P:A5 SP:FB CYC:  0
F7DF  18        CLC                             A:AA X:78 Y:0D P:A5 SP:F9 CYC:  0
F7E0  24 01     BIT $01 = FF                    A:AA X:78 Y:0D P:A4 SP:F9 CYC:  0
F7E2  A9 55     LDA #$55                        A:AA X:78 Y:0D P:E4 SP:F9 CYC:  0
F7E4  60        RTS                             A:55 X:78 Y:0D P:64 SP:F9 CYC:  0
DC57  35 00     AND $00,X @ 78 = AA             A:55 X:78 Y:0D P:64 SP:FB CYC:  0
DC59  20 E5 F7  JSR $F7E5                       A:00 X:78 Y:0D P:66 SP:FB CYC:  0
F7E5  D0 07     BNE $F7EE                       A:00 X:78 Y:0D P:66 SP:F9 CYC:  0
F7E7  50 05     BVC $F7EE                       A:00 X:78 Y:0D P:66 SP:F9 CYC:  0
F7E9  B0 03     BCS $F7EE                       A:00 X:78 Y:0D P:66 SP:F9 CYC:  0
F7EB  30 01     BMI $F7EE                       A:00 X:78 Y:0D P:66 SP:F9 CYC:  0
F7ED  60        RTS                             A:00 X:78 Y:0D P:66 SP:F9 CYC:  0
DC5C  C8        INY                             A:00 X:78 Y:0D P:66 SP:FB CYC:  0
DC5D  A9 EF     LDA #$EF                        A:00 X:78 Y:0E P:64 SP:FB CYC:  0
DC5F  85 78     STA $78 = AA                    A:EF X:78 Y:0E P:E4 SP:FB CYC:  0
DC61  20 F1 F7  JSR $F7F1                       A:EF X:78 Y:0E P:E4 SP:FB CYC:  0
F7F1  38        SEC                             A:EF X:78 Y:0E P:E4 SP:F9 CYC:  0
F7F2  B8        CLV                             A:EF X:78 Y:0E P:E5 SP:F9 CYC:  0
F7F3  A9 F8     LDA #$F8                        A:EF X:78 Y:0E P:A5 SP:F9 CYC:  0
F7F5  60        RTS                             A:F8 X:78 Y:0E P:A5 SP:F9 CYC:  0
DC64  35 00     AND $00,X @ 78 = EF             A:F8 X:78 Y:0E P:A5 SP:FB CYC:  0
DC66  20 F6 F7  JSR $F7F6                       A:E8 X:78 Y:0E P:A5 SP:FB CYC:  0
F7F6  90 09     BCC $F801                       A:E8 X:78 Y:0E P:A5 SP:F9 CYC:  0
F7F8  10 07     BPL $F801                       A:E8 X:78 Y:0E P:A5 SP:F9 CYC:  0
F7FA  C9 E8     CMP #$E8                        A:E8 X:78 Y:0E P:A5 SP:F9 CYC:  0
F7FC  D0 03     BNE $F801                       A:E8 X:78 Y:0E P:27 SP:F9 CYC:  0
F7FE  70 01     BVS $F801                       A:E8 X:78 Y:0E P:27 SP:F9 CYC:  0
F800  60        RTS                             A:E8 X:78 Y:0E P:27 SP:F9 CYC:  0
DC69  C8        INY                             A:E8 X:78 Y:0E P:27 SP:FB CYC:  0
DC6A  A9 AA     LDA #$AA                        A:E8 X:78 Y:0F P:25 SP:FB CYC:  0
DC6C  85 78     STA $78 = EF                    A:AA X:78 Y:0F P:A5 SP:FB CYC:  0
DC6E  20 04 F8  JSR $F804                       A:AA X:78 Y:0F P:A5 SP:FB CYC:  0
F804  18        CLC                             A:AA X:78 Y:0F P:A5 SP:F9 CYC:  0
F805  24 01     BIT $01 = FF                    A:AA X:78 Y:0F P:A4 SP:F9 CYC:  0
F807  A9 5F     LDA #$5F                        A:AA X:78 Y:0F P:E4 SP:F9 CYC:  0
F809  60        RTS                             A:5F X:78 Y:0F P:64 SP:F9 CYC:  0
DC71  55 00     EOR $00,X @ 78 = AA             A:5F X:78 Y:0F P:64 SP:FB CYC:  0
DC73  20 0A F8  JSR $F80A                       A:F5 X:78 Y:0F P:E4 SP:FB CYC:  0
F80A  B0 09     BCS $F815                       A:F5 X:78 Y:0F P:E4 SP:F9 CYC:  0
F80C  10 07     BPL $F815                       A:F5 X:78 Y:0F P:E4 SP:F9 CYC:  0
F80E  C9 F5     CMP #$F5                        A:F5 X:78 Y:0F P:E4 SP:F9 CYC:  0
F810  D0 03     BNE $F815                       A:F5 X:78 Y:0F P:67 SP:F9 CYC:  0
F812  50 01     BVC $F815                       A:F5 X:78 Y:0F P:67 SP:F9 CYC:  0
F814  60        RTS                             A:F5 X:78 Y:0F P:67 SP:F9 CYC:  0
DC76  C8        INY                             A:F5 X:78 Y:0F P:67 SP:FB CYC:  0
DC77  A9 70     LDA #$70                        A:F5 X:78 Y:10 P:65 SP:FB CYC:  0
DC79  85 78     STA $78 = AA                    A:70 X:78 Y:10 P:65 SP:FB CYC:  0
DC7B  20 18 F8  JSR $F818                       A:70 X:78 Y:10 P:65 SP:FB CYC:  0
F818  38        SEC                             A:70 X:78 Y:10 P:65 SP:F9 CYC:  0
F819  B8        CLV                             A:70 X:78 Y:10 P:65 SP:F9 CYC:  0
F81A  A9 70     LDA #$70                        A:70 X:78 Y:10 P:25 SP:F9 CYC:  0
F81C  60        RTS                             A:70 X:78 Y:10 P:25 SP:F9 CYC:  0
DC7E  55 00     EOR $00,X @ 78 = 70             A:70 X:78 Y:10 P:25 SP:FB CYC:  0
DC80  20 1D F8  JSR $F81D                       A:00 X:78 Y:10 P:27 SP:FB CYC:  0
F81D  D0 07     BNE $F826                       A:00 X:78 Y:10 P:27 SP:F9 CYC:  0
F81F  70 05     BVS $F826                       A:00 X:78 Y:10 P:27 SP:F9 CYC:  0
F821  90 03     BCC $F826                       A:00 X:78 Y:10 P:27 SP:F9 CYC:  0
F823  30 01     BMI $F826                       A:00 X:78 Y:10 P:27 SP:F9 CYC:  0
F825  60        RTS                             A:00 X:78 Y:10 P:27 SP:F9 CYC:  0
DC83  C8        INY                             A:00 X:78 Y:10 P:27 SP:FB CYC:  0
DC84  A9 69     LDA #$69                        A:00 X:78 Y:11 P:25 SP:FB CYC:  0
DC86  85 78     STA $78 = 70                    A:69 X:78 Y:11 P:25 SP:FB CYC:  0
DC88  20 29 F8  JSR $F829                       A:69 X:78 Y:11 P:25 SP:FB CYC:  0
F829  18        CLC                             A:69 X:78 Y:11 P:25 SP:F9 CYC:  0
F82A  24 01     BIT $01 = FF                    A:69 X:78 Y:11 P:24 SP:F9 CYC:  0
F82C  A9 00     LDA #$00                        A:69 X:78 Y:11 P:E4 SP:F9 CYC:  0
F82E  60        RTS                             A:00 X:78 Y:11 P:66 SP:F9 CYC:  0
DC8B  75 00     ADC $00,X @ 78 = 69             A:00 X:78 Y:11 P:66 SP:FB CYC:  0
DC8D  20 2F F8  JSR $F82F                       A:69 X:78 Y:11 P:24 SP:FB CYC:  0
F82F  30 09     BMI $F83A                       A:69 X:78 Y:11 P:24 SP:F9 CYC:  0
F831  B0 07     BCS $F83A                       A:69 X:78 Y:11 P:24 SP:F9 CYC:  0
F833  C9 69     CMP #$69                        A:69 X:78 Y:11 P:24 SP:F9 CYC:  0
F835  D0 03     BNE $F83A                       A:69 X:78 Y:11 P:27 SP:F9 CYC:  0
F837  70 01     BVS $F83A                       A:69 X:78 Y:11 P:27 SP:F9 CYC:  0
F839  60        RTS                             A:69 X:78 Y:11 P:27 SP:F9 CYC:  0
DC90  C8        INY                             A:69 X:78 Y:11 P:27 SP:FB CYC:  0
DC91  20 3D F8  JSR $F83D                       A:69 X:78 Y:12 P:25 SP:FB CYC:  0
F83D  38        SEC                             A:69 X:78 Y:12 P:25 SP:F9 CYC:  0
F83E  24 01     BIT $01 = FF                    A:69 X:78 Y:12 P:25 SP:F9 CYC:  0
F840  A9 00     LDA #$00                        A:69 X:78 Y:12 P:E5 SP:F9 CYC:  0
F842  60        RTS                             A:00 X:78 Y:12 P:67 SP:F9 CYC:  0
DC94  75 00     ADC $00,X @ 78 = 69             A:00 X:78 Y:12 P:67 SP:FB CYC:  0
DC96  20 43 F8  JSR $F843                       A:6A X:78 Y:12 P:24 SP:FB CYC:  0
F843  30 09     BMI $F84E                       A:6A X:78 Y:12 P:24 SP:F9 CYC:  0
F845  B0 07     BCS $F84E                       A:6A X:78 Y:12 P:24 SP:F9 CYC:  0
F847  C9 6A     CMP #$6A                        A:6A X:78 Y:12 P:24 SP:F9 CYC:  0
F849  D0 03     BNE $F84E                       A:6A X:78 Y:12 P:27 SP:F9 CYC:  0
F84B  70 01     BVS $F84E                       A:6A X:78 Y:12 P:27 SP:F9 CYC:  0
F84D  60        RTS                             A:6A X:78 Y:12 P:27 SP:F9 CYC:  0
DC99  C8        INY                             A:6A X:78 Y:12 P:27 SP:FB CYC:  0
DC9A  A9 7F     LDA #$7F                        A:6A X:78 Y:13 P:25 SP:FB CYC:  0
DC9C  85 78     STA $78 = 69                    A:7F X:78 Y:13 P:25 SP:FB CYC:  0
DC9E  20 51 F8  JSR $F851                       A:7F X:78 Y:13 P:25 SP:FB CYC:  0
F851  38        SEC                             A:7F X:78 Y:13 P:25 SP:F9 CYC:  0
F852  B8        CLV                             A:7F X:78 Y:13 P:25 SP:F9 CYC:  0
F853  A9 7F     LDA #$7F                        A:7F X:78 Y:13 P:25 SP:F9 CYC:  0
F855  60        RTS                             A:7F X:78 Y:13 P:25 SP:F9 CYC:  0
DCA1  75 00     ADC $00,X @ 78 = 7F             A:7F X:78 Y:13 P:25 SP:FB CYC:  0
DCA3  20 56 F8  JSR $F856                       A:FF X:78 Y:13 P:E4 SP:FB CYC:  0
F856  10 09     BPL $F861                       A:FF X:78 Y:13 P:E4 SP:F9 CYC:  0
F858  B0 07     BCS $F861                       A:FF X:78 Y:13 P:E4 SP:F9 CYC:  0
F85A  C9 FF     CMP #$FF                        A:FF X:78 Y:13 P:E4 SP:F9 CYC:  0
F85C  D0 03     BNE $F861                       A:FF X:78 Y:13 P:67 SP:F9 CYC:  0
F85E  50 01     BVC $F861                       A:FF X:78 Y:13 P:67 SP:F9 CYC:  0
F860  60        RTS                             A:FF X:78 Y:13 P:67 SP:F9 CYC:  0
DCA6  C8        INY                             A:FF X:78 Y:13 P:67 SP:FB CYC:  0
DCA7  A9 80     LDA #$80                        A:FF X:78 Y:14 P:65 SP:FB CYC:  0
DCA9  85 78     STA $78 = 7F                    A:80 X:78 Y:14 P:E5 SP:FB CYC:  0
DCAB  20 64 F8  JSR $F864                       A:80 X:78 Y:14 P:E5 SP:FB CYC:  0
F864  18        CLC                             A:80 X:78 Y:14 P:E5 SP:F9 CYC:  0
F865  24 01     BIT $01 = FF                    A:80 X:78 Y:14 P:E4 SP:F9 CYC:  0
F867  A9 7F     LDA #$7F                        A:80 X:78 Y:14 P:E4 SP:F9 CYC:  0
F869  60        RTS                             A:7F X:78 Y:14 P:64 SP:F9 CYC:  0
DCAE  75 00     ADC $00,X @ 78 = 80             A:7F X:78 Y:14 P:64 SP:FB CYC:  0
DCB0  20 6A F8  JSR $F86A                       A:FF X:78 Y:14 P:A4 SP:FB CYC:  0
F86A  10 09     BPL $F875                       A:FF X:78 Y:14 P:A4 SP:F9 CYC:  0
F86C  B0 07     BCS $F875                       A:FF X:78 Y:14 P:A4 SP:F9 CYC:  0
F86E  C9 FF     CMP #$FF                        A:FF X:78 Y:14 P:A4 SP:F9 CYC:  0
F870  D0 03     BNE $F875                       A:FF X:78 Y:14 P:27 SP:F9 CYC:  0
F872  70 01     BVS $F875                       A:FF X:78 Y:14 P:27 SP:F9 CYC:  0
F874  60        RTS                             A:FF X:78 Y:14 P:27 SP:F9 CYC:  0
DCB3  C8        INY                             A:FF X:78 Y:14 P:27 SP:FB CYC:  0
DCB4  20 78 F8  JSR $F878                       A:FF X:78 Y:15 P:25 SP:FB CYC:  0
F878  38        SEC                             A:FF X:78 Y:15 P:25 SP:F9 CYC:  0
F879  B8        CLV                             A:FF X:78 Y:15 P:25 SP:F9 CYC:  0
F87A  A9 7F     LDA #$7F                        A:FF X:78 Y:15 P:25 SP:F9 CYC:  0
F87C  60        RTS                             A:7F X:78 Y:15 P:25 SP:F9 CYC:  0
DCB7  75 00     ADC $00,X @ 78 = 80             A:7F X:78 Y:15 P:25 SP:FB CYC:  0
DCB9  20 7D F8  JSR $F87D                       A:00 X:78 Y:15 P:27 SP:FB CYC:  0
F87D  D0 07     BNE $F886                       A:00 X:78 Y:15 P:27 SP:F9 CYC:  0
F87F  30 05     BMI $F886                       A:00 X:78 Y:15 P:27 SP:F9 CYC:  0
F881  70 03     BVS $F886                       A:00 X:78 Y:15 P:27 SP:F9 CYC:  0
F883  90 01     BCC $F886                       A:00 X:78 Y:15 P:27 SP:F9 CYC:  0
F885  60        RTS                             A:00 X:78 Y:15 P:27 SP:F9 CYC:  0
DCBC  C8        INY                             A:00 X:78 Y:15 P:27 SP:FB CYC:  0
DCBD  A9 40     LDA #$40                        A:00 X:78 Y:16 P:25 SP:FB CYC:  0
DCBF  85 78     STA $78 = 80                    A:40 X:78 Y:16 P:25 SP:FB CYC:  0
DCC1  20 89 F8  JSR $F889                       A:40 X:78 Y:16 P:25 SP:FB CYC:  0
F889  24 01     BIT $01 = FF                    A:40 X:78 Y:16 P:25 SP:F9 CYC:  0
F88B  A9 40     LDA #$40                        A:40 X:78 Y:16 P:E5 SP:F9 CYC:  0
F88D  60        RTS                             A:40 X:78 Y:16 P:65 SP:F9 CYC:  0
DCC4  D5 00     CMP $00,X @ 78 = 40             A:40 X:78 Y:16 P:65 SP:FB CYC:  0
DCC6  20 8E F8  JSR $F88E                       A:40 X:78 Y:16 P:67 SP:FB CYC:  0
F88E  30 07     BMI $F897                       A:40 X:78 Y:16 P:67 SP:F9 CYC:  0
F890  90 05     BCC $F897                       A:40 X:78 Y:16 P:67 SP:F9 CYC:  0
F892  D0 03     BNE $F897                       A:40 X:78 Y:16 P:67 SP:F9 CYC:  0
F894  50 01     BVC $F897                       A:40 X:78 Y:16 P:67 SP:F9 CYC:  0
F896  60        RTS                             A:40 X:78 Y:16 P:67 SP:F9 CYC:  0
DCC9  C8        INY                             A:40 X:78 Y:16 P:67 SP:FB CYC:  0
DCCA  48        PHA                             A:40 X:78 Y:17 P:65 SP:FB CYC:  0
DCCB  A9 3F     LDA #$3F                        A:40 X:78 Y:17 P:65 SP:FA CYC:  0
DCCD  85 78     STA $78 = 40                    A:3F X:78 Y:17 P:65 SP:FA CYC:  0
DCCF  68        PLA                             A:3F X:78 Y:17 P:65 SP:FA CYC:  0
DCD0  20 9A F8  JSR $F89A                       A:40 X:78 Y:17 P:65 SP:FB CYC:  0
F89A  B8        CLV                             A:40 X:78 Y:17 P:65 SP:F9 CYC:  0
F89B  60        RTS                             A:40 X:78 Y:17 P:25 SP:F9 CYC:  0
DCD3  D5 00     CMP $00,X @ 78 = 3F             A:40 X:78 Y:17 P:25 SP:FB CYC:  0
DCD5  20 9C F8  JSR $F89C                       A:40 X:78 Y:17 P:25 SP:FB CYC:  0
F89C  F0 07     BEQ $F8A5                       A:40 X:78 Y:17 P:25 SP:F9 CYC:  0
F89E  30 05     BMI $F8A5                       A:40 X:78 Y:17 P:25 SP:F9 CYC:  0
F8A0  90 03     BCC $F8A5                       A:40 X:78 Y:17 P:25 SP:F9 CYC:  0
F8A2  70 01     BVS $F8A5                       A:40 X:78 Y:17 P:25 SP:F9 CYC:  0
F8A4  60        RTS                             A:40 X:78 Y:17 P:25 SP:F9 CYC:  0
DCD8  C8        INY                             A:40 X:78 Y:17 P:25 SP:FB CYC:  0
DCD9  48        PHA                             A:40 X:78 Y:18 P:25 SP:FB CYC:  0
DCDA  A9 41     LDA #$41                        A:40 X:78 Y:18 P:25 SP:FA CYC:  0
DCDC  85 78     STA $78 = 3F                    A:41 X:78 Y:18 P:25 SP:FA CYC:  0
DCDE  68        PLA                             A:41 X:78 Y:18 P:25 SP:FA CYC:  0
DCDF  D5 00     CMP $00,X @ 78 = 41             A:40 X:78 Y:18 P:25 SP:FB CYC:  0
DCE1  20 A8 F8  JSR $F8A8                       A:40 X:78 Y:18 P:A4 SP:FB CYC:  0
F8A8  F0 05     BEQ $F8AF                       A:40 X:78 Y:18 P:A4 SP:F9 CYC:  0
F8AA  10 03     BPL $F8AF                       A:40 X:78 Y:18 P:A4 SP:F9 CYC:  0
F8AC  10 01     BPL $F8AF                       A:40 X:78 Y:18 P:A4 SP:F9 CYC:  0
F8AE  60        RTS                             A:40 X:78 Y:18 P:A4 SP:F9 CYC:  0
DCE4  C8        INY                             A:40 X:78 Y:18 P:A4 SP:FB CYC:  0
DCE5  48        PHA                             A:40 X:78 Y:19 P:24 SP:FB CYC:  0
DCE6  A9 00     LDA #$00                        A:40 X:78 Y:19 P:24 SP:FA CYC:  0
DCE8  85 78     STA $78 = 41                    A:00 X:78 Y:19 P:26 SP:FA CYC:  0
DCEA  68        PLA                             A:00 X:78 Y:19 P:26 SP:FA CYC:  0
DCEB  20 B2 F8  JSR $F8B2                       A:40 X:78 Y:19 P:24 SP:FB CYC:  0
F8B2  A9 80     LDA #$80                        A:40 X:78 Y:19 P:24 SP:F9 CYC:  0
F8B4  60        RTS                             A:80 X:78 Y:19 P:A4 SP:F9 CYC:  0
DCEE  D5 00     CMP $00,X @ 78 = 00             A:80 X:78 Y:19 P:A4 SP:FB CYC:  0
DCF0  20 B5 F8  JSR $F8B5                       A:80 X:78 Y:19 P:A5 SP:FB CYC:  0
F8B5  F0 05     BEQ $F8BC                       A:80 X:78 Y:19 P:A5 SP:F9 CYC:  0
F8B7  10 03     BPL $F8BC                       A:80 X:78 Y:19 P:A5 SP:F9 CYC:  0
F8B9  90 01     BCC $F8BC                       A:80 X:78 Y:19 P:A5 SP:F9 CYC:  0
F8BB  60        RTS                             A:80 X:78 Y:19 P:A5 SP:F9 CYC:  0
DCF3  C8        INY                             A:80 X:78 Y:19 P:A5 SP:FB CYC:  0
DCF4  48        PHA                             A:80 X:78 Y:1A P:25 SP:FB CYC:  0
DCF5  A9 80     LDA #$80                        A:80 X:78 Y:1A P:25 SP:FA CYC:  0
DCF7  85 78     STA $78 = 00                    A:80 X:78 Y:1A P:A5 SP:FA CYC:  0
DCF9  68        PLA                             A:80 X:78 Y:1A P:A5 SP:FA CYC:  0
DCFA  D5 00     CMP $00,X @ 78 = 80             A:80 X:78 Y:1A P:A5 SP:FB CYC:  0
DCFC  20 BF F8  JSR $F8BF                       A:80 X:78 Y:1A P:27 SP:FB CYC:  0
F8BF  D0 05     BNE $F8C6                       A:80 X:78 Y:1A P:27 SP:F9 CYC:  0
F8C1  30 03     BMI $F8C6                       A:80 X:78 Y:1A P:27 SP:F9 CYC:  0
F8C3  90 01     BCC $F8C6                       A:80 X:78 Y:1A P:27 SP:F9 CYC:  0
F8C5  60        RTS                             A:80 X:78 Y:1A P:27 SP:F9 CYC:  0
DCFF  C8        INY                             A:80 X:78 Y:1A P:27 SP:FB CYC:  0
DD00  48        PHA                             A:80 X:78 Y:1B P:25 SP:FB CYC:  0
DD01  A9 81     LDA #$81                        A:80 X:78 Y:1B P:25 SP:FA CYC:  0
DD03  85 78     STA $78 = 80                    A:81 X:78 Y:1B P:A5 SP:FA CYC:  0
DD05  68        PLA                             A:81 X:78 Y:1B P:A5 SP:FA CYC:  0
DD06  D5 00     CMP $00,X @ 78 = 81             A:80 X:78 Y:1B P:A5 SP:FB CYC:  0
DD08  20 C9 F8  JSR $F8C9                       A:80 X:78 Y:1B P:A4 SP:FB CYC:  0
F8C9  B0 05     BCS $F8D0                       A:80 X:78 Y:1B P:A4 SP:F9 CYC:  0
F8CB  F0 03     BEQ $F8D0                       A:80 X:78 Y:1B P:A4 SP:F9 CYC:  0
F8CD  10 01     BPL $F8D0                       A:80 X:78 Y:1B P:A4 SP:F9 CYC:  0
F8CF  60        RTS                             A:80 X:78 Y:1B P:A4 SP:F9 CYC:  0
DD0B  C8        INY                             A:80 X:78 Y:1B P:A4 SP:FB CYC:  0
DD0C  48        PHA                             A:80 X:78 Y:1C P:24 SP:FB CYC:  0
DD0D  A9 7F     LDA #$7F                        A:80 X:78 Y:1C P:24 SP:FA CYC:  0
DD0F  85 78     STA $78 = 81                    A:7F X:78 Y:1C P:24 SP:FA CYC:  0
DD11  68        PLA                             A:7F X:78 Y:1C P:24 SP:FA CYC:  0
DD12  D5 00     CMP $00,X @ 78 = 7F             A:80 X:78 Y:1C P:A4 SP:FB CYC:  0
DD14  20 D3 F8  JSR $F8D3                       A:80 X:78 Y:1C P:25 SP:FB CYC:  0
F8D3  90 05     BCC $F8DA                       A:80 X:78 Y:1C P:25 SP:F9 CYC:  0
F8D5  F0 03     BEQ $F8DA                       A:80 X:78 Y:1C P:25 SP:F9 CYC:  0
F8D7  30 01     BMI $F8DA                       A:80 X:78 Y:1C P:25 SP:F9 CYC:  0
F8D9  60        RTS                             A:80 X:78 Y:1C P:25 SP:F9 CYC:  0
DD17  C8        INY                             A:80 X:78 Y:1C P:25 SP:FB CYC:  0
DD18  A9 40     LDA #$40                        A:80 X:78 Y:1D P:25 SP:FB CYC:  0
DD1A  85 78     STA $78 = 7F                    A:40 X:78 Y:1D P:25 SP:FB CYC:  0
DD1C  20 31 F9  JSR $F931                       A:40 X:78 Y:1D P:25 SP:FB CYC:  0
F931  24 01     BIT $01 = FF                    A:40 X:78 Y:1D P:25 SP:F9 CYC:  0
F933  A9 40     LDA #$40                        A:40 X:78 Y:1D P:E5 SP:F9 CYC:  0
F935  38        SEC                             A:40 X:78 Y:1D P:65 SP:F9 CYC:  0
F936  60        RTS                             A:40 X:78 Y:1D P:65 SP:F9 CYC:  0
DD1F  F5 00     SBC $00,X @ 78 = 40             A:40 X:78 Y:1D P:65 SP:FB CYC:  0
DD21  20 37 F9  JSR $F937                       A:00 X:78 Y:1D P:27 SP:FB CYC:  0
F937  30 0B     BMI $F944                       A:00 X:78 Y:1D P:27 SP:F9 CYC:  0
F939  90 09     BCC $F944                       A:00 X:78 Y:1D P:27 SP:F9 CYC:  0
F93B  D0 07     BNE $F944                       A:00 X:78 Y:1D P:27 SP:F9 CYC:  0
F93D  70 05     BVS $F944                       A:00 X:78 Y:1D P:27 SP:F9 CYC:  0
F93F  C9 00     CMP #$00                        A:00 X:78 Y:1D P:27 SP:F9 CYC:  0
F941  D0 01     BNE $F944                       A:00 X:78 Y:1D P:27 SP:F9 CYC:  0
F943  60        RTS                             A:00 X:78 Y:1D P:27 SP:F9 CYC:  0
DD24  C8        INY                             A:00 X:78 Y:1D P:27 SP:FB CYC:  0
DD25  A9 3F     LDA #$3F                        A:00 X:78 Y:1E P:25 SP:FB CYC:  0
DD27  85 78     STA $78 = 40                    A:3F X:78 Y:1E P:25 SP:FB CYC:  0
DD29  20 47 F9  JSR $F947                       A:3F X:78 Y:1E P:25 SP:FB CYC:  0
F947  B8        CLV                             A:3F X:78 Y:1E P:25 SP:F9 CYC:  0
F948  38        SEC                             A:3F X:78 Y:1E P:25 SP:F9 CYC:  0
F949  A9 40     LDA #$40                        A:3F X:78 Y:1E P:25 SP:F9 CYC:  0
F94B  60        RTS                             A:40 X:78 Y:1E P:25 SP:F9 CYC:  0
DD2C  F5 00     SBC $00,X @ 78 = 3F             A:40 X:78 Y:1E P:25 SP:FB CYC:  0
DD2E  20 4C F9  JSR $F94C                       A:01 X:78 Y:1E P:25 SP:FB CYC:  0
F94C  F0 0B     BEQ $F959                       A:01 X:78 Y:1E P:25 SP:F9 CYC:  0
F94E  30 09     BMI $F959                       A:01 X:78 Y:1E P:25 SP:F9 CYC:  0
F950  90 07     BCC $F959                       A:01 X:78 Y:1E P:25 SP:F9 CYC:  0
F952  70 05     BVS $F959                       A:01 X:78 Y:1E P:25 SP:F9 CYC:  0
F954  C9 01     CMP #$01                        A:01 X:78 Y:1E P:25 SP:F9 CYC:  0
F956  D0 01     BNE $F959                       A:01 X:78 Y:1E P:27 SP:F9 CYC:  0
F958  60        RTS                             A:01 X:78 Y:1E P:27 SP:F9 CYC:  0
DD31  C8        INY                             A:01 X:78 Y:1E P:27 SP:FB CYC:  0
DD32  A9 41     LDA #$41                        A:01 X:78 Y:1F P:25 SP:FB CYC:  0
DD34  85 78     STA $78 = 3F                    A:41 X:78 Y:1F P:25 SP:FB CYC:  0
DD36  20 5C F9  JSR $F95C                       A:41 X:78 Y:1F P:25 SP:FB CYC:  0
F95C  A9 40     LDA #$40                        A:41 X:78 Y:1F P:25 SP:F9 CYC:  0
F95E  38        SEC                             A:40 X:78 Y:1F P:25 SP:F9 CYC:  0
F95F  24 01     BIT $01 = FF                    A:40 X:78 Y:1F P:25 SP:F9 CYC:  0
F961  60        RTS                             A:40 X:78 Y:1F P:E5 SP:F9 CYC:  0
DD39  F5 00     SBC $00,X @ 78 = 41             A:40 X:78 Y:1F P:E5 SP:FB CYC:  0
DD3B  20 62 F9  JSR $F962                       A:FF X:78 Y:1F P:A4 SP:FB CYC:  0
F962  B0 0B     BCS $F96F                       A:FF X:78 Y:1F P:A4 SP:F9 CYC:  0
F964  F0 09     BEQ $F96F                       A:FF X:78 Y:1F P:A4 SP:F9 CYC:  0
F966  10 07     BPL $F96F                       A:FF X:78 Y:1F P:A4 SP:F9 CYC:  0
F968  70 05     BVS $F96F                       A:FF X:78 Y:1F P:A4 SP:F9 CYC:  0
F96A  C9 FF     CMP #$FF                        A:FF X:78 Y:1F P:A4 SP:F9 CYC:  0
F96C  D0 01     BNE $F96F                       A:FF X:78 Y:1F P:27 SP:F9 CYC:  0
F96E  60        RTS                             A:FF X:78 Y:1F P:27 SP:F9 CYC:  0
DD3E  C8        INY                             A:FF X:78 Y:1F P:27 SP:FB CYC:  0
DD3F  A9 00     LDA #$00                        A:FF X:78 Y:20 P:25 SP:FB CYC:  0
DD41  85 78     STA $78 = 41                    A:00 X:78 Y:20 P:27 SP:FB CYC:  0
DD43  20 72 F9  JSR $F972                       A:00 X:78 Y:20 P:27 SP:FB CYC:  0
F972  18        CLC                             A:00 X:78 Y:20 P:27 SP:F9 CYC:  0
F973  A9 80     LDA #$80                        A:00 X:78 Y:20 P:26 SP:F9 CYC:  0
F975  60        RTS                             A:80 X:78 Y:20 P:A4 SP:F9 CYC:  0
DD46  F5 00     SBC $00,X @ 78 = 00             A:80 X:78 Y:20 P:A4 SP:FB CYC:  0
DD48  20 76 F9  JSR $F976                       A:7F X:78 Y:20 P:65 SP:FB CYC:  0
F976  90 05     BCC $F97D                       A:7F X:78 Y:20 P:65 SP:F9 CYC:  0
F978  C9 7F     CMP #$7F                        A:7F X:78 Y:20 P:65 SP:F9 CYC:  0
F97A  D0 01     BNE $F97D                       A:7F X:78 Y:20 P:67 SP:F9 CYC:  0
F97C  60        RTS                             A:7F X:78 Y:20 P:67 SP:F9 CYC:  0
DD4B  C8        INY                             A:7F X:78 Y:20 P:67 SP:FB CYC:  0
DD4C  A9 7F     LDA #$7F                        A:7F X:78 Y:21 P:65 SP:FB CYC:  0
DD4E  85 78     STA $78 = 00                    A:7F X:78 Y:21 P:65 SP:FB CYC:  0
DD50  20 80 F9  JSR $F980                       A:7F X:78 Y:21 P:65 SP:FB CYC:  0
F980  38        SEC                             A:7F X:78 Y:21 P:65 SP:F9 CYC:  0
F981  A9 81     LDA #$81                        A:7F X:78 Y:21 P:65 SP:F9 CYC:  0
F983  60        RTS                             A:81 X:78 Y:21 P:E5 SP:F9 CYC:  0
DD53  F5 00     SBC $00,X @ 78 = 7F             A:81 X:78 Y:21 P:E5 SP:FB CYC:  0
DD55  20 84 F9  JSR $F984                       A:02 X:78 Y:21 P:65 SP:FB CYC:  0
F984  50 07     BVC $F98D                       A:02 X:78 Y:21 P:65 SP:F9 CYC:  0
F986  90 05     BCC $F98D                       A:02 X:78 Y:21 P:65 SP:F9 CYC:  0
F988  C9 02     CMP #$02                        A:02 X:78 Y:21 P:65 SP:F9 CYC:  0
F98A  D0 01     BNE $F98D                       A:02 X:78 Y:21 P:67 SP:F9 CYC:  0
F98C  60        RTS                             A:02 X:78 Y:21 P:67 SP:F9 CYC:  0
DD58  A9 AA     LDA #$AA                        A:02 X:78 Y:21 P:67 SP:FB CYC:  0
DD5A  85 33     STA $33 = 44                    A:AA X:78 Y:21 P:E5 SP:FB CYC:  0
DD5C  A9 BB     LDA #$BB                        A:AA X:78 Y:21 P:E5 SP:FB CYC:  0
DD5E  85 89     STA $89 = BB                    A:BB X:78 Y:21 P:E5 SP:FB CYC:  0
DD60  A2 00     LDX #$00                        A:BB X:78 Y:21 P:E5 SP:FB CYC:  0
DD62  A0 66     LDY #$66                        A:BB X:00 Y:21 P:67 SP:FB CYC:  0
DD64  24 01     BIT $01 = FF                    A:BB X:00 Y:66 P:65 SP:FB CYC:  0
DD66  38        SEC                             A:BB X:00 Y:66 P:E5 SP:FB CYC:  0
DD67  A9 00     LDA #$00                        A:BB X:00 Y:66 P:E5 SP:FB CYC:  0
DD69  B5 33     LDA $33,X @ 33 = AA             A:00 X:00 Y:66 P:67 SP:FB CYC:  0
DD6B  10 12     BPL $DD7F                       A:AA X:00 Y:66 P:E5 SP:FB CYC:  0
DD6D  F0 10     BEQ $DD7F                       A:AA X:00 Y:66 P:E5 SP:FB CYC:  0
DD6F  50 0E     BVC $DD7F                       A:AA X:00 Y:66 P:E5 SP:FB CYC:  0
DD71  90 0C     BCC $DD7F                       A:AA X:00 Y:66 P:E5 SP:FB CYC:  0
DD73  C0 66     CPY #$66                        A:AA X:00 Y:66 P:E5 SP:FB CYC:  0
DD75  D0 08     BNE $DD7F                       A:AA X:00 Y:66 P:67 SP:FB CYC:  0
DD77  E0 00     CPX #$00                        A:AA X:00 Y:66 P:67 SP:FB CYC:  0
DD79  D0 04     BNE $DD7F                       A:AA X:00 Y:66 P:67 SP:FB CYC:  0
DD7B  C9 AA     CMP #$AA                        A:AA X:00 Y:66 P:67 SP:FB CYC:  0
DD7D  F0 04     BEQ $DD83                       A:AA X:00 Y:66 P:67 SP:FB CYC:  0
DD83  A2 8A     LDX #$8A                        A:AA X:00 Y:66 P:67 SP:FB CYC:  0
DD85  A0 66     LDY #$66                        A:AA X:8A Y:66 P:E5 SP:FB CYC:  0
DD87  B8        CLV                             A:AA X:8A Y:66 P:65 SP:FB CYC:  0
DD88  18        CLC                             A:AA X:8A Y:66 P:25 SP:FB CYC:  0
DD89  A9 00     LDA #$00                        A:AA X:8A Y:66 P:24 SP:FB CYC:  0
DD8B  B5 FF     LDA $FF,X @ 89 = BB             A:00 X:8A Y:66 P:26 SP:FB CYC:  0
DD8D  10 12     BPL $DDA1                       A:BB X:8A Y:66 P:A4 SP:FB CYC:  0
DD8F  F0 10     BEQ $DDA1                       A:BB X:8A Y:66 P:A4 SP:FB CYC:  0
DD91  70 0E     BVS $DDA1                       A:BB X:8A Y:66 P:A4 SP:FB CYC:  0
DD93  B0 0C     BCS $DDA1                       A:BB X:8A Y:66 P:A4 SP:FB CYC:  0
DD95  C9 BB     CMP #$BB                        A:BB X:8A Y:66 P:A4 SP:FB CYC:  0
DD97  D0 08     BNE $DDA1                       A:BB X:8A Y:66 P:27 SP:FB CYC:  0
DD99  C0 66     CPY #$66                        A:BB X:8A Y:66 P:27 SP:FB CYC:  0
DD9B  D0 04     BNE $DDA1                       A:BB X:8A Y:66 P:27 SP:FB CYC:  0
DD9D  E0 8A     CPX #$8A                        A:BB X:8A Y:66 P:27 SP:FB CYC:  0
DD9F  F0 04     BEQ $DDA5                       A:BB X:8A Y:66 P:27 SP:FB CYC:  0
DDA5  24 01     BIT $01 = FF                    A:BB X:8A Y:66 P:27 SP:FB CYC:  0
DDA7  38        SEC                             A:BB X:8A Y:66 P:E5 SP:FB CYC:  0
DDA8  A9 44     LDA #$44                        A:BB X:8A Y:66 P:E5 SP:FB CYC:  0
DDAA  A2 00     LDX #$00                        A:44 X:8A Y:66 P:65 SP:FB CYC:  0
DDAC  95 33     STA $33,X @ 33 = AA             A:44 X:00 Y:66 P:67 SP:FB CYC:  0
DDAE  A5 33     LDA $33 = 44                    A:44 X:00 Y:66 P:67 SP:FB CYC:  0
DDB0  90 18     BCC $DDCA                       A:44 X:00 Y:66 P:65 SP:FB CYC:  0
DDB2  C9 44     CMP #$44                        A:44 X:00 Y:66 P:65 SP:FB CYC:  0
DDB4  D0 14     BNE $DDCA                       A:44 X:00 Y:66 P:67 SP:FB CYC:  0
DDB6  50 12     BVC $DDCA                       A:44 X:00 Y:66 P:67 SP:FB CYC:  0
DDB8  18        CLC                             A:44 X:00 Y:66 P:67 SP:FB CYC:  0
DDB9  B8        CLV                             A:44 X:00 Y:66 P:66 SP:FB CYC:  0
DDBA  A9 99     LDA #$99                        A:44 X:00 Y:66 P:26 SP:FB CYC:  0
DDBC  A2 80     LDX #$80                        A:99 X:00 Y:66 P:A4 SP:FB CYC:  0
DDBE  95 85     STA $85,X @ 05 = 99             A:99 X:80 Y:66 P:A4 SP:FB CYC:  0
DDC0  A5 05     LDA $05 = 99                    A:99 X:80 Y:66 P:A4 SP:FB CYC:  0
DDC2  B0 06     BCS $DDCA                       A:99 X:80 Y:66 P:A4 SP:FB CYC:  0
DDC4  C9 99     CMP #$99                        A:99 X:80 Y:66 P:A4 SP:FB CYC:  0
DDC6  D0 02     BNE $DDCA                       A:99 X:80 Y:66 P:27 SP:FB CYC:  0
DDC8  50 04     BVC $DDCE                       A:99 X:80 Y:66 P:27 SP:FB CYC:  0
DDCE  A0 25     LDY #$25                        A:99 X:80 Y:66 P:27 SP:FB CYC:  0
DDD0  A2 78     LDX #$78                        A:99 X:80 Y:25 P:25 SP:FB CYC:  0
DDD2  20 90 F9  JSR $F990                       A:99 X:78 Y:25 P:25 SP:FB CYC:  0
F990  A2 55     LDX #$55                        A:99 X:78 Y:25 P:25 SP:F9 CYC:  0
F992  A9 FF     LDA #$FF                        A:99 X:55 Y:25 P:25 SP:F9 CYC:  0
F994  85 01     STA $01 = FF                    A:FF X:55 Y:25 P:A5 SP:F9 CYC:  0
F996  EA        NOP                             A:FF X:55 Y:25 P:A5 SP:F9 CYC:  0
F997  24 01     BIT $01 = FF                    A:FF X:55 Y:25 P:A5 SP:F9 CYC:  0
F999  38        SEC                             A:FF X:55 Y:25 P:E5 SP:F9 CYC:  0
F99A  A9 01     LDA #$01                        A:FF X:55 Y:25 P:E5 SP:F9 CYC:  0
F99C  60        RTS                             A:01 X:55 Y:25 P:65 SP:F9 CYC:  0
DDD5  95 00     STA $00,X @ 55 = 00             A:01 X:55 Y:25 P:65 SP:FB CYC:  0
DDD7  56 00     LSR $00,X @ 55 = 01             A:01 X:55 Y:25 P:65 SP:FB CYC:  0
DDD9  B5 00     LDA $00,X @ 55 = 00             A:01 X:55 Y:25 P:67 SP:FB CYC:  0
DDDB  20 9D F9  JSR $F99D                       A:00 X:55 Y:25 P:67 SP:FB CYC:  0
F99D  90 1B     BCC $F9BA                       A:00 X:55 Y:25 P:67 SP:F9 CYC:  0
F99F  D0 19     BNE $F9BA                       A:00 X:55 Y:25 P:67 SP:F9 CYC:  0
F9A1  30 17     BMI $F9BA                       A:00 X:55 Y:25 P:67 SP:F9 CYC:  0
F9A3  50 15     BVC $F9BA                       A:00 X:55 Y:25 P:67 SP:F9 CYC:  0
F9A5  C9 00     CMP #$00                        A:00 X:55 Y:25 P:67 SP:F9 CYC:  0
F9A7  D0 11     BNE $F9BA                       A:00 X:55 Y:25 P:67 SP:F9 CYC:  0
F9A9  B8        CLV                             A:00 X:55 Y:25 P:67 SP:F9 CYC:  0
F9AA  A9 AA     LDA #$AA                        A:00 X:55 Y:25 P:27 SP:F9 CYC:  0
F9AC  60        RTS                             A:AA X:55 Y:25 P:A5 SP:F9 CYC:  0
DDDE  C8        INY                             A:AA X:55 Y:25 P:A5 SP:FB CYC:  0
DDDF  95 00     STA $00,X @ 55 = 00             A:AA X:55 Y:26 P:25 SP:FB CYC:  0
DDE1  56 00     LSR $00,X @ 55 = AA             A:AA X:55 Y:26 P:25 SP:FB CYC:  0
DDE3  B5 00     LDA $00,X @ 55 = 55             A:AA X:55 Y:26 P:24 SP:FB CYC:  0
DDE5  20 AD F9  JSR $F9AD                       A:55 X:55 Y:26 P:24 SP:FB CYC:  0
F9AD  B0 0B     BCS $F9BA                       A:55 X:55 Y:26 P:24 SP:F9 CYC:  0
F9AF  F0 09     BEQ $F9BA                       A:55 X:55 Y:26 P:24 SP:F9 CYC:  0
F9B1  30 07     BMI $F9BA                       A:55 X:55 Y:26 P:24 SP:F9 CYC:  0
F9B3  70 05     BVS $F9BA                       A:55 X:55 Y:26 P:24 SP:F9 CYC:  0
F9B5  C9 55     CMP #$55                        A:55 X:55 Y:26 P:24 SP:F9 CYC:  0
F9B7  D0 01     BNE $F9BA                       A:55 X:55 Y:26 P:27 SP:F9 CYC:  0
F9B9  60        RTS                             A:55 X:55 Y:26 P:27 SP:F9 CYC:  0
DDE8  C8        INY                             A:55 X:55 Y:26 P:27 SP:FB CYC:  0
DDE9  20 BD F9  JSR $F9BD                       A:55 X:55 Y:27 P:25 SP:FB CYC:  0
F9BD  24 01     BIT $01 = FF                    A:55 X:55 Y:27 P:25 SP:F9 CYC:  0
F9BF  38        SEC                             A:55 X:55 Y:27 P:E5 SP:F9 CYC:  0
F9C0  A9 80     LDA #$80                        A:55 X:55 Y:27 P:E5 SP:F9 CYC:  0
F9C2  60        RTS                             A:80 X:55 Y:27 P:E5 SP:F9 CYC:  0
DDEC  95 00     STA $00,X @ 55 = 55             A:80 X:55 Y:27 P:E5 SP:FB CYC:  0
DDEE  16 00     ASL $00,X @ 55 = 80             A:80 X:55 Y:27 P:E5 SP:FB CYC:  0
DDF0  B5 00     LDA $00,X @ 55 = 00             A:80 X:55 Y:27 P:67 SP:FB CYC:  0
DDF2  20 C3 F9  JSR $F9C3                       A:00 X:55 Y:27 P:67 SP:FB CYC:  0
F9C3  90 1C     BCC $F9E1                       A:00 X:55 Y:27 P:67 SP:F9 CYC:  0
F9C5  D0 1A     BNE $F9E1                       A:00 X:55 Y:27 P:67 SP:F9 CYC:  0
F9C7  30 18     BMI $F9E1                       A:00 X:55 Y:27 P:67 SP:F9 CYC:  0
F9C9  50 16     BVC $F9E1                       A:00 X:55 Y:27 P:67 SP:F9 CYC:  0
F9CB  C9 00     CMP #$00                        A:00 X:55 Y:27 P:67 SP:F9 CYC:  0
F9CD  D0 12     BNE $F9E1                       A:00 X:55 Y:27 P:67 SP:F9 CYC:  0
F9CF  B8        CLV                             A:00 X:55 Y:27 P:67 SP:F9 CYC:  0
F9D0  A9 55     LDA #$55                        A:00 X:55 Y:27 P:27 SP:F9 CYC:  0
F9D2  38        SEC                             A:55 X:55 Y:27 P:25 SP:F9 CYC:  0
F9D3  60        RTS                             A:55 X:55 Y:27 P:25 SP:F9 CYC:  0
DDF5  C8        INY                             A:55 X:55 Y:27 P:25 SP:FB CYC:  0
DDF6  95 00     STA $00,X @ 55 = 00             A:55 X:55 Y:28 P:25 SP:FB CYC:  0
DDF8  16 00     ASL $00,X @ 55 = 55             A:55 X:55 Y:28 P:25 SP:FB CYC:  0
DDFA  B5 00     LDA $00,X @ 55 = AA             A:55 X:55 Y:28 P:A4 SP:FB CYC:  0
DDFC  20 D4 F9  JSR $F9D4                       A:AA X:55 Y:28 P:A4 SP:FB CYC:  0
F9D4  B0 0B     BCS $F9E1                       A:AA X:55 Y:28 P:A4 SP:F9 CYC:  0
F9D6  F0 09     BEQ $F9E1                       A:AA X:55 Y:28 P:A4 SP:F9 CYC:  0
F9D8  10 07     BPL $F9E1                       A:AA X:55 Y:28 P:A4 SP:F9 CYC:  0
F9DA  70 05     BVS $F9E1                       A:AA X:55 Y:28 P:A4 SP:F9 CYC:  0
F9DC  C9 AA     CMP #$AA                        A:AA X:55 Y:28 P:A4 SP:F9 CYC:  0
F9DE  D0 01     BNE $F9E1                       A:AA X:55 Y:28 P:27 SP:F9 CYC:  0
F9E0  60        RTS                             A:AA X:55 Y:28 P:27 SP:F9 CYC:  0
DDFF  C8        INY                             A:AA X:55 Y:28 P:27 SP:FB CYC:  0
DE00  20 E4 F9  JSR $F9E4                       A:AA X:55 Y:29 P:25 SP:FB CYC:  0
F9E4  24 01     BIT $01 = FF                    A:AA X:55 Y:29 P:25 SP:F9 CYC:  0
F9E6  38        SEC                             A:AA X:55 Y:29 P:E5 SP:F9 CYC:  0
F9E7  A9 01     LDA #$01                        A:AA X:55 Y:29 P:E5 SP:F9 CYC:  0
F9E9  60        RTS                             A:01 X:55 Y:29 P:65 SP:F9 CYC:  0
DE03  95 00     STA $00,X @ 55 = AA             A:01 X:55 Y:29 P:65 SP:FB CYC:  0
DE05  76 00     ROR $00,X @ 55 = 01             A:01 X:55 Y:29 P:65 SP:FB CYC:  0
DE07  B5 00     LDA $00,X @ 55 = 80             A:01 X:55 Y:29 P:E5 SP:FB CYC:  0
DE09  20 EA F9  JSR $F9EA                       A:80 X:55 Y:29 P:E5 SP:FB CYC:  0
F9EA  90 1C     BCC $FA08                       A:80 X:55 Y:29 P:E5 SP:F9 CYC:  0
F9EC  F0 1A     BEQ $FA08                       A:80 X:55 Y:29 P:E5 SP:F9 CYC:  0
F9EE  10 18     BPL $FA08                       A:80 X:55 Y:29 P:E5 SP:F9 CYC:  0
F9F0  50 16     BVC $FA08                       A:80 X:55 Y:29 P:E5 SP:F9 CYC:  0
F9F2  C9 80     CMP #$80                        A:80 X:55 Y:29 P:E5 SP:F9 CYC:  0
F9F4  D0 12     BNE $FA08                       A:80 X:55 Y:29 P:67 SP:F9 CYC:  0
F9F6  B8        CLV                             A:80 X:55 Y:29 P:67 SP:F9 CYC:  0
F9F7  18        CLC                             A:80 X:55 Y:29 P:27 SP:F9 CYC:  0
F9F8  A9 55     LDA #$55                        A:80 X:55 Y:29 P:26 SP:F9 CYC:  0
F9FA  60        RTS                             A:55 X:55 Y:29 P:24 SP:F9 CYC:  0
DE0C  C8        INY                             A:55 X:55 Y:29 P:24 SP:FB CYC:  0
DE0D  95 00     STA $00,X @ 55 = 80             A:55 X:55 Y:2A P:24 SP:FB CYC:  0
DE0F  76 00     ROR $00,X @ 55 = 55             A:55 X:55 Y:2A P:24 SP:FB CYC:  0
DE11  B5 00     LDA $00,X @ 55 = 2A             A:55 X:55 Y:2A P:25 SP:FB CYC:  0
DE13  20 FB F9  JSR $F9FB                       A:2A X:55 Y:2A P:25 SP:FB CYC:  0
F9FB  90 0B     BCC $FA08                       A:2A X:55 Y:2A P:25 SP:F9 CYC:  0
F9FD  F0 09     BEQ $FA08                       A:2A X:55 Y:2A P:25 SP:F9 CYC:  0
F9FF  30 07     BMI $FA08                       A:2A X:55 Y:2A P:25 SP:F9 CYC:  0
FA01  70 05     BVS $FA08                       A:2A X:55 Y:2A P:25 SP:F9 CYC:  0
FA03  C9 2A     CMP #$2A                        A:2A X:55 Y:2A P:25 SP:F9 CYC:  0
FA05  D0 01     BNE $FA08                       A:2A X:55 Y:2A P:27 SP:F9 CYC:  0
FA07  60        RTS                             A:2A X:55 Y:2A P:27 SP:F9 CYC:  0
DE16  C8        INY                             A:2A X:55 Y:2A P:27 SP:FB CYC:  0
DE17  20 0A FA  JSR $FA0A                       A:2A X:55 Y:2B P:25 SP:FB CYC:  0
FA0A  24 01     BIT $01 = FF                    A:2A X:55 Y:2B P:25 SP:F9 CYC:  0
FA0C  38        SEC                             A:2A X:55 Y:2B P:E5 SP:F9 CYC:  0
FA0D  A9 80     LDA #$80                        A:2A X:55 Y:2B P:E5 SP:F9 CYC:  0
FA0F  60        RTS                             A:80 X:55 Y:2B P:E5 SP:F9 CYC:  0
DE1A  95 00     STA $00,X @ 55 = 2A             A:80 X:55 Y:2B P:E5 SP:FB CYC:  0
DE1C  36 00     ROL $00,X @ 55 = 80             A:80 X:55 Y:2B P:E5 SP:FB CYC:  0
DE1E  B5 00     LDA $00,X @ 55 = 01             A:80 X:55 Y:2B P:65 SP:FB CYC:  0
DE20  20 10 FA  JSR $FA10                       A:01 X:55 Y:2B P:65 SP:FB CYC:  0
FA10  90 1C     BCC $FA2E                       A:01 X:55 Y:2B P:65 SP:F9 CYC:  0
FA12  F0 1A     BEQ $FA2E                       A:01 X:55 Y:2B P:65 SP:F9 CYC:  0
FA14  30 18     BMI $FA2E                       A:01 X:55 Y:2B P:65 SP:F9 CYC:  0
FA16  50 16     BVC $FA2E                       A:01 X:55 Y:2B P:65 SP:F9 CYC:  0
FA18  C9 01     CMP #$01                        A:01 X:55 Y:2B P:65 SP:F9 CYC:  0
FA1A  D0 12     BNE $FA2E                       A:01 X:55 Y:2B P:67 SP:F9 CYC:  0
FA1C  B8        CLV                             A:01 X:55 Y:2B P:67 SP:F9 CYC:  0
FA1D  18        CLC                             A:01 X:55 Y:2B P:27 SP:F9 CYC:  0
FA1E  A9 55     LDA #$55                        A:01 X:55 Y:2B P:26 SP:F9 CYC:  0
FA20  60        RTS                             A:55 X:55 Y:2B P:24 SP:F9 CYC:  0
DE23  C8        INY                             A:55 X:55 Y:2B P:24 SP:FB CYC:  0
DE24  95 00     STA $00,X @ 55 = 01             A:55 X:55 Y:2C P:24 SP:FB CYC:  0
DE26  36 00     ROL $00,X @ 55 = 55             A:55 X:55 Y:2C P:24 SP:FB CYC:  0
DE28  B5 00     LDA $00,X @ 55 = AA             A:55 X:55 Y:2C P:A4 SP:FB CYC:  0
DE2A  20 21 FA  JSR $FA21                       A:AA X:55 Y:2C P:A4 SP:FB CYC:  0
FA21  B0 0B     BCS $FA2E                       A:AA X:55 Y:2C P:A4 SP:F9 CYC:  0
FA23  F0 09     BEQ $FA2E                       A:AA X:55 Y:2C P:A4 SP:F9 CYC:  0
FA25  10 07     BPL $FA2E                       A:AA X:55 Y:2C P:A4 SP:F9 CYC:  0
FA27  70 05     BVS $FA2E                       A:AA X:55 Y:2C P:A4 SP:F9 CYC:  0
FA29  C9 AA     CMP #$AA                        A:AA X:55 Y:2C P:A4 SP:F9 CYC:  0
FA2B  D0 01     BNE $FA2E                       A:AA X:55 Y:2C P:27 SP:F9 CYC:  0
FA2D  60        RTS                             A:AA X:55 Y:2C P:27 SP:F9 CYC:  0
DE2D  A9 FF     LDA #$FF                        A:AA X:55 Y:2C P:27 SP:FB CYC:  0
DE2F  95 00     STA $00,X @ 55 = AA             A:FF X:55 Y:2C P:A5 SP:FB CYC:  0
DE31  85 01     STA $01 = FF                    A:FF X:55 Y:2C P:A5 SP:FB CYC:  0
DE33  24 01     BIT $01 = FF                    A:FF X:55 Y:2C P:A5 SP:FB CYC:  0
DE35  38        SEC                             A:FF X:55 Y:2C P:E5 SP:FB CYC:  0
DE36  F6 00     INC $00,X @ 55 = FF             A:FF X:55 Y:2C P:E5 SP:FB CYC:  0
DE38  D0 0C     BNE $DE46                       A:FF X:55 Y:2C P:67 SP:FB CYC:  0
DE3A  30 0A     BMI $DE46                       A:FF X:55 Y:2C P:67 SP:FB CYC:  0
DE3C  50 08     BVC $DE46                       A:FF X:55 Y:2C P:67 SP:FB CYC:  0
DE3E  90 06     BCC $DE46                       A:FF X:55 Y:2C P:67 SP:FB CYC:  0
DE40  B5 00     LDA $00,X @ 55 = 00             A:FF X:55 Y:2C P:67 SP:FB CYC:  0
DE42  C9 00     CMP #$00                        A:00 X:55 Y:2C P:67 SP:FB CYC:  0
DE44  F0 04     BEQ $DE4A                       A:00 X:55 Y:2C P:67 SP:FB CYC:  0
DE4A  A9 7F     LDA #$7F                        A:00 X:55 Y:2C P:67 SP:FB CYC:  0
DE4C  95 00     STA $00,X @ 55 = 00             A:7F X:55 Y:2C P:65 SP:FB CYC:  0
DE4E  B8        CLV                             A:7F X:55 Y:2C P:65 SP:FB CYC:  0
DE4F  18        CLC                             A:7F X:55 Y:2C P:25 SP:FB CYC:  0
DE50  F6 00     INC $00,X @ 55 = 7F             A:7F X:55 Y:2C P:24 SP:FB CYC:  0
DE52  F0 0C     BEQ $DE60                       A:7F X:55 Y:2C P:A4 SP:FB CYC:  0
DE54  10 0A     BPL $DE60                       A:7F X:55 Y:2C P:A4 SP:FB CYC:  0
DE56  70 08     BVS $DE60                       A:7F X:55 Y:2C P:A4 SP:FB CYC:  0
DE58  B0 06     BCS $DE60                       A:7F X:55 Y:2C P:A4 SP:FB CYC:  0
DE5A  B5 00     LDA $00,X @ 55 = 80             A:7F X:55 Y:2C P:A4 SP:FB CYC:  0
DE5C  C9 80     CMP #$80                        A:80 X:55 Y:2C P:A4 SP:FB CYC:  0
DE5E  F0 04     BEQ $DE64                       A:80 X:55 Y:2C P:27 SP:FB CYC:  0
DE64  A9 00     LDA #$00                        A:80 X:55 Y:2C P:27 SP:FB CYC:  0
DE66  95 00     STA $00,X @ 55 = 80             A:00 X:55 Y:2C P:27 SP:FB CYC:  0
DE68  24 01     BIT $01 = FF                    A:00 X:55 Y:2C P:27 SP:FB CYC:  0
DE6A  38        SEC                             A:00 X:55 Y:2C P:E7 SP:FB CYC:  0
DE6B  D6 00     DEC $00,X @ 55 = 00             A:00 X:55 Y:2C P:E7 SP:FB CYC:  0
DE6D  F0 0C     BEQ $DE7B                       A:00 X:55 Y:2C P:E5 SP:FB CYC:  0
DE6F  10 0A     BPL $DE7B                       A:00 X:55 Y:2C P:E5 SP:FB CYC:  0
DE71  50 08     BVC $DE7B                       A:00 X:55 Y:2C P:E5 SP:FB CYC:  0
DE73  90 06     BCC $DE7B                       A:00 X:55 Y:2C P:E5 SP:FB CYC:  0
DE75  B5 00     LDA $00,X @ 55 = FF             A:00 X:55 Y:2C P:E5 SP:FB CYC:  0
DE77  C9 FF     CMP #$FF                        A:FF X:55 Y:2C P:E5 SP:FB CYC:  0
DE79  F0 04     BEQ $DE7F                       A:FF X:55 Y:2C P:67 SP:FB CYC:  0
DE7F  A9 80     LDA #$80                        A:FF X:55 Y:2C P:67 SP:FB CYC:  0
DE81  95 00     STA $00,X @ 55 = FF             A:80 X:55 Y:2C P:E5 SP:FB CYC:  0
DE83  B8        CLV                             A:80 X:55 Y:2C P:E5 SP:FB CYC:  0
DE84  18        CLC                             A:80 X:55 Y:2C P:A5 SP:FB CYC:  0
DE85  D6 00     DEC $00,X @ 55 = 80             A:80 X:55 Y:2C P:A4 SP:FB CYC:  0
DE87  F0 0C     BEQ $DE95                       A:80 X:55 Y:2C P:24 SP:FB CYC:  0
DE89  30 0A     BMI $DE95                       A:80 X:55 Y:2C P:24 SP:FB CYC:  0
DE8B  70 08     BVS $DE95                       A:80 X:55 Y:2C P:24 SP:FB CYC:  0
DE8D  B0 06     BCS $DE95                       A:80 X:55 Y:2C P:24 SP:FB CYC:  0
DE8F  B5 00     LDA $00,X @ 55 = 7F             A:80 X:55 Y:2C P:24 SP:FB CYC:  0
DE91  C9 7F     CMP #$7F                        A:7F X:55 Y:2C P:24 SP:FB CYC:  0
DE93  F0 04     BEQ $DE99                       A:7F X:55 Y:2C P:27 SP:FB CYC:  0
DE99  A9 01     LDA #$01                        A:7F X:55 Y:2C P:27 SP:FB CYC:  0
DE9B  95 00     STA $00,X @ 55 = 7F             A:01 X:55 Y:2C P:25 SP:FB CYC:  0
DE9D  D6 00     DEC $00,X @ 55 = 01             A:01 X:55 Y:2C P:25 SP:FB CYC:  0
DE9F  F0 04     BEQ $DEA5                       A:01 X:55 Y:2C P:27 SP:FB CYC:  0
DEA5  A9 33     LDA #$33                        A:01 X:55 Y:2C P:27 SP:FB CYC:  0
DEA7  85 78     STA $78 = 7F                    A:33 X:55 Y:2C P:25 SP:FB CYC:  0
DEA9  A9 44     LDA #$44                        A:33 X:55 Y:2C P:25 SP:FB CYC:  0
DEAB  A0 78     LDY #$78                        A:44 X:55 Y:2C P:25 SP:FB CYC:  0
DEAD  A2 00     LDX #$00                        A:44 X:55 Y:78 P:25 SP:FB CYC:  0
DEAF  38        SEC                             A:44 X:00 Y:78 P:27 SP:FB CYC:  0
DEB0  24 01     BIT $01 = FF                    A:44 X:00 Y:78 P:27 SP:FB CYC:  0
DEB2  B6 00     LDX $00,Y @ 78 = 33             A:44 X:00 Y:78 P:E5 SP:FB CYC:  0
DEB4  90 12     BCC $DEC8                       A:44 X:33 Y:78 P:65 SP:FB CYC:  0
DEB6  50 10     BVC $DEC8                       A:44 X:33 Y:78 P:65 SP:FB CYC:  0
DEB8  30 0E     BMI $DEC8                       A:44 X:33 Y:78 P:65 SP:FB CYC:  0
DEBA  F0 0C     BEQ $DEC8                       A:44 X:33 Y:78 P:65 SP:FB CYC:  0
DEBC  E0 33     CPX #$33                        A:44 X:33 Y:78 P:65 SP:FB CYC:  0
DEBE  D0 08     BNE $DEC8                       A:44 X:33 Y:78 P:67 SP:FB CYC:  0
DEC0  C0 78     CPY #$78                        A:44 X:33 Y:78 P:67 SP:FB CYC:  0
DEC2  D0 04     BNE $DEC8                       A:44 X:33 Y:78 P:67 SP:FB CYC:  0
DEC4  C9 44     CMP #$44                        A:44 X:33 Y:78 P:67 SP:FB CYC:  0
DEC6  F0 04     BEQ $DECC                       A:44 X:33 Y:78 P:67 SP:FB CYC:  0
DECC  A9 97     LDA #$97                        A:44 X:33 Y:78 P:67 SP:FB CYC:  0
DECE  85 7F     STA $7F = 00                    A:97 X:33 Y:78 P:E5 SP:FB CYC:  0
DED0  A9 47     LDA #$47                        A:97 X:33 Y:78 P:E5 SP:FB CYC:  0
DED2  A0 FF     LDY #$FF                        A:47 X:33 Y:78 P:65 SP:FB CYC:  0
DED4  A2 00     LDX #$00                        A:47 X:33 Y:FF P:E5 SP:FB CYC:  0
DED6  18        CLC                             A:47 X:00 Y:FF P:67 SP:FB CYC:  0
DED7  B8        CLV                             A:47 X:00 Y:FF P:66 SP:FB CYC:  0
DED8  B6 80     LDX $80,Y @ 7F = 97             A:47 X:00 Y:FF P:26 SP:FB CYC:  0
DEDA  B0 12     BCS $DEEE                       A:47 X:97 Y:FF P:A4 SP:FB CYC:  0
DEDC  70 10     BVS $DEEE                       A:47 X:97 Y:FF P:A4 SP:FB CYC:  0
DEDE  10 0E     BPL $DEEE                       A:47 X:97 Y:FF P:A4 SP:FB CYC:  0
DEE0  F0 0C     BEQ $DEEE                       A:47 X:97 Y:FF P:A4 SP:FB CYC:  0
DEE2  E0 97     CPX #$97                        A:47 X:97 Y:FF P:A4 SP:FB CYC:  0
DEE4  D0 08     BNE $DEEE                       A:47 X:97 Y:FF P:27 SP:FB CYC:  0
DEE6  C0 FF     CPY #$FF                        A:47 X:97 Y:FF P:27 SP:FB CYC:  0
DEE8  D0 04     BNE $DEEE                       A:47 X:97 Y:FF P:27 SP:FB CYC:  0
DEEA  C9 47     CMP #$47                        A:47 X:97 Y:FF P:27 SP:FB CYC:  0
DEEC  F0 04     BEQ $DEF2                       A:47 X:97 Y:FF P:27 SP:FB CYC:  0
DEF2  A9 00     LDA #$00                        A:47 X:97 Y:FF P:27 SP:FB CYC:  0
DEF4  85 7F     STA $7F = 97                    A:00 X:97 Y:FF P:27 SP:FB CYC:  0
DEF6  A9 47     LDA #$47                        A:00 X:97 Y:FF P:27 SP:FB CYC:  0
DEF8  A0 FF     LDY #$FF                        A:47 X:97 Y:FF P:25 SP:FB CYC:  0
DEFA  A2 69     LDX #$69                        A:47 X:97 Y:FF P:A5 SP:FB CYC:  0
DEFC  18        CLC                             A:47 X:69 Y:FF P:25 SP:FB CYC:  0
DEFD  B8        CLV                             A:47 X:69 Y:FF P:24 SP:FB CYC:  0
DEFE  96 80     STX $80,Y @ 7F = 00             A:47 X:69 Y:FF P:24 SP:FB CYC:  0
DF00  B0 18     BCS $DF1A                       A:47 X:69 Y:FF P:24 SP:FB CYC:  0
DF02  70 16     BVS $DF1A                       A:47 X:69 Y:FF P:24 SP:FB CYC:  0
DF04  30 14     BMI $DF1A                       A:47 X:69 Y:FF P:24 SP:FB CYC:  0
DF06  F0 12     BEQ $DF1A                       A:47 X:69 Y:FF P:24 SP:FB CYC:  0
DF08  E0 69     CPX #$69                        A:47 X:69 Y:FF P:24 SP:FB CYC:  0
DF0A  D0 0E     BNE $DF1A                       A:47 X:69 Y:FF P:27 SP:FB CYC:  0
DF0C  C0 FF     CPY #$FF                        A:47 X:69 Y:FF P:27 SP:FB CYC:  0
DF0E  D0 0A     BNE $DF1A                       A:47 X:69 Y:FF P:27 SP:FB CYC:  0
DF10  C9 47     CMP #$47                        A:47 X:69 Y:FF P:27 SP:FB CYC:  0
DF12  D0 06     BNE $DF1A                       A:47 X:69 Y:FF P:27 SP:FB CYC:  0
DF14  A5 7F     LDA $7F = 69                    A:47 X:69 Y:FF P:27 SP:FB CYC:  0
DF16  C9 69     CMP #$69                        A:69 X:69 Y:FF P:25 SP:FB CYC:  0
DF18  F0 04     BEQ $DF1E                       A:69 X:69 Y:FF P:27 SP:FB CYC:  0
DF1E  A9 F5     LDA #$F5                        A:69 X:69 Y:FF P:27 SP:FB CYC:  0
DF20  85 4F     STA $4F = 00                    A:F5 X:69 Y:FF P:A5 SP:FB CYC:  0
DF22  A9 47     LDA #$47                        A:F5 X:69 Y:FF P:A5 SP:FB CYC:  0
DF24  A0 4F     LDY #$4F                        A:47 X:69 Y:FF P:25 SP:FB CYC:  0
DF26  24 01     BIT $01 = FF                    A:47 X:69 Y:4F P:25 SP:FB CYC:  0
DF28  A2 00     LDX #$00                        A:47 X:69 Y:4F P:E5 SP:FB CYC:  0
DF2A  38        SEC                             A:47 X:00 Y:4F P:67 SP:FB CYC:  0
DF2B  96 00     STX $00,Y @ 4F = F5             A:47 X:00 Y:4F P:67 SP:FB CYC:  0
DF2D  90 16     BCC $DF45                       A:47 X:00 Y:4F P:67 SP:FB CYC:  0
DF2F  50 14     BVC $DF45                       A:47 X:00 Y:4F P:67 SP:FB CYC:  0
DF31  30 12     BMI $DF45                       A:47 X:00 Y:4F P:67 SP:FB CYC:  0
DF33  D0 10     BNE $DF45                       A:47 X:00 Y:4F P:67 SP:FB CYC:  0
DF35  E0 00     CPX #$00                        A:47 X:00 Y:4F P:67 SP:FB CYC:  0
DF37  D0 0C     BNE $DF45                       A:47 X:00 Y:4F P:67 SP:FB CYC:  0
DF39  C0 4F     CPY #$4F                        A:47 X:00 Y:4F P:67 SP:FB CYC:  0
DF3B  D0 08     BNE $DF45                       A:47 X:00 Y:4F P:67 SP:FB CYC:  0
DF3D  C9 47     CMP #$47                        A:47 X:00 Y:4F P:67 SP:FB CYC:  0
DF3F  D0 04     BNE $DF45                       A:47 X:00 Y:4F P:67 SP:FB CYC:  0
DF41  A5 4F     LDA $4F = 00                    A:47 X:00 Y:4F P:67 SP:FB CYC:  0
DF43  F0 04     BEQ $DF49                       A:00 X:00 Y:4F P:67 SP:FB CYC:  0
DF49  60        RTS                             A:00 X:00 Y:4F P:67 SP:FB CYC:  0
C62C  20 AA E1  JSR $E1AA                       A:00 X:00 Y:4F P:67 SP:FD CYC:  0
E1AA  A9 FF     LDA #$FF                        A:00 X:00 Y:4F P:67 SP:FB CYC:  0
E1AC  85 01     STA $01 = FF                    A:FF X:00 Y:4F P:E5 SP:FB CYC:  0
E1AE  A9 AA     LDA #$AA                        A:FF X:00 Y:4F P:E5 SP:FB CYC:  0
E1B0  8D 33 06  STA $0633 = 00                  A:AA X:00 Y:4F P:E5 SP:FB CYC:  0
E1B3  A9 BB     LDA #$BB                        A:AA X:00 Y:4F P:E5 SP:FB CYC:  0
E1B5  8D 89 06  STA $0689 = 00                  A:BB X:00 Y:4F P:E5 SP:FB CYC:  0
E1B8  A2 00     LDX #$00                        A:BB X:00 Y:4F P:E5 SP:FB CYC:  0
E1BA  A9 66     LDA #$66                        A:BB X:00 Y:4F P:67 SP:FB CYC:  0
E1BC  24 01     BIT $01 = FF                    A:66 X:00 Y:4F P:65 SP:FB CYC:  0
E1BE  38        SEC                             A:66 X:00 Y:4F P:E5 SP:FB CYC:  0
E1BF  A0 00     LDY #$00                        A:66 X:00 Y:4F P:E5 SP:FB CYC:  0
E1C1  BC 33 06  LDY $0633,X @ 0633 = AA         A:66 X:00 Y:00 P:67 SP:FB CYC:  0
E1C4  10 12     BPL $E1D8                       A:66 X:00 Y:AA P:E5 SP:FB CYC:  0
E1C6  F0 10     BEQ $E1D8                       A:66 X:00 Y:AA P:E5 SP:FB CYC:  0
E1C8  50 0E     BVC $E1D8                       A:66 X:00 Y:AA P:E5 SP:FB CYC:  0
E1CA  90 0C     BCC $E1D8                       A:66 X:00 Y:AA P:E5 SP:FB CYC:  0
E1CC  C9 66     CMP #$66                        A:66 X:00 Y:AA P:E5 SP:FB CYC:  0
E1CE  D0 08     BNE $E1D8                       A:66 X:00 Y:AA P:67 SP:FB CYC:  0
E1D0  E0 00     CPX #$00                        A:66 X:00 Y:AA P:67 SP:FB CYC:  0
E1D2  D0 04     BNE $E1D8                       A:66 X:00 Y:AA P:67 SP:FB CYC:  0
E1D4  C0 AA     CPY #$AA                        A:66 X:00 Y:AA P:67 SP:FB CYC:  0
E1D6  F0 04     BEQ $E1DC                       A:66 X:00 Y:AA P:67 SP:FB CYC:  0
E1DC  A2 8A     LDX #$8A                        A:66 X:00 Y:AA P:67 SP:FB CYC:  0
E1DE  A9 66     LDA #$66                        A:66 X:8A Y:AA P:E5 SP:FB CYC:  0
E1E0  B8        CLV                             A:66 X:8A Y:AA P:65 SP:FB CYC:  0
E1E1  18        CLC                             A:66 X:8A Y:AA P:25 SP:FB CYC:  0
E1E2  A0 00     LDY #$00                        A:66 X:8A Y:AA P:24 SP:FB CYC:  0
E1E4  BC FF 05  LDY $05FF,X @ 0689 = BB         A:66 X:8A Y:00 P:26 SP:FB CYC:  0
E1E7  10 12     BPL $E1FB                       A:66 X:8A Y:BB P:A4 SP:FB CYC:  0
E1E9  F0 10     BEQ $E1FB                       A:66 X:8A Y:BB P:A4 SP:FB CYC:  0
E1EB  70 0E     BVS $E1FB                       A:66 X:8A Y:BB P:A4 SP:FB CYC:  0
E1ED  B0 0C     BCS $E1FB                       A:66 X:8A Y:BB P:A4 SP:FB CYC:  0
E1EF  C0 BB     CPY #$BB                        A:66 X:8A Y:BB P:A4 SP:FB CYC:  0
E1F1  D0 08     BNE $E1FB                       A:66 X:8A Y:BB P:27 SP:FB CYC:  0
E1F3  C9 66     CMP #$66                        A:66 X:8A Y:BB P:27 SP:FB CYC:  0
E1F5  D0 04     BNE $E1FB                       A:66 X:8A Y:BB P:27 SP:FB CYC:  0
E1F7  E0 8A     CPX #$8A                        A:66 X:8A Y:BB P:27 SP:FB CYC:  0
E1F9  F0 04     BEQ $E1FF                       A:66 X:8A Y:BB P:27 SP:FB CYC:  0
E1FF  A0 53     LDY #$53                        A:66 X:8A Y:BB P:27 SP:FB CYC:  0
E201  A9 AA     LDA #$AA                        A:66 X:8A Y:53 P:25 SP:FB CYC:  0
E203  A2 78     LDX #$78                        A:AA X:8A Y:53 P:A5 SP:FB CYC:  0
E205  8D 78 06  STA $0678 = 00                  A:AA X:78 Y:53 P:25 SP:FB CYC:  0
E208  20 B6 F7  JSR $F7B6                       A:AA X:78 Y:53 P:25 SP:FB CYC:  0
F7B6  18        CLC                             A:AA X:78 Y:53 P:25 SP:F9 CYC:  0
F7B7  A9 FF     LDA #$FF                        A:AA X:78 Y:53 P:24 SP:F9 CYC:  0
F7B9  85 01     STA $01 = FF                    A:FF X:78 Y:53 P:A4 SP:F9 CYC:  0
F7BB  24 01     BIT $01 = FF                    A:FF X:78 Y:53 P:A4 SP:F9 CYC:  0
F7BD  A9 55     LDA #$55                        A:FF X:78 Y:53 P:E4 SP:F9 CYC:  0
F7BF  60        RTS                             A:55 X:78 Y:53 P:64 SP:F9 CYC:  0
E20B  1D 00 06  ORA $0600,X @ 0678 = AA         A:55 X:78 Y:53 P:64 SP:FB CYC:  0
E20E  20 C0 F7  JSR $F7C0                       A:FF X:78 Y:53 P:E4 SP:FB CYC:  0
F7C0  B0 09     BCS $F7CB                       A:FF X:78 Y:53 P:E4 SP:F9 CYC:  0
F7C2  10 07     BPL $F7CB                       A:FF X:78 Y:53 P:E4 SP:F9 CYC:  0
F7C4  C9 FF     CMP #$FF                        A:FF X:78 Y:53 P:E4 SP:F9 CYC:  0
F7C6  D0 03     BNE $F7CB                       A:FF X:78 Y:53 P:67 SP:F9 CYC:  0
F7C8  50 01     BVC $F7CB                       A:FF X:78 Y:53 P:67 SP:F9 CYC:  0
F7CA  60        RTS                             A:FF X:78 Y:53 P:67 SP:F9 CYC:  0
E211  C8        INY                             A:FF X:78 Y:53 P:67 SP:FB CYC:  0
E212  A9 00     LDA #$00                        A:FF X:78 Y:54 P:65 SP:FB CYC:  0
E214  8D 78 06  STA $0678 = AA                  A:00 X:78 Y:54 P:67 SP:FB CYC:  0
E217  20 CE F7  JSR $F7CE                       A:00 X:78 Y:54 P:67 SP:FB CYC:  0
F7CE  38        SEC                             A:00 X:78 Y:54 P:67 SP:F9 CYC:  0
F7CF  B8        CLV                             A:00 X:78 Y:54 P:67 SP:F9 CYC:  0
F7D0  A9 00     LDA #$00                        A:00 X:78 Y:54 P:27 SP:F9 CYC:  0
F7D2  60        RTS                             A:00 X:78 Y:54 P:27 SP:F9 CYC:  0
E21A  1D 00 06  ORA $0600,X @ 0678 = 00         A:00 X:78 Y:54 P:27 SP:FB CYC:  0
E21D  20 D3 F7  JSR $F7D3                       A:00 X:78 Y:54 P:27 SP:FB CYC:  0
F7D3  D0 07     BNE $F7DC                       A:00 X:78 Y:54 P:27 SP:F9 CYC:  0
F7D5  70 05     BVS $F7DC                       A:00 X:78 Y:54 P:27 SP:F9 CYC:  0
F7D7  90 03     BCC $F7DC                       A:00 X:78 Y:54 P:27 SP:F9 CYC:  0
F7D9  30 01     BMI $F7DC                       A:00 X:78 Y:54 P:27 SP:F9 CYC:  0
F7DB  60        RTS                             A:00 X:78 Y:54 P:27 SP:F9 CYC:  0
E220  C8        INY                             A:00 X:78 Y:54 P:27 SP:FB CYC:  0
E221  A9 AA     LDA #$AA                        A:00 X:78 Y:55 P:25 SP:FB CYC:  0
E223  8D 78 06  STA $0678 = 00                  A:AA X:78 Y:55 P:A5 SP:FB CYC:  0
E226  20 DF F7  JSR $F7DF                       A:AA X:78 Y:55 P:A5 SP:FB CYC:  0
F7DF  18        CLC                             A:AA X:78 Y:55 P:A5 SP:F9 CYC:  0
F7E0  24 01     BIT $01 = FF                    A:AA X:78 Y:55 P:A4 SP:F9 CYC:  0
F7E2  A9 55     LDA #$55                        A:AA X:78 Y:55 P:E4 SP:F9 CYC:  0
F7E4  60        RTS                             A:55 X:78 Y:55 P:64 SP:F9 CYC:  0
E229  3D 00 06  AND $0600,X @ 0678 = AA         A:55 X:78 Y:55 P:64 SP:FB CYC:  0
E22C  20 E5 F7  JSR $F7E5                       A:00 X:78 Y:55 P:66 SP:FB CYC:  0
F7E5  D0 07     BNE $F7EE                       A:00 X:78 Y:55 P:66 SP:F9 CYC:  0
F7E7  50 05     BVC $F7EE                       A:00 X:78 Y:55 P:66 SP:F9 CYC:  0
F7E9  B0 03     BCS $F7EE                       A:00 X:78 Y:55 P:66 SP:F9 CYC:  0
F7EB  30 01     BMI $F7EE                       A:00 X:78 Y:55 P:66 SP:F9 CYC:  0
F7ED  60        RTS                             A:00 X:78 Y:55 P:66 SP:F9 CYC:  0
E22F  C8        INY                             A:00 X:78 Y:55 P:66 SP:FB CYC:  0
E230  A9 EF     LDA #$EF                        A:00 X:78 Y:56 P:64 SP:FB CYC:  0
E232  8D 78 06  STA $0678 = AA                  A:EF X:78 Y:56 P:E4 SP:FB CYC:  0
E235  20 F1 F7  JSR $F7F1                       A:EF X:78 Y:56 P:E4 SP:FB CYC:  0
F7F1  38        SEC                             A:EF X:78 Y:56 P:E4 SP:F9 CYC:  0
F7F2  B8        CLV                             A:EF X:78 Y:56 P:E5 SP:F9 CYC:  0
F7F3  A9 F8     LDA #$F8                        A:EF X:78 Y:56 P:A5 SP:F9 CYC:  0
F7F5  60        RTS                             A:F8 X:78 Y:56 P:A5 SP:F9 CYC:  0
E238  3D 00 06  AND $0600,X @ 0678 = EF         A:F8 X:78 Y:56 P:A5 SP:FB CYC:  0
E23B  20 F6 F7  JSR $F7F6                       A:E8 X:78 Y:56 P:A5 SP:FB CYC:  0
F7F6  90 09     BCC $F801                       A:E8 X:78 Y:56 P:A5 SP:F9 CYC:  0
F7F8  10 07     BPL $F801                       A:E8 X:78 Y:56 P:A5 SP:F9 CYC:  0
F7FA  C9 E8     CMP #$E8                        A:E8 X:78 Y:56 P:A5 SP:F9 CYC:  0
F7FC  D0 03     BNE $F801                       A:E8 X:78 Y:56 P:27 SP:F9 CYC:  0
F7FE  70 01     BVS $F801                       A:E8 X:78 Y:56 P:27 SP:F9 CYC:  0
F800  60        RTS                             A:E8 X:78 Y:56 P:27 SP:F9 CYC:  0
E23E  C8        INY                             A:E8 X:78 Y:56 P:27 SP:FB CYC:  0
E23F  A9 AA     LDA #$AA                        A:E8 X:78 Y:57 P:25 SP:FB CYC:  0
E241  8D 78 06  STA $0678 = EF                  A:AA X:78 Y:57 P:A5 SP:FB CYC:  0
E244  20 04 F8  JSR $F804                       A:AA X:78 Y:57 P:A5 SP:FB CYC:  0
F804  18        CLC                             A:AA X:78 Y:57 P:A5 SP:F9 CYC:  0
F805  24 01     BIT $01 = FF                    A:AA X:78 Y:57 P:A4 SP:F9 CYC:  0
F807  A9 5F     LDA #$5F                        A:AA X:78 Y:57 P:E4 SP:F9 CYC:  0
F809  60        RTS                             A:5F X:78 Y:57 P:64 SP:F9 CYC:  0
E247  5D 00 06  EOR $0600,X @ 0678 = AA         A:5F X:78 Y:57 P:64 SP:FB CYC:  0
E24A  20 0A F8  JSR $F80A                       A:F5 X:78 Y:57 P:E4 SP:FB CYC:  0
F80A  B0 09     BCS $F815                       A:F5 X:78 Y:57 P:E4 SP:F9 CYC:  0
F80C  10 07     BPL $F815                       A:F5 X:78 Y:57 P:E4 SP:F9 CYC:  0
F80E  C9 F5     CMP #$F5                        A:F5 X:78 Y:57 P:E4 SP:F9 CYC:  0
F810  D0 03     BNE $F815                       A:F5 X:78 Y:57 P:67 SP:F9 CYC:  0
F812  50 01     BVC $F815                       A:F5 X:78 Y:57 P:67 SP:F9 CYC:  0
F814  60        RTS                             A:F5 X:78 Y:57 P:67 SP:F9 CYC:  0
E24D  C8        INY                             A:F5 X:78 Y:57 P:67 SP:FB CYC:  0
E24E  A9 70     LDA #$70                        A:F5 X:78 Y:58 P:65 SP:FB CYC:  0
E250  8D 78 06  STA $0678 = AA                  A:70 X:78 Y:58 P:65 SP:FB CYC:  0
E253  20 18 F8  JSR $F818                       A:70 X:78 Y:58 P:65 SP:FB CYC:  0
F818  38        SEC                             A:70 X:78 Y:58 P:65 SP:F9 CYC:  0
F819  B8        CLV                             A:70 X:78 Y:58 P:65 SP:F9 CYC:  0
F81A  A9 70     LDA #$70                        A:70 X:78 Y:58 P:25 SP:F9 CYC:  0
F81C  60        RTS                             A:70 X:78 Y:58 P:25 SP:F9 CYC:  0
E256  5D 00 06  EOR $0600,X @ 0678 = 70         A:70 X:78 Y:58 P:25 SP:FB CYC:  0
E259  20 1D F8  JSR $F81D                       A:00 X:78 Y:58 P:27 SP:FB CYC:  0
F81D  D0 07     BNE $F826                       A:00 X:78 Y:58 P:27 SP:F9 CYC:  0
F81F  70 05     BVS $F826                       A:00 X:78 Y:58 P:27 SP:F9 CYC:  0
F821  90 03     BCC $F826                       A:00 X:78 Y:58 P:27 SP:F9 CYC:  0
F823  30 01     BMI $F826                       A:00 X:78 Y:58 P:27 SP:F9 CYC:  0
F825  60        RTS                             A:00 X:78 Y:58 P:27 SP:F9 CYC:  0
E25C  C8        INY                             A:00 X:78 Y:58 P:27 SP:FB CYC:  0
E25D  A9 69     LDA #$69                        A:00 X:78 Y:59 P:25 SP:FB CYC:  0
E25F  8D 78 06  STA $0678 = 70                  A:69 X:78 Y:59 P:25 SP:FB CYC:  0
E262  20 29 F8  JSR $F829                       A:69 X:78 Y:59 P:25 SP:FB CYC:  0
F829  18        CLC                             A:69 X:78 Y:59 P:25 SP:F9 CYC:  0
F82A  24 01     BIT $01 = FF                    A:69 X:78 Y:59 P:24 SP:F9 CYC:  0
F82C  A9 00     LDA #$00                        A:69 X:78 Y:59 P:E4 SP:F9 CYC:  0
F82E  60        RTS                             A:00 X:78 Y:59 P:66 SP:F9 CYC:  0
E265  7D 00 06  ADC $0600,X @ 0678 = 69         A:00 X:78 Y:59 P:66 SP:FB CYC:  0
E268  20 2F F8  JSR $F82F                       A:69 X:78 Y:59 P:24 SP:FB CYC:  0
F82F  30 09     BMI $F83A                       A:69 X:78 Y:59 P:24 SP:F9 CYC:  0
F831  B0 07     BCS $F83A                       A:69 X:78 Y:59 P:24 SP:F9 CYC:  0
F833  C9 69     CMP #$69                        A:69 X:78 Y:59 P:24 SP:F9 CYC:  0
F835  D0 03     BNE $F83A                       A:69 X:78 Y:59 P:27 SP:F9 CYC:  0
F837  70 01     BVS $F83A                       A:69 X:78 Y:59 P:27 SP:F9 CYC:  0
F839  60        RTS                             A:69 X:78 Y:59 P:27 SP:F9 CYC:  0
E26B  C8        INY                             A:69 X:78 Y:59 P:27 SP:FB CYC:  0
E26C  20 3D F8  JSR $F83D                       A:69 X:78 Y:5A P:25 SP:FB CYC:  0
F83D  38        SEC                             A:69 X:78 Y:5A P:25 SP:F9 CYC:  0
F83E  24 01     BIT $01 = FF                    A:69 X:78 Y:5A P:25 SP:F9 CYC:  0
F840  A9 00     LDA #$00                        A:69 X:78 Y:5A P:E5 SP:F9 CYC:  0
F842  60        RTS                             A:00 X:78 Y:5A P:67 SP:F9 CYC:  0
E26F  7D 00 06  ADC $0600,X @ 0678 = 69         A:00 X:78 Y:5A P:67 SP:FB CYC:  0
E272  20 43 F8  JSR $F843                       A:6A X:78 Y:5A P:24 SP:FB CYC:  0
F843  30 09     BMI $F84E                       A:6A X:78 Y:5A P:24 SP:F9 CYC:  0
F845  B0 07     BCS $F84E                       A:6A X:78 Y:5A P:24 SP:F9 CYC:  0
F847  C9 6A     CMP #$6A                        A:6A X:78 Y:5A P:24 SP:F9 CYC:  0
F849  D0 03     BNE $F84E                       A:6A X:78 Y:5A P:27 SP:F9 CYC:  0
F84B  70 01     BVS $F84E                       A:6A X:78 Y:5A P:27 SP:F9 CYC:  0
F84D  60        RTS                             A:6A X:78 Y:5A P:27 SP:F9 CYC:  0
E275  C8        INY                             A:6A X:78 Y:5A P:27 SP:FB CYC:  0
E276  A9 7F     LDA #$7F                        A:6A X:78 Y:5B P:25 SP:FB CYC:  0
E278  8D 78 06  STA $0678 = 69                  A:7F X:78 Y:5B P:25 SP:FB CYC:  0
E27B  20 51 F8  JSR $F851                       A:7F X:78 Y:5B P:25 SP:FB CYC:  0
F851  38        SEC                             A:7F X:78 Y:5B P:25 SP:F9 CYC:  0
F852  B8        CLV                             A:7F X:78 Y:5B P:25 SP:F9 CYC:  0
F853  A9 7F     LDA #$7F                        A:7F X:78 Y:5B P:25 SP:F9 CYC:  0
F855  60        RTS                             A:7F X:78 Y:5B P:25 SP:F9 CYC:  0
E27E  7D 00 06  ADC $0600,X @ 0678 = 7F         A:7F X:78 Y:5B P:25 SP:FB CYC:  0
E281  20 56 F8  JSR $F856                       A:FF X:78 Y:5B P:E4 SP:FB CYC:  0
F856  10 09     BPL $F861                       A:FF X:78 Y:5B P:E4 SP:F9 CYC:  0
F858  B0 07     BCS $F861                       A:FF X:78 Y:5B P:E4 SP:F9 CYC:  0
F85A  C9 FF     CMP #$FF                        A:FF X:78 Y:5B P:E4 SP:F9 CYC:  0
F85C  D0 03     BNE $F861                       A:FF X:78 Y:5B P:67 SP:F9 CYC:  0
F85E  50 01     BVC $F861                       A:FF X:78 Y:5B P:67 SP:F9 CYC:  0
F860  60        RTS                             A:FF X:78 Y:5B P:67 SP:F9 CYC:  0
E284  C8        INY                             A:FF X:78 Y:5B P:67 SP:FB CYC:  0
E285  A9 80     LDA #$80                        A:FF X:78 Y:5C P:65 SP:FB CYC:  0
E287  8D 78 06  STA $0678 = 7F                  A:80 X:78 Y:5C P:E5 SP:FB CYC:  0
E28A  20 64 F8  JSR $F864                       A:80 X:78 Y:5C P:E5 SP:FB CYC:  0
F864  18        CLC                             A:80 X:78 Y:5C P:E5 SP:F9 CYC:  0
F865  24 01     BIT $01 = FF                    A:80 X:78 Y:5C P:E4 SP:F9 CYC:  0
F867  A9 7F     LDA #$7F                        A:80 X:78 Y:5C P:E4 SP:F9 CYC:  0
F869  60        RTS                             A:7F X:78 Y:5C P:64 SP:F9 CYC:  0
E28D  7D 00 06  ADC $0600,X @ 0678 = 80         A:7F X:78 Y:5C P:64 SP:FB CYC:  0
E290  20 6A F8  JSR $F86A                       A:FF X:78 Y:5C P:A4 SP:FB CYC:  0
F86A  10 09     BPL $F875                       A:FF X:78 Y:5C P:A4 SP:F9 CYC:  0
F86C  B0 07     BCS $F875                       A:FF X:78 Y:5C P:A4 SP:F9 CYC:  0
F86E  C9 FF     CMP #$FF                        A:FF X:78 Y:5C P:A4 SP:F9 CYC:  0
F870  D0 03     BNE $F875                       A:FF X:78 Y:5C P:27 SP:F9 CYC:  0
F872  70 01     BVS $F875                       A:FF X:78 Y:5C P:27 SP:F9 CYC:  0
F874  60        RTS                             A:FF X:78 Y:5C P:27 SP:F9 CYC:  0
E293  C8        INY                             A:FF X:78 Y:5C P:27 SP:FB CYC:  0
E294  20 78 F8  JSR $F878                       A:FF X:78 Y:5D P:25 SP:FB CYC:  0
F878  38        SEC                             A:FF X:78 Y:5D P:25 SP:F9 CYC:  0
F879  B8        CLV                             A:FF X:78 Y:5D P:25 SP:F9 CYC:  0
F87A  A9 7F     LDA #$7F                        A:FF X:78 Y:5D P:25 SP:F9 CYC:  0
F87C  60        RTS                             A:7F X:78 Y:5D P:25 SP:F9 CYC:  0
E297  7D 00 06  ADC $0600,X @ 0678 = 80         A:7F X:78 Y:5D P:25 SP:FB CYC:  0
E29A  20 7D F8  JSR $F87D                       A:00 X:78 Y:5D P:27 SP:FB CYC:  0
F87D  D0 07     BNE $F886                       A:00 X:78 Y:5D P:27 SP:F9 CYC:  0
F87F  30 05     BMI $F886                       A:00 X:78 Y:5D P:27 SP:F9 CYC:  0
F881  70 03     BVS $F886                       A:00 X:78 Y:5D P:27 SP:F9 CYC:  0
F883  90 01     BCC $F886                       A:00 X:78 Y:5D P:27 SP:F9 CYC:  0
F885  60        RTS                             A:00 X:78 Y:5D P:27 SP:F9 CYC:  0
E29D  C8        INY                             A:00 X:78 Y:5D P:27 SP:FB CYC:  0
E29E  A9 40     LDA #$40                        A:00 X:78 Y:5E P:25 SP:FB CYC:  0
E2A0  8D 78 06  STA $0678 = 80                  A:40 X:78 Y:5E P:25 SP:FB CYC:  0
E2A3  20 89 F8  JSR $F889                       A:40 X:78 Y:5E P:25 SP:FB CYC:  0
F889  24 01     BIT $01 = FF                    A:40 X:78 Y:5E P:25 SP:F9 CYC:  0
F88B  A9 40     LDA #$40                        A:40 X:78 Y:5E P:E5 SP:F9 CYC:  0
F88D  60        RTS                             A:40 X:78 Y:5E P:65 SP:F9 CYC:  0
E2A6  DD 00 06  CMP $0600,X @ 0678 = 40         A:40 X:78 Y:5E P:65 SP:FB CYC:  0
E2A9  20 8E F8  JSR $F88E                       A:40 X:78 Y:5E P:67 SP:FB CYC:  0
F88E  30 07     BMI $F897                       A:40 X:78 Y:5E P:67 SP:F9 CYC:  0
F890  90 05     BCC $F897                       A:40 X:78 Y:5E P:67 SP:F9 CYC:  0
F892  D0 03     BNE $F897                       A:40 X:78 Y:5E P:67 SP:F9 CYC:  0
F894  50 01     BVC $F897                       A:40 X:78 Y:5E P:67 SP:F9 CYC:  0
F896  60        RTS                             A:40 X:78 Y:5E P:67 SP:F9 CYC:  0
E2AC  C8        INY                             A:40 X:78 Y:5E P:67 SP:FB CYC:  0
E2AD  48        PHA                             A:40 X:78 Y:5F P:65 SP:FB CYC:  0
E2AE  A9 3F     LDA #$3F                        A:40 X:78 Y:5F P:65 SP:FA CYC:  0
E2B0  8D 78 06  STA $0678 = 40                  A:3F X:78 Y:5F P:65 SP:FA CYC:  0
E2B3  68        PLA                             A:3F X:78 Y:5F P:65 SP:FA CYC:  0
E2B4  20 9A F8  JSR $F89A                       A:40 X:78 Y:5F P:65 SP:FB CYC:  0
F89A  B8        CLV                             A:40 X:78 Y:5F P:65 SP:F9 CYC:  0
F89B  60        RTS                             A:40 X:78 Y:5F P:25 SP:F9 CYC:  0
E2B7  DD 00 06  CMP $0600,X @ 0678 = 3F         A:40 X:78 Y:5F P:25 SP:FB CYC:  0
E2BA  20 9C F8  JSR $F89C                       A:40 X:78 Y:5F P:25 SP:FB CYC:  0
F89C  F0 07     BEQ $F8A5                       A:40 X:78 Y:5F P:25 SP:F9 CYC:  0
F89E  30 05     BMI $F8A5                       A:40 X:78 Y:5F P:25 SP:F9 CYC:  0
F8A0  90 03     BCC $F8A5                       A:40 X:78 Y:5F P:25 SP:F9 CYC:  0
F8A2  70 01     BVS $F8A5                       A:40 X:78 Y:5F P:25 SP:F9 CYC:  0
F8A4  60        RTS                             A:40 X:78 Y:5F P:25 SP:F9 CYC:  0
E2BD  C8        INY                             A:40 X:78 Y:5F P:25 SP:FB CYC:  0
E2BE  48        PHA                             A:40 X:78 Y:60 P:25 SP:FB CYC:  0
E2BF  A9 41     LDA #$41                        A:40 X:78 Y:60 P:25 SP:FA CYC:  0
E2C1  8D 78 06  STA $0678 = 3F                  A:41 X:78 Y:60 P:25 SP:FA CYC:  0
E2C4  68        PLA                             A:41 X:78 Y:60 P:25 SP:FA CYC:  0
E2C5  DD 00 06  CMP $0600,X @ 0678 = 41         A:40 X:78 Y:60 P:25 SP:FB CYC:  0
E2C8  20 A8 F8  JSR $F8A8                       A:40 X:78 Y:60 P:A4 SP:FB CYC:  0
F8A8  F0 05     BEQ $F8AF                       A:40 X:78 Y:60 P:A4 SP:F9 CYC:  0
F8AA  10 03     BPL $F8AF                       A:40 X:78 Y:60 P:A4 SP:F9 CYC:  0
F8AC  10 01     BPL $F8AF                       A:40 X:78 Y:60 P:A4 SP:F9 CYC:  0
F8AE  60        RTS                             A:40 X:78 Y:60 P:A4 SP:F9 CYC:  0
E2CB  C8        INY                             A:40 X:78 Y:60 P:A4 SP:FB CYC:  0
E2CC  48        PHA                             A:40 X:78 Y:61 P:24 SP:FB CYC:  0
E2CD  A9 00     LDA #$00                        A:40 X:78 Y:61 P:24 SP:FA CYC:  0
E2CF  8D 78 06  STA $0678 = 41                  A:00 X:78 Y:61 P:26 SP:FA CYC:  0
E2D2  68        PLA                             A:00 X:78 Y:61 P:26 SP:FA CYC:  0
E2D3  20 B2 F8  JSR $F8B2                       A:40 X:78 Y:61 P:24 SP:FB CYC:  0
F8B2  A9 80     LDA #$80                        A:40 X:78 Y:61 P:24 SP:F9 CYC:  0
F8B4  60        RTS                             A:80 X:78 Y:61 P:A4 SP:F9 CYC:  0
E2D6  DD 00 06  CMP $0600,X @ 0678 = 00         A:80 X:78 Y:61 P:A4 SP:FB CYC:  0
E2D9  20 B5 F8  JSR $F8B5                       A:80 X:78 Y:61 P:A5 SP:FB CYC:  0
F8B5  F0 05     BEQ $F8BC                       A:80 X:78 Y:61 P:A5 SP:F9 CYC:  0
F8B7  10 03     BPL $F8BC                       A:80 X:78 Y:61 P:A5 SP:F9 CYC:  0
F8B9  90 01     BCC $F8BC                       A:80 X:78 Y:61 P:A5 SP:F9 CYC:  0
F8BB  60        RTS                             A:80 X:78 Y:61 P:A5 SP:F9 CYC:  0
E2DC  C8        INY                             A:80 X:78 Y:61 P:A5 SP:FB CYC:  0
E2DD  48        PHA                             A:80 X:78 Y:62 P:25 SP:FB CYC:  0
E2DE  A9 80     LDA #$80                        A:80 X:78 Y:62 P:25 SP:FA CYC:  0
E2E0  8D 78 06  STA $0678 = 00                  A:80 X:78 Y:62 P:A5 SP:FA CYC:  0
E2E3  68        PLA                             A:80 X:78 Y:62 P:A5 SP:FA CYC:  0
E2E4  DD 00 06  CMP $0600,X @ 0678 = 80         A:80 X:78 Y:62 P:A5 SP:FB CYC:  0
E2E7  20 BF F8  JSR $F8BF                       A:80 X:78 Y:62 P:27 SP:FB CYC:  0
F8BF  D0 05     BNE $F8C6                       A:80 X:78 Y:62 P:27 SP:F9 CYC:  0
F8C1  30 03     BMI $F8C6                       A:80 X:78 Y:62 P:27 SP:F9 CYC:  0
F8C3  90 01     BCC $F8C6                       A:80 X:78 Y:62 P:27 SP:F9 CYC:  0
F8C5  60        RTS                             A:80 X:78 Y:62 P:27 SP:F9 CYC:  0
E2EA  C8        INY                             A:80 X:78 Y:62 P:27 SP:FB CYC:  0
E2EB  48        PHA                             A:80 X:78 Y:63 P:25 SP:FB CYC:  0
E2EC  A9 81     LDA #$81                        A:80 X:78 Y:63 P:25 SP:FA CYC:  0
E2EE  8D 78 06  STA $0678 = 80                  A:81 X:78 Y:63 P:A5 SP:FA CYC:  0
E2F1  68        PLA                             A:81 X:78 Y:63 P:A5 SP:FA CYC:  0
E2F2  DD 00 06  CMP $0600,X @ 0678 = 81         A:80 X:78 Y:63 P:A5 SP:FB CYC:  0
E2F5  20 C9 F8  JSR $F8C9                       A:80 X:78 Y:63 P:A4 SP:FB CYC:  0
F8C9  B0 05     BCS $F8D0                       A:80 X:78 Y:63 P:A4 SP:F9 CYC:  0
F8CB  F0 03     BEQ $F8D0                       A:80 X:78 Y:63 P:A4 SP:F9 CYC:  0
F8CD  10 01     BPL $F8D0                       A:80 X:78 Y:63 P:A4 SP:F9 CYC:  0
F8CF  60        RTS                             A:80 X:78 Y:63 P:A4 SP:F9 CYC:  0
E2F8  C8        INY                             A:80 X:78 Y:63 P:A4 SP:FB CYC:  0
E2F9  48        PHA                             A:80 X:78 Y:64 P:24 SP:FB CYC:  0
E2FA  A9 7F     LDA #$7F                        A:80 X:78 Y:64 P:24 SP:FA CYC:  0
E2FC  8D 78 06  STA $0678 = 81                  A:7F X:78 Y:64 P:24 SP:FA CYC:  0
E2FF  68        PLA                             A:7F X:78 Y:64 P:24 SP:FA CYC:  0
E300  DD 00 06  CMP $0600,X @ 0678 = 7F         A:80 X:78 Y:64 P:A4 SP:FB CYC:  0
E303  20 D3 F8  JSR $F8D3                       A:80 X:78 Y:64 P:25 SP:FB CYC:  0
F8D3  90 05     BCC $F8DA                       A:80 X:78 Y:64 P:25 SP:F9 CYC:  0
F8D5  F0 03     BEQ $F8DA                       A:80 X:78 Y:64 P:25 SP:F9 CYC:  0
F8D7  30 01     BMI $F8DA                       A:80 X:78 Y:64 P:25 SP:F9 CYC:  0
F8D9  60        RTS                             A:80 X:78 Y:64 P:25 SP:F9 CYC:  0
E306  C8        INY                             A:80 X:78 Y:64 P:25 SP:FB CYC:  0
E307  A9 40     LDA #$40                        A:80 X:78 Y:65 P:25 SP:FB CYC:  0
E309  8D 78 06  STA $0678 = 7F                  A:40 X:78 Y:65 P:25 SP:FB CYC:  0
E30C  20 31 F9  JSR $F931                       A:40 X:78 Y:65 P:25 SP:FB CYC:  0
F931  24 01     BIT $01 = FF                    A:40 X:78 Y:65 P:25 SP:F9 CYC:  0
F933  A9 40     LDA #$40                        A:40 X:78 Y:65 P:E5 SP:F9 CYC:  0
F935  38        SEC                             A:40 X:78 Y:65 P:65 SP:F9 CYC:  0
F936  60        RTS                             A:40 X:78 Y:65 P:65 SP:F9 CYC:  0
E30F  FD 00 06  SBC $0600,X @ 0678 = 40         A:40 X:78 Y:65 P:65 SP:FB CYC:  0
E312  20 37 F9  JSR $F937                       A:00 X:78 Y:65 P:27 SP:FB CYC:  0
F937  30 0B     BMI $F944                       A:00 X:78 Y:65 P:27 SP:F9 CYC:  0
F939  90 09     BCC $F944                       A:00 X:78 Y:65 P:27 SP:F9 CYC:  0
F93B  D0 07     BNE $F944                       A:00 X:78 Y:65 P:27 SP:F9 CYC:  0
F93D  70 05     BVS $F944                       A:00 X:78 Y:65 P:27 SP:F9 CYC:  0
F93F  C9 00     CMP #$00                        A:00 X:78 Y:65 P:27 SP:F9 CYC:  0
F941  D0 01     BNE $F944                       A:00 X:78 Y:65 P:27 SP:F9 CYC:  0
F943  60        RTS                             A:00 X:78 Y:65 P:27 SP:F9 CYC:  0
E315  C8        INY                             A:00 X:78 Y:65 P:27 SP:FB CYC:  0
E316  A9 3F     LDA #$3F                        A:00 X:78 Y:66 P:25 SP:FB CYC:  0
E318  8D 78 06  STA $0678 = 40                  A:3F X:78 Y:66 P:25 SP:FB CYC:  0
E31B  20 47 F9  JSR $F947                       A:3F X:78 Y:66 P:25 SP:FB CYC:  0
F947  B8        CLV                             A:3F X:78 Y:66 P:25 SP:F9 CYC:  0
F948  38        SEC                             A:3F X:78 Y:66 P:25 SP:F9 CYC:  0
F949  A9 40     LDA #$40                        A:3F X:78 Y:66 P:25 SP:F9 CYC:  0
F94B  60        RTS                             A:40 X:78 Y:66 P:25 SP:F9 CYC:  0
E31E  FD 00 06  SBC $0600,X @ 0678 = 3F         A:40 X:78 Y:66 P:25 SP:FB CYC:  0
E321  20 4C F9  JSR $F94C                       A:01 X:78 Y:66 P:25 SP:FB CYC:  0
F94C  F0 0B     BEQ $F959                       A:01 X:78 Y:66 P:25 SP:F9 CYC:  0
F94E  30 09     BMI $F959                       A:01 X:78 Y:66 P:25 SP:F9 CYC:  0
F950  90 07     BCC $F959                       A:01 X:78 Y:66 P:25 SP:F9 CYC:  0
F952  70 05     BVS $F959                       A:01 X:78 Y:66 P:25 SP:F9 CYC:  0
F954  C9 01     CMP #$01                        A:01 X:78 Y:66 P:25 SP:F9 CYC:  0
F956  D0 01     BNE $F959                       A:01 X:78 Y:66 P:27 SP:F9 CYC:  0
F958  60        RTS                             A:01 X:78 Y:66 P:27 SP:F9 CYC:  0
E324  C8        INY                             A:01 X:78 Y:66 P:27 SP:FB CYC:  0
E325  A9 41     LDA #$41                        A:01 X:78 Y:67 P:25 SP:FB CYC:  0
E327  8D 78 06  STA $0678 = 3F                  A:41 X:78 Y:67 P:25 SP:FB CYC:  0
E32A  20 5C F9  JSR $F95C                       A:41 X:78 Y:67 P:25 SP:FB CYC:  0
F95C  A9 40     LDA #$40                        A:41 X:78 Y:67 P:25 SP:F9 CYC:  0
F95E  38        SEC                             A:40 X:78 Y:67 P:25 SP:F9 CYC:  0
F95F  24 01     BIT $01 = FF                    A:40 X:78 Y:67 P:25 SP:F9 CYC:  0
F961  60        RTS                             A:40 X:78 Y:67 P:E5 SP:F9 CYC:  0
E32D  FD 00 06  SBC $0600,X @ 0678 = 41         A:40 X:78 Y:67 P:E5 SP:FB CYC:  0
E330  20 62 F9  JSR $F962                       A:FF X:78 Y:67 P:A4 SP:FB CYC:  0
F962  B0 0B     BCS $F96F                       A:FF X:78 Y:67 P:A4 SP:F9 CYC:  0
F964  F0 09     BEQ $F96F                       A:FF X:78 Y:67 P:A4 SP:F9 CYC:  0
F966  10 07     BPL $F96F                       A:FF X:78 Y:67 P:A4 SP:F9 CYC:  0
F968  70 05     BVS $F96F                       A:FF X:78 Y:67 P:A4 SP:F9 CYC:  0
F96A  C9 FF     CMP #$FF                        A:FF X:78 Y:67 P:A4 SP:F9 CYC:  0
F96C  D0 01     BNE $F96F                       A:FF X:78 Y:67 P:27 SP:F9 CYC:  0
F96E  60        RTS                             A:FF X:78 Y:67 P:27 SP:F9 CYC:  0
E333  C8        INY                             A:FF X:78 Y:67 P:27 SP:FB CYC:  0
E334  A9 00     LDA #$00                        A:FF X:78 Y:68 P:25 SP:FB CYC:  0
E336  8D 78 06  STA $0678 = 41                  A:00 X:78 Y:68 P:27 SP:FB CYC:  0
E339  20 72 F9  JSR $F972                       A:00 X:78 Y:68 P:27 SP:FB CYC:  0
F972  18        CLC                             A:00 X:78 Y:68 P:27 SP:F9 CYC:  0
F973  A9 80     LDA #$80                        A:00 X:78 Y:68 P:26 SP:F9 CYC:  0
F975  60        RTS                             A:80 X:78 Y:68 P:A4 SP:F9 CYC:  0
E33C  FD 00 06  SBC $0600,X @ 0678 = 00         A:80 X:78 Y:68 P:A4 SP:FB CYC:  0
E33F  20 76 F9  JSR $F976                       A:7F X:78 Y:68 P:65 SP:FB CYC:  0
F976  90 05     BCC $F97D                       A:7F X:78 Y:68 P:65 SP:F9 CYC:  0
F978  C9 7F     CMP #$7F                        A:7F X:78 Y:68 P:65 SP:F9 CYC:  0
F97A  D0 01     BNE $F97D                       A:7F X:78 Y:68 P:67 SP:F9 CYC:  0
F97C  60        RTS                             A:7F X:78 Y:68 P:67 SP:F9 CYC:  0
E342  C8        INY                             A:7F X:78 Y:68 P:67 SP:FB CYC:  0
E343  A9 7F     LDA #$7F                        A:7F X:78 Y:69 P:65 SP:FB CYC:  0
E345  8D 78 06  STA $0678 = 00                  A:7F X:78 Y:69 P:65 SP:FB CYC:  0
E348  20 80 F9  JSR $F980                       A:7F X:78 Y:69 P:65 SP:FB CYC:  0
F980  38        SEC                             A:7F X:78 Y:69 P:65 SP:F9 CYC:  0
F981  A9 81     LDA #$81                        A:7F X:78 Y:69 P:65 SP:F9 CYC:  0
F983  60        RTS                             A:81 X:78 Y:69 P:E5 SP:F9 CYC:  0
E34B  FD 00 06  SBC $0600,X @ 0678 = 7F         A:81 X:78 Y:69 P:E5 SP:FB CYC:  0
E34E  20 84 F9  JSR $F984                       A:02 X:78 Y:69 P:65 SP:FB CYC:  0
F984  50 07     BVC $F98D                       A:02 X:78 Y:69 P:65 SP:F9 CYC:  0
F986  90 05     BCC $F98D                       A:02 X:78 Y:69 P:65 SP:F9 CYC:  0
F988  C9 02     CMP #$02                        A:02 X:78 Y:69 P:65 SP:F9 CYC:  0
F98A  D0 01     BNE $F98D                       A:02 X:78 Y:69 P:67 SP:F9 CYC:  0
F98C  60        RTS                             A:02 X:78 Y:69 P:67 SP:F9 CYC:  0
E351  A9 AA     LDA #$AA                        A:02 X:78 Y:69 P:67 SP:FB CYC:  0
E353  8D 33 06  STA $0633 = AA                  A:AA X:78 Y:69 P:E5 SP:FB CYC:  0
E356  A9 BB     LDA #$BB                        A:AA X:78 Y:69 P:E5 SP:FB CYC:  0
E358  8D 89 06  STA $0689 = BB                  A:BB X:78 Y:69 P:E5 SP:FB CYC:  0
E35B  A2 00     LDX #$00                        A:BB X:78 Y:69 P:E5 SP:FB CYC:  0
E35D  A0 66     LDY #$66                        A:BB X:00 Y:69 P:67 SP:FB CYC:  0
E35F  24 01     BIT $01 = FF                    A:BB X:00 Y:66 P:65 SP:FB CYC:  0
E361  38        SEC                             A:BB X:00 Y:66 P:E5 SP:FB CYC:  0
E362  A9 00     LDA #$00                        A:BB X:00 Y:66 P:E5 SP:FB CYC:  0
E364  BD 33 06  LDA $0633,X @ 0633 = AA         A:00 X:00 Y:66 P:67 SP:FB CYC:  0
E367  10 12     BPL $E37B                       A:AA X:00 Y:66 P:E5 SP:FB CYC:  0
E369  F0 10     BEQ $E37B                       A:AA X:00 Y:66 P:E5 SP:FB CYC:  0
E36B  50 0E     BVC $E37B                       A:AA X:00 Y:66 P:E5 SP:FB CYC:  0
E36D  90 0C     BCC $E37B                       A:AA X:00 Y:66 P:E5 SP:FB CYC:  0
E36F  C0 66     CPY #$66                        A:AA X:00 Y:66 P:E5 SP:FB CYC:  0
E371  D0 08     BNE $E37B                       A:AA X:00 Y:66 P:67 SP:FB CYC:  0
E373  E0 00     CPX #$00                        A:AA X:00 Y:66 P:67 SP:FB CYC:  0
E375  D0 04     BNE $E37B                       A:AA X:00 Y:66 P:67 SP:FB CYC:  0
E377  C9 AA     CMP #$AA                        A:AA X:00 Y:66 P:67 SP:FB CYC:  0
E379  F0 04     BEQ $E37F                       A:AA X:00 Y:66 P:67 SP:FB CYC:  0
E37F  A2 8A     LDX #$8A                        A:AA X:00 Y:66 P:67 SP:FB CYC:  0
E381  A0 66     LDY #$66                        A:AA X:8A Y:66 P:E5 SP:FB CYC:  0
E383  B8        CLV                             A:AA X:8A Y:66 P:65 SP:FB CYC:  0
E384  18        CLC                             A:AA X:8A Y:66 P:25 SP:FB CYC:  0
E385  A9 00     LDA #$00                        A:AA X:8A Y:66 P:24 SP:FB CYC:  0
E387  BD FF 05  LDA $05FF,X @ 0689 = BB         A:00 X:8A Y:66 P:26 SP:FB CYC:  0
E38A  10 12     BPL $E39E                       A:BB X:8A Y:66 P:A4 SP:FB CYC:  0
E38C  F0 10     BEQ $E39E                       A:BB X:8A Y:66 P:A4 SP:FB CYC:  0
E38E  70 0E     BVS $E39E                       A:BB X:8A Y:66 P:A4 SP:FB CYC:  0
E390  B0 0C     BCS $E39E                       A:BB X:8A Y:66 P:A4 SP:FB CYC:  0
E392  C9 BB     CMP #$BB                        A:BB X:8A Y:66 P:A4 SP:FB CYC:  0
E394  D0 08     BNE $E39E                       A:BB X:8A Y:66 P:27 SP:FB CYC:  0
E396  C0 66     CPY #$66                        A:BB X:8A Y:66 P:27 SP:FB CYC:  0
E398  D0 04     BNE $E39E                       A:BB X:8A Y:66 P:27 SP:FB CYC:  0
E39A  E0 8A     CPX #$8A                        A:BB X:8A Y:66 P:27 SP:FB CYC:  0
E39C  F0 04     BEQ $E3A2                       A:BB X:8A Y:66 P:27 SP:FB CYC:  0
E3A2  24 01     BIT $01 = FF                    A:BB X:8A Y:66 P:27 SP:FB CYC:  0
E3A4  38        SEC                             A:BB X:8A Y:66 P:E5 SP:FB CYC:  0
E3A5  A9 44     LDA #$44                        A:BB X:8A Y:66 P:E5 SP:FB CYC:  0
E3A7  A2 00     LDX #$00                        A:44 X:8A Y:66 P:65 SP:FB CYC:  0
E3A9  9D 33 06  STA $0633,X @ 0633 = AA         A:44 X:00 Y:66 P:67 SP:FB CYC:  0
E3AC  AD 33 06  LDA $0633 = 44                  A:44 X:00 Y:66 P:67 SP:FB CYC:  0
E3AF  90 1A     BCC $E3CB                       A:44 X:00 Y:66 P:65 SP:FB CYC:  0
E3B1  C9 44     CMP #$44                        A:44 X:00 Y:66 P:65 SP:FB CYC:  0
E3B3  D0 16     BNE $E3CB                       A:44 X:00 Y:66 P:67 SP:FB CYC:  0
E3B5  50 14     BVC $E3CB                       A:44 X:00 Y:66 P:67 SP:FB CYC:  0
E3B7  18        CLC                             A:44 X:00 Y:66 P:67 SP:FB CYC:  0
E3B8  B8        CLV                             A:44 X:00 Y:66 P:66 SP:FB CYC:  0
E3B9  A9 99     LDA #$99                        A:44 X:00 Y:66 P:26 SP:FB CYC:  0
E3BB  A2 80     LDX #$80                        A:99 X:00 Y:66 P:A4 SP:FB CYC:  0
E3BD  9D 85 05  STA $0585,X @ 0605 = 00         A:99 X:80 Y:66 P:A4 SP:FB CYC:  0
E3C0  AD 05 06  LDA $0605 = 99                  A:99 X:80 Y:66 P:A4 SP:FB CYC:  0
E3C3  B0 06     BCS $E3CB                       A:99 X:80 Y:66 P:A4 SP:FB CYC:  0
E3C5  C9 99     CMP #$99                        A:99 X:80 Y:66 P:A4 SP:FB CYC:  0
E3C7  D0 02     BNE $E3CB                       A:99 X:80 Y:66 P:27 SP:FB CYC:  0
E3C9  50 04     BVC $E3CF                       A:99 X:80 Y:66 P:27 SP:FB CYC:  0
E3CF  A0 6D     LDY #$6D                        A:99 X:80 Y:66 P:27 SP:FB CYC:  0
E3D1  A2 6D     LDX #$6D                        A:99 X:80 Y:6D P:25 SP:FB CYC:  0
E3D3  20 90 F9  JSR $F990                       A:99 X:6D Y:6D P:25 SP:FB CYC:  0
F990  A2 55     LDX #$55                        A:99 X:6D Y:6D P:25 SP:F9 CYC:  0
F992  A9 FF     LDA #$FF                        A:99 X:55 Y:6D P:25 SP:F9 CYC:  0
F994  85 01     STA $01 = FF                    A:FF X:55 Y:6D P:A5 SP:F9 CYC:  0
F996  EA        NOP                             A:FF X:55 Y:6D P:A5 SP:F9 CYC:  0
F997  24 01     BIT $01 = FF                    A:FF X:55 Y:6D P:A5 SP:F9 CYC:  0
F999  38        SEC                             A:FF X:55 Y:6D P:E5 SP:F9 CYC:  0
F99A  A9 01     LDA #$01                        A:FF X:55 Y:6D P:E5 SP:F9 CYC:  0
F99C  60        RTS                             A:01 X:55 Y:6D P:65 SP:F9 CYC:  0
E3D6  9D 00 06  STA $0600,X @ 0655 = 00         A:01 X:55 Y:6D P:65 SP:FB CYC:  0
E3D9  5E 00 06  LSR $0600,X @ 0655 = 01         A:01 X:55 Y:6D P:65 SP:FB CYC:  0
E3DC  BD 00 06  LDA $0600,X @ 0655 = 00         A:01 X:55 Y:6D P:67 SP:FB CYC:  0
E3DF  20 9D F9  JSR $F99D                       A:00 X:55 Y:6D P:67 SP:FB CYC:  0
F99D  90 1B     BCC $F9BA                       A:00 X:55 Y:6D P:67 SP:F9 CYC:  0
F99F  D0 19     BNE $F9BA                       A:00 X:55 Y:6D P:67 SP:F9 CYC:  0
F9A1  30 17     BMI $F9BA                       A:00 X:55 Y:6D P:67 SP:F9 CYC:  0
F9A3  50 15     BVC $F9BA                       A:00 X:55 Y:6D P:67 SP:F9 CYC:  0
F9A5  C9 00     CMP #$00                        A:00 X:55 Y:6D P:67 SP:F9 CYC:  0
F9A7  D0 11     BNE $F9BA                       A:00 X:55 Y:6D P:67 SP:F9 CYC:  0
F9A9  B8        CLV                             A:00 X:55 Y:6D P:67 SP:F9 CYC:  0
F9AA  A9 AA     LDA #$AA                        A:00 X:55 Y:6D P:27 SP:F9 CYC:  0
F9AC  60        RTS                             A:AA X:55 Y:6D P:A5 SP:F9 CYC:  0
E3E2  C8        INY                             A:AA X:55 Y:6D P:A5 SP:FB CYC:  0
E3E3  9D 00 06  STA $0600,X @ 0655 = 00         A:AA X:55 Y:6E P:25 SP:FB CYC:  0
E3E6  5E 00 06  LSR $0600,X @ 0655 = AA         A:AA X:55 Y:6E P:25 SP:FB CYC:  0
E3E9  BD 00 06  LDA $0600,X @ 0655 = 55         A:AA X:55 Y:6E P:24 SP:FB CYC:  0
E3EC  20 AD F9  JSR $F9AD                       A:55 X:55 Y:6E P:24 SP:FB CYC:  0
F9AD  B0 0B     BCS $F9BA                       A:55 X:55 Y:6E P:24 SP:F9 CYC:  0
F9AF  F0 09     BEQ $F9BA                       A:55 X:55 Y:6E P:24 SP:F9 CYC:  0
F9B1  30 07     BMI $F9BA                       A:55 X:55 Y:6E P:24 SP:F9 CYC:  0
F9B3  70 05     BVS $F9BA                       A:55 X:55 Y:6E P:24 SP:F9 CYC:  0
F9B5  C9 55     CMP #$55                        A:55 X:55 Y:6E P:24 SP:F9 CYC:  0
F9B7  D0 01     BNE $F9BA                       A:55 X:55 Y:6E P:27 SP:F9 CYC:  0
F9B9  60        RTS                             A:55 X:55 Y:6E P:27 SP:F9 CYC:  0
E3EF  C8        INY                             A:55 X:55 Y:6E P:27 SP:FB CYC:  0
E3F0  20 BD F9  JSR $F9BD                       A:55 X:55 Y:6F P:25 SP:FB CYC:  0
F9BD  24 01     BIT $01 = FF                    A:55 X:55 Y:6F P:25 SP:F9 CYC:  0
F9BF  38        SEC                             A:55 X:55 Y:6F P:E5 SP:F9 CYC:  0
F9C0  A9 80     LDA #$80                        A:55 X:55 Y:6F P:E5 SP:F9 CYC:  0
F9C2  60        RTS                             A:80 X:55 Y:6F P:E5 SP:F9 CYC:  0
E3F3  9D 00 06  STA $0600,X @ 0655 = 55         A:80 X:55 Y:6F P:E5 SP:FB CYC:  0
E3F6  1E 00 06  ASL $0600,X @ 0655 = 80         A:80 X:55 Y:6F P:E5 SP:FB CYC:  0
E3F9  BD 00 06  LDA $0600,X @ 0655 = 00         A:80 X:55 Y:6F P:67 SP:FB CYC:  0
E3FC  20 C3 F9  JSR $F9C3                       A:00 X:55 Y:6F P:67 SP:FB CYC:  0
F9C3  90 1C     BCC $F9E1                       A:00 X:55 Y:6F P:67 SP:F9 CYC:  0
F9C5  D0 1A     BNE $F9E1                       A:00 X:55 Y:6F P:67 SP:F9 CYC:  0
F9C7  30 18     BMI $F9E1                       A:00 X:55 Y:6F P:67 SP:F9 CYC:  0
F9C9  50 16     BVC $F9E1                       A:00 X:55 Y:6F P:67 SP:F9 CYC:  0
F9CB  C9 00     CMP #$00                        A:00 X:55 Y:6F P:67 SP:F9 CYC:  0
F9CD  D0 12     BNE $F9E1                       A:00 X:55 Y:6F P:67 SP:F9 CYC:  0
F9CF  B8        CLV                             A:00 X:55 Y:6F P:67 SP:F9 CYC:  0
F9D0  A9 55     LDA #$55                        A:00 X:55 Y:6F P:27 SP:F9 CYC:  0
F9D2  38        SEC                             A:55 X:55 Y:6F P:25 SP:F9 CYC:  0
F9D3  60        RTS                             A:55 X:55 Y:6F P:25 SP:F9 CYC:  0
E3FF  C8        INY                             A:55 X:55 Y:6F P:25 SP:FB CYC:  0
E400  9D 00 06  STA $0600,X @ 0655 = 00         A:55 X:55 Y:70 P:25 SP:FB CYC:  0
E403  1E 00 06  ASL $0600,X @ 0655 = 55         A:55 X:55 Y:70 P:25 SP:FB CYC:  0
E406  BD 00 06  LDA $0600,X @ 0655 = AA         A:55 X:55 Y:70 P:A4 SP:FB CYC:  0
E409  20 D4 F9  JSR $F9D4                       A:AA X:55 Y:70 P:A4 SP:FB CYC:  0
F9D4  B0 0B     BCS $F9E1                       A:AA X:55 Y:70 P:A4 SP:F9 CYC:  0
F9D6  F0 09     BEQ $F9E1                       A:AA X:55 Y:70 P:A4 SP:F9 CYC:  0
F9D8  10 07     BPL $F9E1                       A:AA X:55 Y:70 P:A4 SP:F9 CYC:  0
F9DA  70 05     BVS $F9E1                       A:AA X:55 Y:70 P:A4 SP:F9 CYC:  0
F9DC  C9 AA     CMP #$AA                        A:AA X:55 Y:70 P:A4 SP:F9 CYC:  0
F9DE  D0 01     BNE $F9E1                       A:AA X:55 Y:70 P:27 SP:F9 CYC:  0
F9E0  60        RTS                             A:AA X:55 Y:70 P:27 SP:F9 CYC:  0
E40C  C8        INY                             A:AA X:55 Y:70 P:27 SP:FB CYC:  0
E40D  20 E4 F9  JSR $F9E4                       A:AA X:55 Y:71 P:25 SP:FB CYC:  0
F9E4  24 01     BIT $01 = FF                    A:AA X:55 Y:71 P:25 SP:F9 CYC:  0
F9E6  38        SEC                             A:AA X:55 Y:71 P:E5 SP:F9 CYC:  0
F9E7  A9 01     LDA #$01                        A:AA X:55 Y:71 P:E5 SP:F9 CYC:  0
F9E9  60        RTS                             A:01 X:55 Y:71 P:65 SP:F9 CYC:  0
E410  9D 00 06  STA $0600,X @ 0655 = AA         A:01 X:55 Y:71 P:65 SP:FB CYC:  0
E413  7E 00 06  ROR $0600,X @ 0655 = 01         A:01 X:55 Y:71 P:65 SP:FB CYC:  0
E416  BD 00 06  LDA $0600,X @ 0655 = 80         A:01 X:55 Y:71 P:E5 SP:FB CYC:  0
E419  20 EA F9  JSR $F9EA                       A:80 X:55 Y:71 P:E5 SP:FB CYC:  0
F9EA  90 1C     BCC $FA08                       A:80 X:55 Y:71 P:E5 SP:F9 CYC:  0
F9EC  F0 1A     BEQ $FA08                       A:80 X:55 Y:71 P:E5 SP:F9 CYC:  0
F9EE  10 18     BPL $FA08                       A:80 X:55 Y:71 P:E5 SP:F9 CYC:  0
F9F0  50 16     BVC $FA08                       A:80 X:55 Y:71 P:E5 SP:F9 CYC:  0
F9F2  C9 80     CMP #$80                        A:80 X:55 Y:71 P:E5 SP:F9 CYC:  0
F9F4  D0 12     BNE $FA08                       A:80 X:55 Y:71 P:67 SP:F9 CYC:  0
F9F6  B8        CLV                             A:80 X:55 Y:71 P:67 SP:F9 CYC:  0
F9F7  18        CLC                             A:80 X:55 Y:71 P:27 SP:F9 CYC:  0
F9F8  A9 55     LDA #$55                        A:80 X:55 Y:71 P:26 SP:F9 CYC:  0
F9FA  60        RTS                             A:55 X:55 Y:71 P:24 SP:F9 CYC:  0
E41C  C8        INY                             A:55 X:55 Y:71 P:24 SP:FB CYC:  0
E41D  9D 00 06  STA $0600,X @ 0655 = 80         A:55 X:55 Y:72 P:24 SP:FB CYC:  0
E420  7E 00 06  ROR $0600,X @ 0655 = 55         A:55 X:55 Y:72 P:24 SP:FB CYC:  0
E423  BD 00 06  LDA $0600,X @ 0655 = 2A         A:55 X:55 Y:72 P:25 SP:FB CYC:  0
E426  20 FB F9  JSR $F9FB                       A:2A X:55 Y:72 P:25 SP:FB CYC:  0
F9FB  90 0B     BCC $FA08                       A:2A X:55 Y:72 P:25 SP:F9 CYC:  0
F9FD  F0 09     BEQ $FA08                       A:2A X:55 Y:72 P:25 SP:F9 CYC:  0
F9FF  30 07     BMI $FA08                       A:2A X:55 Y:72 P:25 SP:F9 CYC:  0
FA01  70 05     BVS $FA08                       A:2A X:55 Y:72 P:25 SP:F9 CYC:  0
FA03  C9 2A     CMP #$2A                        A:2A X:55 Y:72 P:25 SP:F9 CYC:  0
FA05  D0 01     BNE $FA08                       A:2A X:55 Y:72 P:27 SP:F9 CYC:  0
FA07  60        RTS                             A:2A X:55 Y:72 P:27 SP:F9 CYC:  0
E429  C8        INY                             A:2A X:55 Y:72 P:27 SP:FB CYC:  0
E42A  20 0A FA  JSR $FA0A                       A:2A X:55 Y:73 P:25 SP:FB CYC:  0
FA0A  24 01     BIT $01 = FF                    A:2A X:55 Y:73 P:25 SP:F9 CYC:  0
FA0C  38        SEC                             A:2A X:55 Y:73 P:E5 SP:F9 CYC:  0
FA0D  A9 80     LDA #$80                        A:2A X:55 Y:73 P:E5 SP:F9 CYC:  0
FA0F  60        RTS                             A:80 X:55 Y:73 P:E5 SP:F9 CYC:  0
E42D  9D 00 06  STA $0600,X @ 0655 = 2A         A:80 X:55 Y:73 P:E5 SP:FB CYC:  0
E430  3E 00 06  ROL $0600,X @ 0655 = 80         A:80 X:55 Y:73 P:E5 SP:FB CYC:  0
E433  BD 00 06  LDA $0600,X @ 0655 = 01         A:80 X:55 Y:73 P:65 SP:FB CYC:  0
E436  20 10 FA  JSR $FA10                       A:01 X:55 Y:73 P:65 SP:FB CYC:  0
FA10  90 1C     BCC $FA2E                       A:01 X:55 Y:73 P:65 SP:F9 CYC:  0
FA12  F0 1A     BEQ $FA2E                       A:01 X:55 Y:73 P:65 SP:F9 CYC:  0
FA14  30 18     BMI $FA2E                       A:01 X:55 Y:73 P:65 SP:F9 CYC:  0
FA16  50 16     BVC $FA2E                       A:01 X:55 Y:73 P:65 SP:F9 CYC:  0
FA18  C9 01     CMP #$01                        A:01 X:55 Y:73 P:65 SP:F9 CYC:  0
FA1A  D0 12     BNE $FA2E                       A:01 X:55 Y:73 P:67 SP:F9 CYC:  0
FA1C  B8        CLV                             A:01 X:55 Y:73 P:67 SP:F9 CYC:  0
FA1D  18        CLC                             A:01 X:55 Y:73 P:27 SP:F9 CYC:  0
FA1E  A9 55     LDA #$55                        A:01 X:55 Y:73 P:26 SP:F9 CYC:  0
FA20  60        RTS                             A:55 X:55 Y:73 P:24 SP:F9 CYC:  0
E439  C8        INY                             A:55 X:55 Y:73 P:24 SP:FB CYC:  0
E43A  9D 00 06  STA $0600,X @ 0655 = 01         A:55 X:55 Y:74 P:24 SP:FB CYC:  0
E43D  3E 00 06  ROL $0600,X @ 0655 = 55         A:55 X:55 Y:74 P:24 SP:FB CYC:  0
E440  BD 00 06  LDA $0600,X @ 0655 = AA         A:55 X:55 Y:74 P:A4 SP:FB CYC:  0
E443  20 21 FA  JSR $FA21                       A:AA X:55 Y:74 P:A4 SP:FB CYC:  0
FA21  B0 0B     BCS $FA2E                       A:AA X:55 Y:74 P:A4 SP:F9 CYC:  0
FA23  F0 09     BEQ $FA2E                       A:AA X:55 Y:74 P:A4 SP:F9 CYC:  0
FA25  10 07     BPL $FA2E                       A:AA X:55 Y:74 P:A4 SP:F9 CYC:  0
FA27  70 05     BVS $FA2E                       A:AA X:55 Y:74 P:A4 SP:F9 CYC:  0
FA29  C9 AA     CMP #$AA                        A:AA X:55 Y:74 P:A4 SP:F9 CYC:  0
FA2B  D0 01     BNE $FA2E                       A:AA X:55 Y:74 P:27 SP:F9 CYC:  0
FA2D  60        RTS                             A:AA X:55 Y:74 P:27 SP:F9 CYC:  0
E446  A9 FF     LDA #$FF                        A:AA X:55 Y:74 P:27 SP:FB CYC:  0
E448  9D 00 06  STA $0600,X @ 0655 = AA         A:FF X:55 Y:74 P:A5 SP:FB CYC:  0
E44B  85 01     STA $01 = FF                    A:FF X:55 Y:74 P:A5 SP:FB CYC:  0
E44D  24 01     BIT $01 = FF                    A:FF X:55 Y:74 P:A5 SP:FB CYC:  0
E44F  38        SEC                             A:FF X:55 Y:74 P:E5 SP:FB CYC:  0
E450  FE 00 06  INC $0600,X @ 0655 = FF         A:FF X:55 Y:74 P:E5 SP:FB CYC:  0
E453  D0 0D     BNE $E462                       A:FF X:55 Y:74 P:67 SP:FB CYC:  0
E455  30 0B     BMI $E462                       A:FF X:55 Y:74 P:67 SP:FB CYC:  0
E457  50 09     BVC $E462                       A:FF X:55 Y:74 P:67 SP:FB CYC:  0
E459  90 07     BCC $E462                       A:FF X:55 Y:74 P:67 SP:FB CYC:  0
E45B  BD 00 06  LDA $0600,X @ 0655 = 00         A:FF X:55 Y:74 P:67 SP:FB CYC:  0
E45E  C9 00     CMP #$00                        A:00 X:55 Y:74 P:67 SP:FB CYC:  0
E460  F0 04     BEQ $E466                       A:00 X:55 Y:74 P:67 SP:FB CYC:  0
E466  A9 7F     LDA #$7F                        A:00 X:55 Y:74 P:67 SP:FB CYC:  0
E468  9D 00 06  STA $0600,X @ 0655 = 00         A:7F X:55 Y:74 P:65 SP:FB CYC:  0
E46B  B8        CLV                             A:7F X:55 Y:74 P:65 SP:FB CYC:  0
E46C  18        CLC                             A:7F X:55 Y:74 P:25 SP:FB CYC:  0
E46D  FE 00 06  INC $0600,X @ 0655 = 7F         A:7F X:55 Y:74 P:24 SP:FB CYC:  0
E470  F0 0D     BEQ $E47F                       A:7F X:55 Y:74 P:A4 SP:FB CYC:  0
E472  10 0B     BPL $E47F                       A:7F X:55 Y:74 P:A4 SP:FB CYC:  0
E474  70 09     BVS $E47F                       A:7F X:55 Y:74 P:A4 SP:FB CYC:  0
E476  B0 07     BCS $E47F                       A:7F X:55 Y:74 P:A4 SP:FB CYC:  0
E478  BD 00 06  LDA $0600,X @ 0655 = 80         A:7F X:55 Y:74 P:A4 SP:FB CYC:  0
E47B  C9 80     CMP #$80                        A:80 X:55 Y:74 P:A4 SP:FB CYC:  0
E47D  F0 04     BEQ $E483                       A:80 X:55 Y:74 P:27 SP:FB CYC:  0
E483  A9 00     LDA #$00                        A:80 X:55 Y:74 P:27 SP:FB CYC:  0
E485  9D 00 06  STA $0600,X @ 0655 = 80         A:00 X:55 Y:74 P:27 SP:FB CYC:  0
E488  24 01     BIT $01 = FF                    A:00 X:55 Y:74 P:27 SP:FB CYC:  0
E48A  38        SEC                             A:00 X:55 Y:74 P:E7 SP:FB CYC:  0
E48B  DE 00 06  DEC $0600,X @ 0655 = 00         A:00 X:55 Y:74 P:E7 SP:FB CYC:  0
E48E  F0 0D     BEQ $E49D                       A:00 X:55 Y:74 P:E5 SP:FB CYC:  0
E490  10 0B     BPL $E49D                       A:00 X:55 Y:74 P:E5 SP:FB CYC:  0
E492  50 09     BVC $E49D                       A:00 X:55 Y:74 P:E5 SP:FB CYC:  0
E494  90 07     BCC $E49D                       A:00 X:55 Y:74 P:E5 SP:FB CYC:  0
E496  BD 00 06  LDA $0600,X @ 0655 = FF         A:00 X:55 Y:74 P:E5 SP:FB CYC:  0
E499  C9 FF     CMP #$FF                        A:FF X:55 Y:74 P:E5 SP:FB CYC:  0
E49B  F0 04     BEQ $E4A1                       A:FF X:55 Y:74 P:67 SP:FB CYC:  0
E4A1  A9 80     LDA #$80                        A:FF X:55 Y:74 P:67 SP:FB CYC:  0
E4A3  9D 00 06  STA $0600,X @ 0655 = FF         A:80 X:55 Y:74 P:E5 SP:FB CYC:  0
E4A6  B8        CLV                             A:80 X:55 Y:74 P:E5 SP:FB CYC:  0
E4A7  18        CLC                             A:80 X:55 Y:74 P:A5 SP:FB CYC:  0
E4A8  DE 00 06  DEC $0600,X @ 0655 = 80         A:80 X:55 Y:74 P:A4 SP:FB CYC:  0
E4AB  F0 0D     BEQ $E4BA                       A:80 X:55 Y:74 P:24 SP:FB CYC:  0
E4AD  30 0B     BMI $E4BA                       A:80 X:55 Y:74 P:24 SP:FB CYC:  0
E4AF  70 09     BVS $E4BA                       A:80 X:55 Y:74 P:24 SP:FB CYC:  0
E4B1  B0 07     BCS $E4BA                       A:80 X:55 Y:74 P:24 SP:FB CYC:  0
E4B3  BD 00 06  LDA $0600,X @ 0655 = 7F         A:80 X:55 Y:74 P:24 SP:FB CYC:  0
E4B6  C9 7F     CMP #$7F                        A:7F X:55 Y:74 P:24 SP:FB CYC:  0
E4B8  F0 04     BEQ $E4BE                       A:7F X:55 Y:74 P:27 SP:FB CYC:  0
E4BE  A9 01     LDA #$01                        A:7F X:55 Y:74 P:27 SP:FB CYC:  0
E4C0  9D 00 06  STA $0600,X @ 0655 = 7F         A:01 X:55 Y:74 P:25 SP:FB CYC:  0
E4C3  DE 00 06  DEC $0600,X @ 0655 = 01         A:01 X:55 Y:74 P:25 SP:FB CYC:  0
E4C6  F0 04     BEQ $E4CC                       A:01 X:55 Y:74 P:27 SP:FB CYC:  0
E4CC  A9 33     LDA #$33                        A:01 X:55 Y:74 P:27 SP:FB CYC:  0
E4CE  8D 78 06  STA $0678 = 7F                  A:33 X:55 Y:74 P:25 SP:FB CYC:  0
E4D1  A9 44     LDA #$44                        A:33 X:55 Y:74 P:25 SP:FB CYC:  0
E4D3  A0 78     LDY #$78                        A:44 X:55 Y:74 P:25 SP:FB CYC:  0
E4D5  A2 00     LDX #$00                        A:44 X:55 Y:78 P:25 SP:FB CYC:  0
E4D7  38        SEC                             A:44 X:00 Y:78 P:27 SP:FB CYC:  0
E4D8  24 01     BIT $01 = FF                    A:44 X:00 Y:78 P:27 SP:FB CYC:  0
E4DA  BE 00 06  LDX $0600,Y @ 0678 = 33         A:44 X:00 Y:78 P:E5 SP:FB CYC:  0
E4DD  90 12     BCC $E4F1                       A:44 X:33 Y:78 P:65 SP:FB CYC:  0
E4DF  50 10     BVC $E4F1                       A:44 X:33 Y:78 P:65 SP:FB CYC:  0
E4E1  30 0E     BMI $E4F1                       A:44 X:33 Y:78 P:65 SP:FB CYC:  0
E4E3  F0 0C     BEQ $E4F1                       A:44 X:33 Y:78 P:65 SP:FB CYC:  0
E4E5  E0 33     CPX #$33                        A:44 X:33 Y:78 P:65 SP:FB CYC:  0
E4E7  D0 08     BNE $E4F1                       A:44 X:33 Y:78 P:67 SP:FB CYC:  0
E4E9  C0 78     CPY #$78                        A:44 X:33 Y:78 P:67 SP:FB CYC:  0
E4EB  D0 04     BNE $E4F1                       A:44 X:33 Y:78 P:67 SP:FB CYC:  0
E4ED  C9 44     CMP #$44                        A:44 X:33 Y:78 P:67 SP:FB CYC:  0
E4EF  F0 04     BEQ $E4F5                       A:44 X:33 Y:78 P:67 SP:FB CYC:  0
E4F5  A9 97     LDA #$97                        A:44 X:33 Y:78 P:67 SP:FB CYC:  0
E4F7  8D 7F 06  STA $067F = 00                  A:97 X:33 Y:78 P:E5 SP:FB CYC:  0
E4FA  A9 47     LDA #$47                        A:97 X:33 Y:78 P:E5 SP:FB CYC:  0
E4FC  A0 FF     LDY #$FF                        A:47 X:33 Y:78 P:65 SP:FB CYC:  0
E4FE  A2 00     LDX #$00                        A:47 X:33 Y:FF P:E5 SP:FB CYC:  0
E500  18        CLC                             A:47 X:00 Y:FF P:67 SP:FB CYC:  0
E501  B8        CLV                             A:47 X:00 Y:FF P:66 SP:FB CYC:  0
E502  BE 80 05  LDX $0580,Y @ 067F = 97         A:47 X:00 Y:FF P:26 SP:FB CYC:  0
E505  B0 12     BCS $E519                       A:47 X:97 Y:FF P:A4 SP:FB CYC:  0
E507  70 10     BVS $E519                       A:47 X:97 Y:FF P:A4 SP:FB CYC:  0
E509  10 0E     BPL $E519                       A:47 X:97 Y:FF P:A4 SP:FB CYC:  0
E50B  F0 0C     BEQ $E519                       A:47 X:97 Y:FF P:A4 SP:FB CYC:  0
E50D  E0 97     CPX #$97                        A:47 X:97 Y:FF P:A4 SP:FB CYC:  0
E50F  D0 08     BNE $E519                       A:47 X:97 Y:FF P:27 SP:FB CYC:  0
E511  C0 FF     CPY #$FF                        A:47 X:97 Y:FF P:27 SP:FB CYC:  0
E513  D0 04     BNE $E519                       A:47 X:97 Y:FF P:27 SP:FB CYC:  0
E515  C9 47     CMP #$47                        A:47 X:97 Y:FF P:27 SP:FB CYC:  0
E517  F0 04     BEQ $E51D                       A:47 X:97 Y:FF P:27 SP:FB CYC:  0
E51D  60        RTS                             A:47 X:97 Y:FF P:27 SP:FB CYC:  0
C62F  20 A3 C6  JSR $C6A3                       A:47 X:97 Y:FF P:27 SP:FD CYC:  0
C6A3  A0 4E     LDY #$4E                        A:47 X:97 Y:FF P:27 SP:FB CYC:  0
C6A5  A9 FF     LDA #$FF                        A:47 X:97 Y:4E P:25 SP:FB CYC:  0
C6A7  85 01     STA $01 = FF                    A:FF X:97 Y:4E P:A5 SP:FB CYC:  0
C6A9  20 B0 C6  JSR $C6B0                       A:FF X:97 Y:4E P:A5 SP:FB CYC:  0
C6B0  A9 FF     LDA #$FF                        A:FF X:97 Y:4E P:A5 SP:F9 CYC:  0
C6B2  48        PHA                             A:FF X:97 Y:4E P:A5 SP:F9 CYC:  0
C6B3  A9 AA     LDA #$AA                        A:FF X:97 Y:4E P:A5 SP:F8 CYC:  0
C6B5  D0 05     BNE $C6BC                       A:AA X:97 Y:4E P:A5 SP:F8 CYC:  0
C6BC  28        PLP                             A:AA X:97 Y:4E P:A5 SP:F8 CYC:  0
C6BD  04 A9    *NOP $A9 = 00                    A:AA X:97 Y:4E P:EF SP:F9 CYC:  0
C6BF  44 A9    *NOP $A9 = 00                    A:AA X:97 Y:4E P:EF SP:F9 CYC:  0
C6C1  64 A9    *NOP $A9 = 00                    A:AA X:97 Y:4E P:EF SP:F9 CYC:  0
C6C3  EA        NOP                             A:AA X:97 Y:4E P:EF SP:F9 CYC:  0
C6C4  EA        NOP                             A:AA X:97 Y:4E P:EF SP:F9 CYC:  0
C6C5  EA        NOP                             A:AA X:97 Y:4E P:EF SP:F9 CYC:  0
C6C6  EA        NOP                             A:AA X:97 Y:4E P:EF SP:F9 CYC:  0
C6C7  08        PHP                             A:AA X:97 Y:4E P:EF SP:F9 CYC:  0
C6C8  48        PHA                             A:AA X:97 Y:4E P:EF SP:F8 CYC:  0
C6C9  0C A9 A9 *NOP $A9A9 = A9                  A:AA X:97 Y:4E P:EF SP:F7 CYC:  0
C6CC  EA        NOP                             A:AA X:97 Y:4E P:EF SP:F7 CYC:  0
C6CD  EA        NOP                             A:AA X:97 Y:4E P:EF SP:F7 CYC:  0
C6CE  EA        NOP                             A:AA X:97 Y:4E P:EF SP:F7 CYC:  0
C6CF  EA        NOP                             A:AA X:97 Y:4E P:EF SP:F7 CYC:  0
C6D0  08        PHP                             A:AA X:97 Y:4E P:EF SP:F7 CYC:  0
C6D1  48        PHA                             A:AA X:97 Y:4E P:EF SP:F6 CYC:  0
C6D2  14 A9    *NOP $A9,X @ 40 = 00             A:AA X:97 Y:4E P:EF SP:F5 CYC:  0
C6D4  34 A9    *NOP $A9,X @ 40 = 00             A:AA X:97 Y:4E P:EF SP:F5 CYC:  0
C6D6  54 A9    *NOP $A9,X @ 40 = 00             A:AA X:97 Y:4E P:EF SP:F5 CYC:  0
C6D8  74 A9    *NOP $A9,X @ 40 = 00             A:AA X:97 Y:4E P:EF SP:F5 CYC:  0
C6DA  D4 A9    *NOP $A9,X @ 40 = 00             A:AA X:97 Y:4E P:EF SP:F5 CYC:  0
C6DC  F4 A9    *NOP $A9,X @ 40 = 00             A:AA X:97 Y:4E P:EF SP:F5 CYC:  0
C6DE  EA        NOP                             A:AA X:97 Y:4E P:EF SP:F5 CYC:  0
C6DF  EA        NOP                             A:AA X:97 Y:4E P:EF SP:F5 CYC:  0
C6E0  EA        NOP                             A:AA X:97 Y:4E P:EF SP:F5 CYC:  0
C6E1  EA        NOP                             A:AA X:97 Y:4E P:EF SP:F5 CYC:  0
C6E2  08        PHP                             A:AA X:97 Y:4E P:EF SP:F5 CYC:  0
C6E3  48        PHA                             A:AA X:97 Y:4E P:EF SP:F4 CYC:  0
C6E4  1A       *NOP                             A:AA X:97 Y:4E P:EF SP:F3 CYC:  0
C6E5  3A       *NOP                             A:AA X:97 Y:4E P:EF SP:F3 CYC:  0
C6E6  5A       *NOP                             A:AA X:97 Y:4E P:EF SP:F3 CYC:  0
C6E7  7A       *NOP                             A:AA X:97 Y:4E P:EF SP:F3 CYC:  0
C6E8  DA       *NOP                             A:AA X:97 Y:4E P:EF SP:F3 CYC:  0
C6E9  FA       *NOP                             A:AA X:97 Y:4E P:EF SP:F3 CYC:  0
C6EA  80 89    *NOP #$89                        A:AA X:97 Y:4E P:EF SP:F3 CYC:  0
C6EC  EA        NOP                             A:AA X:97 Y:4E P:EF SP:F3 CYC:  0
C6ED  EA        NOP                             A:AA X:97 Y:4E P:EF SP:F3 CYC:  0
C6EE  EA        NOP                             A:AA X:97 Y:4E P:EF SP:F3 CYC:  0
C6EF  EA        NOP                             A:AA X:97 Y:4E P:EF SP:F3 CYC:  0
C6F0  08        PHP                             A:AA X:97 Y:4E P:EF SP:F3 CYC:  0
C6F1  48        PHA                             A:AA X:97 Y:4E P:EF SP:F2 CYC:  0
C6F2  1C A9 A9 *NOP $A9A9,X @ AA40 = 00         A:AA X:97 Y:4E P:EF SP:F1 CYC:  0
C6F5  3C A9 A9 *NOP $A9A9,X @ AA40 = 00         A:AA X:97 Y:4E P:EF SP:F1 CYC:  0
C6F8  5C A9 A9 *NOP $A9A9,X @ AA40 = 00         A:AA X:97 Y:4E P:EF SP:F1 CYC:  0
C6FB  7C A9 A9 *NOP $A9A9,X @ AA40 = 00         A:AA X:97 Y:4E P:EF SP:F1 CYC:  0
C6FE  DC A9 A9 *NOP $A9A9,X @ AA40 = 00         A:AA X:97 Y:4E P:EF SP:F1 CYC:  0
C701  FC A9 A9 *NOP $A9A9,X @ AA40 = 00         A:AA X:97 Y:4E P:EF SP:F1 CYC:  0
C704  EA        NOP                             A:AA X:97 Y:4E P:EF SP:F1 CYC:  0
C705  EA        NOP                             A:AA X:97 Y:4E P:EF SP:F1 CYC:  0
C706  EA        NOP                             A:AA X:97 Y:4E P:EF SP:F1 CYC:  0
C707  EA        NOP                             A:AA X:97 Y:4E P:EF SP:F1 CYC:  0
C708  08        PHP                             A:AA X:97 Y:4E P:EF SP:F1 CYC:  0
C709  48        PHA                             A:AA X:97 Y:4E P:EF SP:F0 CYC:  0
C70A  A2 05     LDX #$05                        A:AA X:97 Y:4E P:EF SP:EF CYC:  0
C70C  68        PLA                             A:AA X:05 Y:4E P:6D SP:EF CYC:  0
C70D  C9 55     CMP #$55                        A:AA X:05 Y:4E P:ED SP:F0 CYC:  0
C70F  F0 0A     BEQ $C71B                       A:AA X:05 Y:4E P:6D SP:F0 CYC:  0
C711  C9 AA     CMP #$AA                        A:AA X:05 Y:4E P:6D SP:F0 CYC:  0
C713  F0 06     BEQ $C71B                       A:AA X:05 Y:4E P:6F SP:F0 CYC:  0
C71B  68        PLA                             A:AA X:05 Y:4E P:6F SP:F0 CYC:  0
C71C  29 CB     AND #$CB                        A:FF X:05 Y:4E P:ED SP:F1 CYC:  0
C71E  C9 00     CMP #$00                        A:CB X:05 Y:4E P:ED SP:F1 CYC:  0
C720  F0 06     BEQ $C728                       A:CB X:05 Y:4E P:ED SP:F1 CYC:  0
C722  C9 CB     CMP #$CB                        A:CB X:05 Y:4E P:ED SP:F1 CYC:  0
C724  F0 02     BEQ $C728                       A:CB X:05 Y:4E P:6F SP:F1 CYC:  0
C728  C8        INY                             A:CB X:05 Y:4E P:6F SP:F1 CYC:  0
C729  CA        DEX                             A:CB X:05 Y:4F P:6D SP:F1 CYC:  0
C72A  D0 E0     BNE $C70C                       A:CB X:04 Y:4F P:6D SP:F1 CYC:  0
C70C  68        PLA                             A:CB X:04 Y:4F P:6D SP:F1 CYC:  0
C70D  C9 55     CMP #$55                        A:AA X:04 Y:4F P:ED SP:F2 CYC:  0
C70F  F0 0A     BEQ $C71B                       A:AA X:04 Y:4F P:6D SP:F2 CYC:  0
C711  C9 AA     CMP #$AA                        A:AA X:04 Y:4F P:6D SP:F2 CYC:  0
C713  F0 06     BEQ $C71B                       A:AA X:04 Y:4F P:6F SP:F2 CYC:  0
C71B  68        PLA                             A:AA X:04 Y:4F P:6F SP:F2 CYC:  0
C71C  29 CB     AND #$CB                        A:FF X:04 Y:4F P:ED SP:F3 CYC:  0
C71E  C9 00     CMP #$00                        A:CB X:04 Y:4F P:ED SP:F3 CYC:  0
C720  F0 06     BEQ $C728                       A:CB X:04 Y:4F P:ED SP:F3 CYC:  0
C722  C9 CB     CMP #$CB                        A:CB X:04 Y:4F P:ED SP:F3 CYC:  0
C724  F0 02     BEQ $C728                       A:CB X:04 Y:4F P:6F SP:F3 CYC:  0
C728  C8        INY                             A:CB X:04 Y:4F P:6F SP:F3 CYC:  0
C729  CA        DEX                             A:CB X:04 Y:50 P:6D SP:F3 CYC:  0
C72A  D0 E0     BNE $C70C                       A:CB X:03 Y:50 P:6D SP:F3 CYC:  0
C70C  68        PLA                             A:CB X:03 Y:50 P:6D SP:F3 CYC:  0
C70D  C9 55     CMP #$55                        A:AA X:03 Y:50 P:ED SP:F4 CYC:  0
C70F  F0 0A     BEQ $C71B                       A:AA X:03 Y:50 P:6D SP:F4 CYC:  0
C711  C9 AA     CMP #$AA                        A:AA X:03 Y:50 P:6D SP:F4 CYC:  0
C713  F0 06     BEQ $C71B                       A:AA X:03 Y:50 P:6F SP:F4 CYC:  0
C71B  68        PLA                             A:AA X:03 Y:50 P:6F SP:F4 CYC:  0
C71C  29 CB     AND #$CB                        A:FF X:03 Y:50 P:ED SP:F5 CYC:  0
C71E  C9 00     CMP #$00                        A:CB X:03 Y:50 P:ED SP:F5 CYC:  0
C720  F0 06     BEQ $C728                       A:CB X:03 Y:50 P:ED SP:F5 CYC:  0
C722  C9 CB     CMP #$CB                        A:CB X:03 Y:50 P:ED SP:F5 CYC:  0
C724  F0 02     BEQ $C728                       A:CB X:03 Y:50 P:6F SP:F5 CYC:  0
C728  C8        INY                             A:CB X:03 Y:50 P:6F SP:F5 CYC:  0
C729  CA        DEX                             A:CB X:03 Y:51 P:6D SP:F5 CYC:  0
C72A  D0 E0     BNE $C70C                       A:CB X:02 Y:51 P:6D SP:F5 CYC:  0
C70C  68        PLA                             A:CB X:02 Y:51 P:6D SP:F5 CYC:  0
C70D  C9 55     CMP #$55                        A:AA X:02 Y:51 P:ED SP:F6 CYC:  0
C70F  F0 0A     BEQ $C71B                       A:AA X:02 Y:51 P:6D SP:F6 CYC:  0
C711  C9 AA     CMP #$AA                        A:AA X:02 Y:51 P:6D SP:F6 CYC:  0
C713  F0 06     BEQ $C71B                       A:AA X:02 Y:51 P:6F SP:F6 CYC:  0
C71B  68        PLA                             A:AA X:02 Y:51 P:6F SP:F6 CYC:  0
C71C  29 CB     AND #$CB                        A:FF X:02 Y:51 P:ED SP:F7 CYC:  0
C71E  C9 00     CMP #$00                        A:CB X:02 Y:51 P:ED SP:F7 CYC:  0
C720  F0 06     BEQ $C728                       A:CB X:02 Y:51 P:ED SP:F7 CYC:  0
C722  C9 CB     CMP #$CB                        A:CB X:02 Y:51 P:ED SP:F7 CYC:  0
C724  F0 02     BEQ $C728                       A:CB X:02 Y:51 P:6F SP:F7 CYC:  0
C728  C8        INY                             A:CB X:02 Y:51 P:6F SP:F7 CYC:  0
C729  CA        DEX                             A:CB X:02 Y:52 P:6D SP:F7 CYC:  0
C72A  D0 E0     BNE $C70C                       A:CB X:01 Y:52 P:6D SP:F7 CYC:  0
C70C  68        PLA                             A:CB X:01 Y:52 P:6D SP:F7 CYC:  0
C70D  C9 55     CMP #$55                        A:AA X:01 Y:52 P:ED SP:F8 CYC:  0
C70F  F0 0A     BEQ $C71B                       A:AA X:01 Y:52 P:6D SP:F8 CYC:  0
C711  C9 AA     CMP #$AA                        A:AA X:01 Y:52 P:6D SP:F8 CYC:  0
C713  F0 06     BEQ $C71B                       A:AA X:01 Y:52 P:6F SP:F8 CYC:  0
C71B  68        PLA                             A:AA X:01 Y:52 P:6F SP:F8 CYC:  0
C71C  29 CB     AND #$CB                        A:FF X:01 Y:52 P:ED SP:F9 CYC:  0
C71E  C9 00     CMP #$00                        A:CB X:01 Y:52 P:ED SP:F9 CYC:  0
C720  F0 06     BEQ $C728                       A:CB X:01 Y:52 P:ED SP:F9 CYC:  0
C722  C9 CB     CMP #$CB                        A:CB X:01 Y:52 P:ED SP:F9 CYC:  0
C724  F0 02     BEQ $C728                       A:CB X:01 Y:52 P:6F SP:F9 CYC:  0
C728  C8        INY                             A:CB X:01 Y:52 P:6F SP:F9 CYC:  0
C729  CA        DEX                             A:CB X:01 Y:53 P:6D SP:F9 CYC:  0
C72A  D0 E0     BNE $C70C                       A:CB X:00 Y:53 P:6F SP:F9 CYC:  0
C72C  60        RTS                             A:CB X:00 Y:53 P:6F SP:F9 CYC:  0
C6AC  20 B7 C6  JSR $C6B7                       A:CB X:00 Y:53 P:6F SP:FB CYC:  0
C6B7  A9 34     LDA #$34                        A:CB X:00 Y:53 P:6F SP:F9 CYC:  0
C6B9  48        PHA                             A:34 X:00 Y:53 P:6D SP:F9 CYC:  0
C6BA  A9 55     LDA #$55                        A:34 X:00 Y:53 P:6D SP:F8 CYC:  0
C6BC  28        PLP                             A:55 X:00 Y:53 P:6D SP:F8 CYC:  0
C6BD  04 A9    *NOP $A9 = 00                    A:55 X:00 Y:53 P:24 SP:F9 CYC:  0
C6BF  44 A9    *NOP $A9 = 00                    A:55 X:00 Y:53 P:24 SP:F9 CYC:  0
C6C1  64 A9    *NOP $A9 = 00                    A:55 X:00 Y:53 P:24 SP:F9 CYC:  0
C6C3  EA        NOP                             A:55 X:00 Y:53 P:24 SP:F9 CYC:  0
C6C4  EA        NOP                             A:55 X:00 Y:53 P:24 SP:F9 CYC:  0
C6C5  EA        NOP                             A:55 X:00 Y:53 P:24 SP:F9 CYC:  0
C6C6  EA        NOP                             A:55 X:00 Y:53 P:24 SP:F9 CYC:  0
C6C7  08        PHP                             A:55 X:00 Y:53 P:24 SP:F9 CYC:  0
C6C8  48        PHA                             A:55 X:00 Y:53 P:24 SP:F8 CYC:  0
C6C9  0C A9 A9 *NOP $A9A9 = A9                  A:55 X:00 Y:53 P:24 SP:F7 CYC:  0
C6CC  EA        NOP                             A:55 X:00 Y:53 P:24 SP:F7 CYC:  0
C6CD  EA        NOP                             A:55 X:00 Y:53 P:24 SP:F7 CYC:  0
C6CE  EA        NOP                             A:55 X:00 Y:53 P:24 SP:F7 CYC:  0
C6CF  EA        NOP                             A:55 X:00 Y:53 P:24 SP:F7 CYC:  0
C6D0  08        PHP                             A:55 X:00 Y:53 P:24 SP:F7 CYC:  0
C6D1  48        PHA                             A:55 X:00 Y:53 P:24 SP:F6 CYC:  0
C6D2  14 A9    *NOP $A9,X @ A9 = 00             A:55 X:00 Y:53 P:24 SP:F5 CYC:  0
C6D4  34 A9    *NOP $A9,X @ A9 = 00             A:55 X:00 Y:53 P:24 SP:F5 CYC:  0
C6D6  54 A9    *NOP $A9,X @ A9 = 00             A:55 X:00 Y:53 P:24 SP:F5 CYC:  0
C6D8  74 A9    *NOP $A9,X @ A9 = 00             A:55 X:00 Y:53 P:24 SP:F5 CYC:  0
C6DA  D4 A9    *NOP $A9,X @ A9 = 00             A:55 X:00 Y:53 P:24 SP:F5 CYC:  0
C6DC  F4 A9    *NOP $A9,X @ A9 = 00             A:55 X:00 Y:53 P:24 SP:F5 CYC:  0
C6DE  EA        NOP                             A:55 X:00 Y:53 P:24 SP:F5 CYC:  0
C6DF  EA        NOP                             A:55 X:00 Y:53 P:24 SP:F5 CYC:  0
C6E0  EA        NOP                             A:55 X:00 Y:53 P:24 SP:F5 CYC:  0
C6E1  EA        NOP                             A:55 X:00 Y:53 P:24 SP:F5 CYC:  0
C6E2  08        PHP                             A:55 X:00 Y:53 P:24 SP:F5 CYC:  0
C6E3  48        PHA                             A:55 X:00 Y:53 P:24 SP:F4 CYC:  0
C6E4  1A       *NOP                             A:55 X:00 Y:53 P:24 SP:F3 CYC:  0
C6E5  3A       *NOP                             A:55 X:00 Y:53 P:24 SP:F3 CYC:  0
C6E6  5A       *NOP                             A:55 X:00 Y:53 P:24 SP:F3 CYC:  0
C6E7  7A       *NOP                             A:55 X:00 Y:53 P:24 SP:F3 CYC:  0
C6E8  DA       *NOP                             A:55 X:00 Y:53 P:24 SP:F3 CYC:  0
C6E9  FA       *NOP                             A:55 X:00 Y:53 P:24 SP:F3 CYC:  0
C6EA  80 89    *NOP #$89                        A:55 X:00 Y:53 P:24 SP:F3 CYC:  0
C6EC  EA        NOP                             A:55 X:00 Y:53 P:24 SP:F3 CYC:  0
C6ED  EA        NOP                             A:55 X:00 Y:53 P:24 SP:F3 CYC:  0
C6EE  EA        NOP                             A:55 X:00 Y:53 P:24 SP:F3 CYC:  0
C6EF  EA        NOP                             A:55 X:00 Y:53 P:24 SP:F3 CYC:  0
C6F0  08        PHP                             A:55 X:00 Y:53 P:24 SP:F3 CYC:  0
C6F1  48        PHA                             A:55 X:00 Y:53 P:24 SP:F2 CYC:  0
C6F2  1C A9 A9 *NOP $A9A9,X @ A9A9 = A9         A:55 X:00 Y:53 P:24 SP:F1 CYC:  0
C6F5  3C A9 A9 *NOP $A9A9,X @ A9A9 = A9         A:55 X:00 Y:53 P:24 SP:F1 CYC:  0
C6F8  5C A9 A9 *NOP $A9A9,X @ A9A9 = A9         A:55 X:00 Y:53 P:24 SP:F1 CYC:  0
C6FB  7C A9 A9 *NOP $A9A9,X @ A9A9 = A9         A:55 X:00 Y:53 P:24 SP:F1 CYC:  0
C6FE  DC A9 A9 *NOP $A9A9,X @ A9A9 = A9         A:55 X:00 Y:53 P:24 SP:F1 CYC:  0
C701  FC A9 A9 *NOP $A9A9,X @ A9A9 = A9         A:55 X:00 Y:53 P:24 SP:F1 CYC:  0
C704  EA        NOP                             A:55 X:00 Y:53 P:24 SP:F1 CYC:  0
C705  EA        NOP                             A:55 X:00 Y:53 P:24 SP:F1 CYC:  0
C706  EA        NOP                             A:55 X:00 Y:53 P:24 SP:F1 CYC:  0
C707  EA        NOP                             A:55 X:00 Y:53 P:24 SP:F1 CYC:  0
C708  08        PHP                             A:55 X:00 Y:53 P:24 SP:F1 CYC:  0
C709  48        PHA                             A:55 X:00 Y:53 P:24 SP:F0 CYC:  0
C70A  A2 05     LDX #$05                        A:55 X:00 Y:53 P:24 SP:EF CYC:  0
C70C  68        PLA                             A:55 X:05 Y:53 P:24 SP:EF CYC:  0
C70D  C9 55     CMP #$55                        A:55 X:05 Y:53 P:24 SP:F0 CYC:  0
C70F  F0 0A     BEQ $C71B                       A:55 X:05 Y:53 P:27 SP:F0 CYC:  0
C71B  68        PLA                             A:55 X:05 Y:53 P:27 SP:F0 CYC:  0
C71C  29 CB     AND #$CB                        A:34 X:05 Y:53 P:25 SP:F1 CYC:  0
C71E  C9 00     CMP #$00                        A:00 X:05 Y:53 P:27 SP:F1 CYC:  0
C720  F0 06     BEQ $C728                       A:00 X:05 Y:53 P:27 SP:F1 CYC:  0
C728  C8        INY                             A:00 X:05 Y:53 P:27 SP:F1 CYC:  0
C729  CA        DEX                             A:00 X:05 Y:54 P:25 SP:F1 CYC:  0
C72A  D0 E0     BNE $C70C                       A:00 X:04 Y:54 P:25 SP:F1 CYC:  0
C70C  68        PLA                             A:00 X:04 Y:54 P:25 SP:F1 CYC:  0
C70D  C9 55     CMP #$55                        A:55 X:04 Y:54 P:25 SP:F2 CYC:  0
C70F  F0 0A     BEQ $C71B                       A:55 X:04 Y:54 P:27 SP:F2 CYC:  0
C71B  68        PLA                             A:55 X:04 Y:54 P:27 SP:F2 CYC:  0
C71C  29 CB     AND #$CB                        A:34 X:04 Y:54 P:25 SP:F3 CYC:  0
C71E  C9 00     CMP #$00                        A:00 X:04 Y:54 P:27 SP:F3 CYC:  0
C720  F0 06     BEQ $C728                       A:00 X:04 Y:54 P:27 SP:F3 CYC:  0
C728  C8        INY                             A:00 X:04 Y:54 P:27 SP:F3 CYC:  0
C729  CA        DEX                             A:00 X:04 Y:55 P:25 SP:F3 CYC:  0
C72A  D0 E0     BNE $C70C                       A:00 X:03 Y:55 P:25 SP:F3 CYC:  0
C70C  68        PLA                             A:00 X:03 Y:55 P:25 SP:F3 CYC:  0
C70D  C9 55     CMP #$55                        A:55 X:03 Y:55 P:25 SP:F4 CYC:  0
C70F  F0 0A     BEQ $C71B                       A:55 X:03 Y:55 P:27 SP:F4 CYC:  0
C71B  68        PLA                             A:55 X:03 Y:55 P:27 SP:F4 CYC:  0
C71C  29 CB     AND #$CB                        A:34 X:03 Y:55 P:25 SP:F5 CYC:  0
C71E  C9 00     CMP #$00                        A:00 X:03 Y:55 P:27 SP:F5 CYC:  0
C720  F0 06     BEQ $C728                       A:00 X:03 Y:55 P:27 SP:F5 CYC:  0
C728  C8        INY                             A:00 X:03 Y:55 P:27 SP:F5 CYC:  0
C729  CA        DEX                             A:00 X:03 Y:56 P:25 SP:F5 CYC:  0
C72A  D0 E0     BNE $C70C                       A:00 X:02 Y:56 P:25 SP:F5 CYC:  0
C70C  68        PLA                             A:00 X:02 Y:56 P:25 SP:F5 CYC:  0
C70D  C9 55     CMP #$55                        A:55 X:02 Y:56 P:25 SP:F6 CYC:  0
C70F  F0 0A     BEQ $C71B                       A:55 X:02 Y:56 P:27 SP:F6 CYC:  0
C71B  68        PLA                             A:55 X:02 Y:56 P:27 SP:F6 CYC:  0
C71C  29 CB     AND #$CB                        A:34 X:02 Y:56 P:25 SP:F7 CYC:  0
C71E  C9 00     CMP #$00                        A:00 X:02 Y:56 P:27 SP:F7 CYC:  0
C720  F0 06     BEQ $C728                       A:00 X:02 Y:56 P:27 SP:F7 CYC:  0
C728  C8        INY                             A:00 X:02 Y:56 P:27 SP:F7 CYC:  0
C729  CA        DEX                             A:00 X:02 Y:57 P:25 SP:F7 CYC:  0
C72A  D0 E0     BNE $C70C                       A:00 X:01 Y:57 P:25 SP:F7 CYC:  0
C70C  68        PLA                             A:00 X:01 Y:57 P:25 SP:F7 CYC:  0
C70D  C9 55     CMP #$55                        A:55 X:01 Y:57 P:25 SP:F8 CYC:  0
C70F  F0 0A     BEQ $C71B                       A:55 X:01 Y:57 P:27 SP:F8 CYC:  0
C71B  68        PLA                             A:55 X:01 Y:57 P:27 SP:F8 CYC:  0
C71C  29 CB     AND #$CB                        A:34 X:01 Y:57 P:25 SP:F9 CYC:  0
C71E  C9 00     CMP #$00                        A:00 X:01 Y:57 P:27 SP:F9 CYC:  0
C720  F0 06     BEQ $C728                       A:00 X:01 Y:57 P:27 SP:F9 CYC:  0
C728  C8        INY                             A:00 X:01 Y:57 P:27 SP:F9 CYC:  0
C729  CA        DEX                             A:00 X:01 Y:58 P:25 SP:F9 CYC:  0
C72A  D0 E0     BNE $C70C                       A:00 X:00 Y:58 P:27 SP:F9 CYC:  0
C72C  60        RTS                             A:00 X:00 Y:58 P:27 SP:F9 CYC:  0
C6AF  60        RTS                             A:00 X:00 Y:58 P:27 SP:FB CYC:  0
C632  20 1E E5  JSR $E51E                       A:00 X:00 Y:58 P:27 SP:FD CYC:  0
E51E  A9 55     LDA #$55                        A:00 X:00 Y:58 P:27 SP:FB CYC:  0
E520  8D 80 05  STA $0580 = 00                  A:55 X:00 Y:58 P:25 SP:FB CYC:  0
E523  A9 AA     LDA #$AA                        A:55 X:00 Y:58 P:25 SP:FB CYC:  0
E525  8D 32 04  STA $0432 = 00                  A:AA X:00 Y:58 P:A5 SP:FB CYC:  0
E528  A9 80     LDA #$80                        A:AA X:00 Y:58 P:A5 SP:FB CYC:  0
E52A  85 43     STA $43 = 00                    A:80 X:00 Y:58 P:A5 SP:FB CYC:  0
E52C  A9 05     LDA #$05                        A:80 X:00 Y:58 P:A5 SP:FB CYC:  0
E52E  85 44     STA $44 = 00                    A:05 X:00 Y:58 P:25 SP:FB CYC:  0
E530  A9 32     LDA #$32                        A:05 X:00 Y:58 P:25 SP:FB CYC:  0
E532  85 45     STA $45 = 00                    A:32 X:00 Y:58 P:25 SP:FB CYC:  0
E534  A9 04     LDA #$04                        A:32 X:00 Y:58 P:25 SP:FB CYC:  0
E536  85 46     STA $46 = 00                    A:04 X:00 Y:58 P:25 SP:FB CYC:  0
E538  A2 03     LDX #$03                        A:04 X:00 Y:58 P:25 SP:FB CYC:  0
E53A  A0 77     LDY #$77                        A:04 X:03 Y:58 P:25 SP:FB CYC:  0
E53C  A9 FF     LDA #$FF                        A:04 X:03 Y:77 P:25 SP:FB CYC:  0
E53E  85 01     STA $01 = FF                    A:FF X:03 Y:77 P:A5 SP:FB CYC:  0
E540  24 01     BIT $01 = FF                    A:FF X:03 Y:77 P:A5 SP:FB CYC:  0
E542  38        SEC                             A:FF X:03 Y:77 P:E5 SP:FB CYC:  0
E543  A9 00     LDA #$00                        A:FF X:03 Y:77 P:E5 SP:FB CYC:  0
E545  A3 40    *LAX ($40,X) @ 43 = 0580 = 55    A:00 X:03 Y:77 P:67 SP:FB CYC:  0
E547  EA        NOP                             A:55 X:55 Y:77 P:65 SP:FB CYC:  0
E548  EA        NOP                             A:55 X:55 Y:77 P:65 SP:FB CYC:  0
E549  EA        NOP                             A:55 X:55 Y:77 P:65 SP:FB CYC:  0
E54A  EA        NOP                             A:55 X:55 Y:77 P:65 SP:FB CYC:  0
E54B  F0 12     BEQ $E55F                       A:55 X:55 Y:77 P:65 SP:FB CYC:  0
E54D  30 10     BMI $E55F                       A:55 X:55 Y:77 P:65 SP:FB CYC:  0
E54F  50 0E     BVC $E55F                       A:55 X:55 Y:77 P:65 SP:FB CYC:  0
E551  90 0C     BCC $E55F                       A:55 X:55 Y:77 P:65 SP:FB CYC:  0
E553  C9 55     CMP #$55                        A:55 X:55 Y:77 P:65 SP:FB CYC:  0
E555  D0 08     BNE $E55F                       A:55 X:55 Y:77 P:67 SP:FB CYC:  0
E557  E0 55     CPX #$55                        A:55 X:55 Y:77 P:67 SP:FB CYC:  0
E559  D0 04     BNE $E55F                       A:55 X:55 Y:77 P:67 SP:FB CYC:  0
E55B  C0 77     CPY #$77                        A:55 X:55 Y:77 P:67 SP:FB CYC:  0
E55D  F0 04     BEQ $E563                       A:55 X:55 Y:77 P:67 SP:FB CYC:  0
E563  A2 05     LDX #$05                        A:55 X:55 Y:77 P:67 SP:FB CYC:  0
E565  A0 33     LDY #$33                        A:55 X:05 Y:77 P:65 SP:FB CYC:  0
E567  B8        CLV                             A:55 X:05 Y:33 P:65 SP:FB CYC:  0
E568  18        CLC                             A:55 X:05 Y:33 P:25 SP:FB CYC:  0
E569  A9 00     LDA #$00                        A:55 X:05 Y:33 P:24 SP:FB CYC:  0
E56B  A3 40    *LAX ($40,X) @ 45 = 0432 = AA    A:00 X:05 Y:33 P:26 SP:FB CYC:  0
E56D  EA        NOP                             A:AA X:AA Y:33 P:A4 SP:FB CYC:  0
E56E  EA        NOP                             A:AA X:AA Y:33 P:A4 SP:FB CYC:  0
E56F  EA        NOP                             A:AA X:AA Y:33 P:A4 SP:FB CYC:  0
E570  EA        NOP                             A:AA X:AA Y:33 P:A4 SP:FB CYC:  0
E571  F0 12     BEQ $E585                       A:AA X:AA Y:33 P:A4 SP:FB CYC:  0
E573  10 10     BPL $E585                       A:AA X:AA Y:33 P:A4 SP:FB CYC:  0
E575  70 0E     BVS $E585                       A:AA X:AA Y:33 P:A4 SP:FB CYC:  0
E577  B0 0C     BCS $E585                       A:AA X:AA Y:33 P:A4 SP:FB CYC:  0
E579  C9 AA     CMP #$AA                        A:AA X:AA Y:33 P:A4 SP:FB CYC:  0
E57B  D0 08     BNE $E585                       A:AA X:AA Y:33 P:27 SP:FB CYC:  0
E57D  E0 AA     CPX #$AA                        A:AA X:AA Y:33 P:27 SP:FB CYC:  0
E57F  D0 04     BNE $E585                       A:AA X:AA Y:33 P:27 SP:FB CYC:  0
E581  C0 33     CPY #$33                        A:AA X:AA Y:33 P:27 SP:FB CYC:  0
E583  F0 04     BEQ $E589                       A:AA X:AA Y:33 P:27 SP:FB CYC:  0
E589  A9 87     LDA #$87                        A:AA X:AA Y:33 P:27 SP:FB CYC:  0
E58B  85 67     STA $67 = 00                    A:87 X:AA Y:33 P:A5 SP:FB CYC:  0
E58D  A9 32     LDA #$32                        A:87 X:AA Y:33 P:A5 SP:FB CYC:  0
E58F  85 68     STA $68 = 00                    A:32 X:AA Y:33 P:25 SP:FB CYC:  0
E591  A0 57     LDY #$57                        A:32 X:AA Y:33 P:25 SP:FB CYC:  0
E593  24 01     BIT $01 = FF                    A:32 X:AA Y:57 P:25 SP:FB CYC:  0
E595  38        SEC                             A:32 X:AA Y:57 P:E5 SP:FB CYC:  0
E596  A9 00     LDA #$00                        A:32 X:AA Y:57 P:E5 SP:FB CYC:  0
E598  A7 67    *LAX $67 = 87                    A:00 X:AA Y:57 P:67 SP:FB CYC:  0
E59A  EA        NOP                             A:87 X:87 Y:57 P:E5 SP:FB CYC:  0
E59B  EA        NOP                             A:87 X:87 Y:57 P:E5 SP:FB CYC:  0
E59C  EA        NOP                             A:87 X:87 Y:57 P:E5 SP:FB CYC:  0
E59D  EA        NOP                             A:87 X:87 Y:57 P:E5 SP:FB CYC:  0
E59E  F0 12     BEQ $E5B2                       A:87 X:87 Y:57 P:E5 SP:FB CYC:  0
E5A0  10 10     BPL $E5B2                       A:87 X:87 Y:57 P:E5 SP:FB CYC:  0
E5A2  50 0E     BVC $E5B2                       A:87 X:87 Y:57 P:E5 SP:FB CYC:  0
E5A4  90 0C     BCC $E5B2                       A:87 X:87 Y:57 P:E5 SP:FB CYC:  0
E5A6  C9 87     CMP #$87                        A:87 X:87 Y:57 P:E5 SP:FB CYC:  0
E5A8  D0 08     BNE $E5B2                       A:87 X:87 Y:57 P:67 SP:FB CYC:  0
E5AA  E0 87     CPX #$87                        A:87 X:87 Y:57 P:67 SP:FB CYC:  0
E5AC  D0 04     BNE $E5B2                       A:87 X:87 Y:57 P:67 SP:FB CYC:  0
E5AE  C0 57     CPY #$57                        A:87 X:87 Y:57 P:67 SP:FB CYC:  0
E5B0  F0 04     BEQ $E5B6                       A:87 X:87 Y:57 P:67 SP:FB CYC:  0
E5B6  A0 53     LDY #$53                        A:87 X:87 Y:57 P:67 SP:FB CYC:  0
E5B8  B8        CLV                             A:87 X:87 Y:53 P:65 SP:FB CYC:  0
E5B9  18        CLC                             A:87 X:87 Y:53 P:25 SP:FB CYC:  0
E5BA  A9 00     LDA #$00                        A:87 X:87 Y:53 P:24 SP:FB CYC:  0
E5BC  A7 68    *LAX $68 = 32                    A:00 X:87 Y:53 P:26 SP:FB CYC:  0
E5BE  EA        NOP                             A:32 X:32 Y:53 P:24 SP:FB CYC:  0
E5BF  EA        NOP                             A:32 X:32 Y:53 P:24 SP:FB CYC:  0
E5C0  EA        NOP                             A:32 X:32 Y:53 P:24 SP:FB CYC:  0
E5C1  EA        NOP                             A:32 X:32 Y:53 P:24 SP:FB CYC:  0
E5C2  F0 12     BEQ $E5D6                       A:32 X:32 Y:53 P:24 SP:FB CYC:  0
E5C4  30 10     BMI $E5D6                       A:32 X:32 Y:53 P:24 SP:FB CYC:  0
E5C6  70 0E     BVS $E5D6                       A:32 X:32 Y:53 P:24 SP:FB CYC:  0
E5C8  B0 0C     BCS $E5D6                       A:32 X:32 Y:53 P:24 SP:FB CYC:  0
E5CA  C9 32     CMP #$32                        A:32 X:32 Y:53 P:24 SP:FB CYC:  0
E5CC  D0 08     BNE $E5D6                       A:32 X:32 Y:53 P:27 SP:FB CYC:  0
E5CE  E0 32     CPX #$32                        A:32 X:32 Y:53 P:27 SP:FB CYC:  0
E5D0  D0 04     BNE $E5D6                       A:32 X:32 Y:53 P:27 SP:FB CYC:  0
E5D2  C0 53     CPY #$53                        A:32 X:32 Y:53 P:27 SP:FB CYC:  0
E5D4  F0 04     BEQ $E5DA                       A:32 X:32 Y:53 P:27 SP:FB CYC:  0
E5DA  A9 87     LDA #$87                        A:32 X:32 Y:53 P:27 SP:FB CYC:  0
E5DC  8D 77 05  STA $0577 = 00                  A:87 X:32 Y:53 P:A5 SP:FB CYC:  0
E5DF  A9 32     LDA #$32                        A:87 X:32 Y:53 P:A5 SP:FB CYC:  0
E5E1  8D 78 05  STA $0578 = 00                  A:32 X:32 Y:53 P:25 SP:FB CYC:  0
E5E4  A0 57     LDY #$57                        A:32 X:32 Y:53 P:25 SP:FB CYC:  0
E5E6  24 01     BIT $01 = FF                    A:32 X:32 Y:57 P:25 SP:FB CYC:  0
E5E8  38        SEC                             A:32 X:32 Y:57 P:E5 SP:FB CYC:  0
E5E9  A9 00     LDA #$00                        A:32 X:32 Y:57 P:E5 SP:FB CYC:  0
E5EB  AF 77 05 *LAX $0577 = 87                  A:00 X:32 Y:57 P:67 SP:FB CYC:  0
E5EE  EA        NOP                             A:87 X:87 Y:57 P:E5 SP:FB CYC:  0
E5EF  EA        NOP                             A:87 X:87 Y:57 P:E5 SP:FB CYC:  0
E5F0  EA        NOP                             A:87 X:87 Y:57 P:E5 SP:FB CYC:  0
E5F1  EA        NOP                             A:87 X:87 Y:57 P:E5 SP:FB CYC:  0
E5F2  F0 12     BEQ $E606                       A:87 X:87 Y:57 P:E5 SP:FB CYC:  0
E5F4  10 10     BPL $E606                       A:87 X:87 Y:57 P:E5 SP:FB CYC:  0
E5F6  50 0E     BVC $E606                       A:87 X:87 Y:57 P:E5 SP:FB CYC:  0
E5F8  90 0C     BCC $E606                       A:87 X:87 Y:57 P:E5 SP:FB CYC:  0
E5FA  C9 87     CMP #$87                        A:87 X:87 Y:57 P:E5 SP:FB CYC:  0
E5FC  D0 08     BNE $E606                       A:87 X:87 Y:57 P:67 SP:FB CYC:  0
E5FE  E0 87     CPX #$87                        A:87 X:87 Y:57 P:67 SP:FB CYC:  0
E600  D0 04     BNE $E606                       A:87 X:87 Y:57 P:67 SP:FB CYC:  0
E602  C0 57     CPY #$57                        A:87 X:87 Y:57 P:67 SP:FB CYC:  0
E604  F0 04     BEQ $E60A                       A:87 X:87 Y:57 P:67 SP:FB CYC:  0
E60A  A0 53     LDY #$53                        A:87 X:87 Y:57 P:67 SP:FB CYC:  0
E60C  B8        CLV                             A:87 X:87 Y:53 P:65 SP:FB CYC:  0
E60D  18        CLC                             A:87 X:87 Y:53 P:25 SP:FB CYC:  0
E60E  A9 00     LDA #$00                        A:87 X:87 Y:53 P:24 SP:FB CYC:  0
E610  AF 78 05 *LAX $0578 = 32                  A:00 X:87 Y:53 P:26 SP:FB CYC:  0
E613  EA        NOP                             A:32 X:32 Y:53 P:24 SP:FB CYC:  0
E614  EA        NOP                             A:32 X:32 Y:53 P:24 SP:FB CYC:  0
E615  EA        NOP                             A:32 X:32 Y:53 P:24 SP:FB CYC:  0
E616  EA        NOP                             A:32 X:32 Y:53 P:24 SP:FB CYC:  0
E617  F0 12     BEQ $E62B                       A:32 X:32 Y:53 P:24 SP:FB CYC:  0
E619  30 10     BMI $E62B                       A:32 X:32 Y:53 P:24 SP:FB CYC:  0
E61B  70 0E     BVS $E62B                       A:32 X:32 Y:53 P:24 SP:FB CYC:  0
E61D  B0 0C     BCS $E62B                       A:32 X:32 Y:53 P:24 SP:FB CYC:  0
E61F  C9 32     CMP #$32                        A:32 X:32 Y:53 P:24 SP:FB CYC:  0
E621  D0 08     BNE $E62B                       A:32 X:32 Y:53 P:27 SP:FB CYC:  0
E623  E0 32     CPX #$32                        A:32 X:32 Y:53 P:27 SP:FB CYC:  0
E625  D0 04     BNE $E62B                       A:32 X:32 Y:53 P:27 SP:FB CYC:  0
E627  C0 53     CPY #$53                        A:32 X:32 Y:53 P:27 SP:FB CYC:  0
E629  F0 04     BEQ $E62F                       A:32 X:32 Y:53 P:27 SP:FB CYC:  0
E62F  A9 FF     LDA #$FF                        A:32 X:32 Y:53 P:27 SP:FB CYC:  0
E631  85 43     STA $43 = 80                    A:FF X:32 Y:53 P:A5 SP:FB CYC:  0
E633  A9 04     LDA #$04                        A:FF X:32 Y:53 P:A5 SP:FB CYC:  0
E635  85 44     STA $44 = 05                    A:04 X:32 Y:53 P:25 SP:FB CYC:  0
E637  A9 32     LDA #$32                        A:04 X:32 Y:53 P:25 SP:FB CYC:  0
E639  85 45     STA $45 = 32                    A:32 X:32 Y:53 P:25 SP:FB CYC:  0
E63B  A9 04     LDA #$04                        A:32 X:32 Y:53 P:25 SP:FB CYC:  0
E63D  85 46     STA $46 = 04                    A:04 X:32 Y:53 P:25 SP:FB CYC:  0
E63F  A9 55     LDA #$55                        A:04 X:32 Y:53 P:25 SP:FB CYC:  0
E641  8D 80 05  STA $0580 = 55                  A:55 X:32 Y:53 P:25 SP:FB CYC:  0
E644  A9 AA     LDA #$AA                        A:55 X:32 Y:53 P:25 SP:FB CYC:  0
E646  8D 32 04  STA $0432 = AA                  A:AA X:32 Y:53 P:A5 SP:FB CYC:  0
E649  A2 03     LDX #$03                        A:AA X:32 Y:53 P:A5 SP:FB CYC:  0
E64B  A0 81     LDY #$81                        A:AA X:03 Y:53 P:25 SP:FB CYC:  0
E64D  24 01     BIT $01 = FF                    A:AA X:03 Y:81 P:A5 SP:FB CYC:  0
E64F  38        SEC                             A:AA X:03 Y:81 P:E5 SP:FB CYC:  0
E650  A9 00     LDA #$00                        A:AA X:03 Y:81 P:E5 SP:FB CYC:  0
E652  B3 43    *LAX ($43),Y = 04FF @ 0580 = 55  A:00 X:03 Y:81 P:67 SP:FB CYC:  0
E654  EA        NOP                             A:55 X:55 Y:81 P:65 SP:FB CYC:  0
E655  EA        NOP                             A:55 X:55 Y:81 P:65 SP:FB CYC:  0
E656  EA        NOP                             A:55 X:55 Y:81 P:65 SP:FB CYC:  0
E657  EA        NOP                             A:55 X:55 Y:81 P:65 SP:FB CYC:  0
E658  F0 12     BEQ $E66C                       A:55 X:55 Y:81 P:65 SP:FB CYC:  0
E65A  30 10     BMI $E66C                       A:55 X:55 Y:81 P:65 SP:FB CYC:  0
E65C  50 0E     BVC $E66C                       A:55 X:55 Y:81 P:65 SP:FB CYC:  0
E65E  90 0C     BCC $E66C                       A:55 X:55 Y:81 P:65 SP:FB CYC:  0
E660  C9 55     CMP #$55                        A:55 X:55 Y:81 P:65 SP:FB CYC:  0
E662  D0 08     BNE $E66C                       A:55 X:55 Y:81 P:67 SP:FB CYC:  0
E664  E0 55     CPX #$55                        A:55 X:55 Y:81 P:67 SP:FB CYC:  0
E666  D0 04     BNE $E66C                       A:55 X:55 Y:81 P:67 SP:FB CYC:  0
E668  C0 81     CPY #$81                        A:55 X:55 Y:81 P:67 SP:FB CYC:  0
E66A  F0 04     BEQ $E670                       A:55 X:55 Y:81 P:67 SP:FB CYC:  0
E670  A2 05     LDX #$05                        A:55 X:55 Y:81 P:67 SP:FB CYC:  0
E672  A0 00     LDY #$00                        A:55 X:05 Y:81 P:65 SP:FB CYC:  0
E674  B8        CLV                             A:55 X:05 Y:00 P:67 SP:FB CYC:  0
E675  18        CLC                             A:55 X:05 Y:00 P:27 SP:FB CYC:  0
E676  A9 00     LDA #$00                        A:55 X:05 Y:00 P:26 SP:FB CYC:  0
E678  B3 45    *LAX ($45),Y = 0432 @ 0432 = AA  A:00 X:05 Y:00 P:26 SP:FB CYC:  0
E67A  EA        NOP                             A:AA X:AA Y:00 P:A4 SP:FB CYC:  0
E67B  EA        NOP                             A:AA X:AA Y:00 P:A4 SP:FB CYC:  0
E67C  EA        NOP                             A:AA X:AA Y:00 P:A4 SP:FB CYC:  0
E67D  EA        NOP                             A:AA X:AA Y:00 P:A4 SP:FB CYC:  0
E67E  F0 12     BEQ $E692                       A:AA X:AA Y:00 P:A4 SP:FB CYC:  0
E680  10 10     BPL $E692                       A:AA X:AA Y:00 P:A4 SP:FB CYC:  0
E682  70 0E     BVS $E692                       A:AA X:AA Y:00 P:A4 SP:FB CYC:  0
E684  B0 0C     BCS $E692                       A:AA X:AA Y:00 P:A4 SP:FB CYC:  0
E686  C9 AA     CMP #$AA                        A:AA X:AA Y:00 P:A4 SP:FB CYC:  0
E688  D0 08     BNE $E692                       A:AA X:AA Y:00 P:27 SP:FB CYC:  0
E68A  E0 AA     CPX #$AA                        A:AA X:AA Y:00 P:27 SP:FB CYC:  0
E68C  D0 04     BNE $E692                       A:AA X:AA Y:00 P:27 SP:FB CYC:  0
E68E  C0 00     CPY #$00                        A:AA X:AA Y:00 P:27 SP:FB CYC:  0
E690  F0 04     BEQ $E696                       A:AA X:AA Y:00 P:27 SP:FB CYC:  0
E696  A9 87     LDA #$87                        A:AA X:AA Y:00 P:27 SP:FB CYC:  0
E698  85 67     STA $67 = 87                    A:87 X:AA Y:00 P:A5 SP:FB CYC:  0
E69A  A9 32     LDA #$32                        A:87 X:AA Y:00 P:A5 SP:FB CYC:  0
E69C  85 68     STA $68 = 32                    A:32 X:AA Y:00 P:25 SP:FB CYC:  0
E69E  A0 57     LDY #$57                        A:32 X:AA Y:00 P:25 SP:FB CYC:  0
E6A0  24 01     BIT $01 = FF                    A:32 X:AA Y:57 P:25 SP:FB CYC:  0
E6A2  38        SEC                             A:32 X:AA Y:57 P:E5 SP:FB CYC:  0
E6A3  A9 00     LDA #$00                        A:32 X:AA Y:57 P:E5 SP:FB CYC:  0
E6A5  B7 10    *LAX $10,Y @ 67 = 87             A:00 X:AA Y:57 P:67 SP:FB CYC:  0
E6A7  EA        NOP                             A:87 X:87 Y:57 P:E5 SP:FB CYC:  0
E6A8  EA        NOP                             A:87 X:87 Y:57 P:E5 SP:FB CYC:  0
E6A9  EA        NOP                             A:87 X:87 Y:57 P:E5 SP:FB CYC:  0
E6AA  EA        NOP                             A:87 X:87 Y:57 P:E5 SP:FB CYC:  0
E6AB  F0 12     BEQ $E6BF                       A:87 X:87 Y:57 P:E5 SP:FB CYC:  0
E6AD  10 10     BPL $E6BF                       A:87 X:87 Y:57 P:E5 SP:FB CYC:  0
E6AF  50 0E     BVC $E6BF                       A:87 X:87 Y:57 P:E5 SP:FB CYC:  0
E6B1  90 0C     BCC $E6BF                       A:87 X:87 Y:57 P:E5 SP:FB CYC:  0
E6B3  C9 87     CMP #$87                        A:87 X:87 Y:57 P:E5 SP:FB CYC:  0
E6B5  D0 08     BNE $E6BF                       A:87 X:87 Y:57 P:67 SP:FB CYC:  0
E6B7  E0 87     CPX #$87                        A:87 X:87 Y:57 P:67 SP:FB CYC:  0
E6B9  D0 04     BNE $E6BF                       A:87 X:87 Y:57 P:67 SP:FB CYC:  0
E6BB  C0 57     CPY #$57                        A:87 X:87 Y:57 P:67 SP:FB CYC:  0
E6BD  F0 04     BEQ $E6C3                       A:87 X:87 Y:57 P:67 SP:FB CYC:  0
E6C3  A0 FF     LDY #$FF                        A:87 X:87 Y:57 P:67 SP:FB CYC:  0
E6C5  B8        CLV                             A:87 X:87 Y:FF P:E5 SP:FB CYC:  0
E6C6  18        CLC                             A:87 X:87 Y:FF P:A5 SP:FB CYC:  0
E6C7  A9 00     LDA #$00                        A:87 X:87 Y:FF P:A4 SP:FB CYC:  0
E6C9  B7 69    *LAX $69,Y @ 68 = 32             A:00 X:87 Y:FF P:26 SP:FB CYC:  0
E6CB  EA        NOP                             A:32 X:32 Y:FF P:24 SP:FB CYC:  0
E6CC  EA        NOP                             A:32 X:32 Y:FF P:24 SP:FB CYC:  0
E6CD  EA        NOP                             A:32 X:32 Y:FF P:24 SP:FB CYC:  0
E6CE  EA        NOP                             A:32 X:32 Y:FF P:24 SP:FB CYC:  0
E6CF  F0 12     BEQ $E6E3                       A:32 X:32 Y:FF P:24 SP:FB CYC:  0
E6D1  30 10     BMI $E6E3                       A:32 X:32 Y:FF P:24 SP:FB CYC:  0
E6D3  70 0E     BVS $E6E3                       A:32 X:32 Y:FF P:24 SP:FB CYC:  0
E6D5  B0 0C     BCS $E6E3                       A:32 X:32 Y:FF P:24 SP:FB CYC:  0
E6D7  C9 32     CMP #$32                        A:32 X:32 Y:FF P:24 SP:FB CYC:  0
E6D9  D0 08     BNE $E6E3                       A:32 X:32 Y:FF P:27 SP:FB CYC:  0
E6DB  E0 32     CPX #$32                        A:32 X:32 Y:FF P:27 SP:FB CYC:  0
E6DD  D0 04     BNE $E6E3                       A:32 X:32 Y:FF P:27 SP:FB CYC:  0
E6DF  C0 FF     CPY #$FF                        A:32 X:32 Y:FF P:27 SP:FB CYC:  0
E6E1  F0 04     BEQ $E6E7                       A:32 X:32 Y:FF P:27 SP:FB CYC:  0
E6E7  A9 87     LDA #$87                        A:32 X:32 Y:FF P:27 SP:FB CYC:  0
E6E9  8D 87 05  STA $0587 = 00                  A:87 X:32 Y:FF P:A5 SP:FB CYC:  0
E6EC  A9 32     LDA #$32                        A:87 X:32 Y:FF P:A5 SP:FB CYC:  0
E6EE  8D 88 05  STA $0588 = 00                  A:32 X:32 Y:FF P:25 SP:FB CYC:  0
E6F1  A0 30     LDY #$30                        A:32 X:32 Y:FF P:25 SP:FB CYC:  0
E6F3  24 01     BIT $01 = FF                    A:32 X:32 Y:30 P:25 SP:FB CYC:  0
E6F5  38        SEC                             A:32 X:32 Y:30 P:E5 SP:FB CYC:  0
E6F6  A9 00     LDA #$00                        A:32 X:32 Y:30 P:E5 SP:FB CYC:  0
E6F8  BF 57 05 *LAX $0557,Y @ 0587 = 87         A:00 X:32 Y:30 P:67 SP:FB CYC:  0
E6FB  EA        NOP                             A:87 X:87 Y:30 P:E5 SP:FB CYC:  0
E6FC  EA        NOP                             A:87 X:87 Y:30 P:E5 SP:FB CYC:  0
E6FD  EA        NOP                             A:87 X:87 Y:30 P:E5 SP:FB CYC:  0
E6FE  EA        NOP                             A:87 X:87 Y:30 P:E5 SP:FB CYC:  0
E6FF  F0 12     BEQ $E713                       A:87 X:87 Y:30 P:E5 SP:FB CYC:  0
E701  10 10     BPL $E713                       A:87 X:87 Y:30 P:E5 SP:FB CYC:  0
E703  50 0E     BVC $E713                       A:87 X:87 Y:30 P:E5 SP:FB CYC:  0
E705  90 0C     BCC $E713                       A:87 X:87 Y:30 P:E5 SP:FB CYC:  0
E707  C9 87     CMP #$87                        A:87 X:87 Y:30 P:E5 SP:FB CYC:  0
E709  D0 08     BNE $E713                       A:87 X:87 Y:30 P:67 SP:FB CYC:  0
E70B  E0 87     CPX #$87                        A:87 X:87 Y:30 P:67 SP:FB CYC:  0
E70D  D0 04     BNE $E713                       A:87 X:87 Y:30 P:67 SP:FB CYC:  0
E70F  C0 30     CPY #$30                        A:87 X:87 Y:30 P:67 SP:FB CYC:  0
E711  F0 04     BEQ $E717                       A:87 X:87 Y:30 P:67 SP:FB CYC:  0
E717  A0 40     LDY #$40                        A:87 X:87 Y:30 P:67 SP:FB CYC:  0
E719  B8        CLV                             A:87 X:87 Y:40 P:65 SP:FB CYC:  0
E71A  18        CLC                             A:87 X:87 Y:40 P:25 SP:FB CYC:  0
E71B  A9 00     LDA #$00                        A:87 X:87 Y:40 P:24 SP:FB CYC:  0
E71D  BF 48 05 *LAX $0548,Y @ 0588 = 32         A:00 X:87 Y:40 P:26 SP:FB CYC:  0
E720  EA        NOP                             A:32 X:32 Y:40 P:24 SP:FB CYC:  0
E721  EA        NOP                             A:32 X:32 Y:40 P:24 SP:FB CYC:  0
E722  EA        NOP                             A:32 X:32 Y:40 P:24 SP:FB CYC:  0
E723  EA        NOP                             A:32 X:32 Y:40 P:24 SP:FB CYC:  0
E724  F0 12     BEQ $E738                       A:32 X:32 Y:40 P:24 SP:FB CYC:  0
E726  30 10     BMI $E738                       A:32 X:32 Y:40 P:24 SP:FB CYC:  0
E728  70 0E     BVS $E738                       A:32 X:32 Y:40 P:24 SP:FB CYC:  0
E72A  B0 0C     BCS $E738                       A:32 X:32 Y:40 P:24 SP:FB CYC:  0
E72C  C9 32     CMP #$32                        A:32 X:32 Y:40 P:24 SP:FB CYC:  0
E72E  D0 08     BNE $E738                       A:32 X:32 Y:40 P:27 SP:FB CYC:  0
E730  E0 32     CPX #$32                        A:32 X:32 Y:40 P:27 SP:FB CYC:  0
E732  D0 04     BNE $E738                       A:32 X:32 Y:40 P:27 SP:FB CYC:  0
E734  C0 40     CPY #$40                        A:32 X:32 Y:40 P:27 SP:FB CYC:  0
E736  F0 04     BEQ $E73C                       A:32 X:32 Y:40 P:27 SP:FB CYC:  0
E73C  60        RTS                             A:32 X:32 Y:40 P:27 SP:FB CYC:  0
C635  20 3D E7  JSR $E73D                       A:32 X:32 Y:40 P:27 SP:FD CYC:  0
E73D  A9 C0     LDA #$C0                        A:32 X:32 Y:40 P:27 SP:FB CYC:  0
E73F  85 01     STA $01 = FF                    A:C0 X:32 Y:40 P:A5 SP:FB CYC:  0
E741  A9 00     LDA #$00                        A:C0 X:32 Y:40 P:A5 SP:FB CYC:  0
E743  8D 89 04  STA $0489 = 00                  A:00 X:32 Y:40 P:27 SP:FB CYC:  0
E746  A9 89     LDA #$89                        A:00 X:32 Y:40 P:27 SP:FB CYC:  0
E748  85 60     STA $60 = 00                    A:89 X:32 Y:40 P:A5 SP:FB CYC:  0
E74A  A9 04     LDA #$04                        A:89 X:32 Y:40 P:A5 SP:FB CYC:  0
E74C  85 61     STA $61 = 00                    A:04 X:32 Y:40 P:25 SP:FB CYC:  0
E74E  A0 44     LDY #$44                        A:04 X:32 Y:40 P:25 SP:FB CYC:  0
E750  A2 17     LDX #$17                        A:04 X:32 Y:44 P:25 SP:FB CYC:  0
E752  A9 3E     LDA #$3E                        A:04 X:17 Y:44 P:25 SP:FB CYC:  0
E754  24 01     BIT $01 = C0                    A:3E X:17 Y:44 P:25 SP:FB CYC:  0
E756  18        CLC                             A:3E X:17 Y:44 P:E7 SP:FB CYC:  0
E757  83 49    *SAX ($49,X) @ 60 = 0489 = 00    A:3E X:17 Y:44 P:E6 SP:FB CYC:  0
E759  EA        NOP                             A:3E X:17 Y:44 P:E6 SP:FB CYC:  0
E75A  EA        NOP                             A:3E X:17 Y:44 P:E6 SP:FB CYC:  0
E75B  EA        NOP                             A:3E X:17 Y:44 P:E6 SP:FB CYC:  0
E75C  EA        NOP                             A:3E X:17 Y:44 P:E6 SP:FB CYC:  0
E75D  D0 19     BNE $E778                       A:3E X:17 Y:44 P:E6 SP:FB CYC:  0
E75F  B0 17     BCS $E778                       A:3E X:17 Y:44 P:E6 SP:FB CYC:  0
E761  50 15     BVC $E778                       A:3E X:17 Y:44 P:E6 SP:FB CYC:  0
E763  10 13     BPL $E778                       A:3E X:17 Y:44 P:E6 SP:FB CYC:  0
E765  C9 3E     CMP #$3E                        A:3E X:17 Y:44 P:E6 SP:FB CYC:  0
E767  D0 0F     BNE $E778                       A:3E X:17 Y:44 P:67 SP:FB CYC:  0
E769  C0 44     CPY #$44                        A:3E X:17 Y:44 P:67 SP:FB CYC:  0
E76B  D0 0B     BNE $E778                       A:3E X:17 Y:44 P:67 SP:FB CYC:  0
E76D  E0 17     CPX #$17                        A:3E X:17 Y:44 P:67 SP:FB CYC:  0
E76F  D0 07     BNE $E778                       A:3E X:17 Y:44 P:67 SP:FB CYC:  0
E771  AD 89 04  LDA $0489 = 16                  A:3E X:17 Y:44 P:67 SP:FB CYC:  0
E774  C9 16     CMP #$16                        A:16 X:17 Y:44 P:65 SP:FB CYC:  0
E776  F0 04     BEQ $E77C                       A:16 X:17 Y:44 P:67 SP:FB CYC:  0
E77C  A0 44     LDY #$44                        A:16 X:17 Y:44 P:67 SP:FB CYC:  0
E77E  A2 7A     LDX #$7A                        A:16 X:17 Y:44 P:65 SP:FB CYC:  0
E780  A9 66     LDA #$66                        A:16 X:7A Y:44 P:65 SP:FB CYC:  0
E782  38        SEC                             A:66 X:7A Y:44 P:65 SP:FB CYC:  0
E783  B8        CLV                             A:66 X:7A Y:44 P:65 SP:FB CYC:  0
E784  83 E6    *SAX ($E6,X) @ 60 = 0489 = 16    A:66 X:7A Y:44 P:25 SP:FB CYC:  0
E786  EA        NOP                             A:66 X:7A Y:44 P:25 SP:FB CYC:  0
E787  EA        NOP                             A:66 X:7A Y:44 P:25 SP:FB CYC:  0
E788  EA        NOP                             A:66 X:7A Y:44 P:25 SP:FB CYC:  0
E789  EA        NOP                             A:66 X:7A Y:44 P:25 SP:FB CYC:  0
E78A  F0 19     BEQ $E7A5                       A:66 X:7A Y:44 P:25 SP:FB CYC:  0
E78C  90 17     BCC $E7A5                       A:66 X:7A Y:44 P:25 SP:FB CYC:  0
E78E  70 15     BVS $E7A5                       A:66 X:7A Y:44 P:25 SP:FB CYC:  0
E790  30 13     BMI $E7A5                       A:66 X:7A Y:44 P:25 SP:FB CYC:  0
E792  C9 66     CMP #$66                        A:66 X:7A Y:44 P:25 SP:FB CYC:  0
E794  D0 0F     BNE $E7A5                       A:66 X:7A Y:44 P:27 SP:FB CYC:  0
E796  C0 44     CPY #$44                        A:66 X:7A Y:44 P:27 SP:FB CYC:  0
E798  D0 0B     BNE $E7A5                       A:66 X:7A Y:44 P:27 SP:FB CYC:  0
E79A  E0 7A     CPX #$7A                        A:66 X:7A Y:44 P:27 SP:FB CYC:  0
E79C  D0 07     BNE $E7A5                       A:66 X:7A Y:44 P:27 SP:FB CYC:  0
E79E  AD 89 04  LDA $0489 = 62                  A:66 X:7A Y:44 P:27 SP:FB CYC:  0
E7A1  C9 62     CMP #$62                        A:62 X:7A Y:44 P:25 SP:FB CYC:  0
E7A3  F0 04     BEQ $E7A9                       A:62 X:7A Y:44 P:27 SP:FB CYC:  0
E7A9  A9 FF     LDA #$FF                        A:62 X:7A Y:44 P:27 SP:FB CYC:  0
E7AB  85 49     STA $49 = 00                    A:FF X:7A Y:44 P:A5 SP:FB CYC:  0
E7AD  A0 44     LDY #$44                        A:FF X:7A Y:44 P:A5 SP:FB CYC:  0
E7AF  A2 AA     LDX #$AA                        A:FF X:7A Y:44 P:25 SP:FB CYC:  0
E7B1  A9 55     LDA #$55                        A:FF X:AA Y:44 P:A5 SP:FB CYC:  0
E7B3  24 01     BIT $01 = C0                    A:55 X:AA Y:44 P:25 SP:FB CYC:  0
E7B5  18        CLC                             A:55 X:AA Y:44 P:E5 SP:FB CYC:  0
E7B6  87 49    *SAX $49 = FF                    A:55 X:AA Y:44 P:E4 SP:FB CYC:  0
E7B8  EA        NOP                             A:55 X:AA Y:44 P:E4 SP:FB CYC:  0
E7B9  EA        NOP                             A:55 X:AA Y:44 P:E4 SP:FB CYC:  0
E7BA  EA        NOP                             A:55 X:AA Y:44 P:E4 SP:FB CYC:  0
E7BB  EA        NOP                             A:55 X:AA Y:44 P:E4 SP:FB CYC:  0
E7BC  F0 18     BEQ $E7D6                       A:55 X:AA Y:44 P:E4 SP:FB CYC:  0
E7BE  B0 16     BCS $E7D6                       A:55 X:AA Y:44 P:E4 SP:FB CYC:  0
E7C0  50 14     BVC $E7D6                       A:55 X:AA Y:44 P:E4 SP:FB CYC:  0
E7C2  10 12     BPL $E7D6                       A:55 X:AA Y:44 P:E4 SP:FB CYC:  0
E7C4  C9 55     CMP #$55                        A:55 X:AA Y:44 P:E4 SP:FB CYC:  0
E7C6  D0 0E     BNE $E7D6                       A:55 X:AA Y:44 P:67 SP:FB CYC:  0
E7C8  C0 44     CPY #$44                        A:55 X:AA Y:44 P:67 SP:FB CYC:  0
E7CA  D0 0A     BNE $E7D6                       A:55 X:AA Y:44 P:67 SP:FB CYC:  0
E7CC  E0 AA     CPX #$AA                        A:55 X:AA Y:44 P:67 SP:FB CYC:  0
E7CE  D0 06     BNE $E7D6                       A:55 X:AA Y:44 P:67 SP:FB CYC:  0
E7D0  A5 49     LDA $49 = 00                    A:55 X:AA Y:44 P:67 SP:FB CYC:  0
E7D2  C9 00     CMP #$00                        A:00 X:AA Y:44 P:67 SP:FB CYC:  0
E7D4  F0 04     BEQ $E7DA                       A:00 X:AA Y:44 P:67 SP:FB CYC:  0
E7DA  A9 00     LDA #$00                        A:00 X:AA Y:44 P:67 SP:FB CYC:  0
E7DC  85 56     STA $56 = 00                    A:00 X:AA Y:44 P:67 SP:FB CYC:  0
E7DE  A0 58     LDY #$58                        A:00 X:AA Y:44 P:67 SP:FB CYC:  0
E7E0  A2 EF     LDX #$EF                        A:00 X:AA Y:58 P:65 SP:FB CYC:  0
E7E2  A9 66     LDA #$66                        A:00 X:EF Y:58 P:E5 SP:FB CYC:  0
E7E4  38        SEC                             A:66 X:EF Y:58 P:65 SP:FB CYC:  0
E7E5  B8        CLV                             A:66 X:EF Y:58 P:65 SP:FB CYC:  0
E7E6  87 56    *SAX $56 = 00                    A:66 X:EF Y:58 P:25 SP:FB CYC:  0
E7E8  EA        NOP                             A:66 X:EF Y:58 P:25 SP:FB CYC:  0
E7E9  EA        NOP                             A:66 X:EF Y:58 P:25 SP:FB CYC:  0
E7EA  EA        NOP                             A:66 X:EF Y:58 P:25 SP:FB CYC:  0
E7EB  EA        NOP                             A:66 X:EF Y:58 P:25 SP:FB CYC:  0
E7EC  F0 18     BEQ $E806                       A:66 X:EF Y:58 P:25 SP:FB CYC:  0
E7EE  90 16     BCC $E806                       A:66 X:EF Y:58 P:25 SP:FB CYC:  0
E7F0  70 14     BVS $E806                       A:66 X:EF Y:58 P:25 SP:FB CYC:  0
E7F2  30 12     BMI $E806                       A:66 X:EF Y:58 P:25 SP:FB CYC:  0
E7F4  C9 66     CMP #$66                        A:66 X:EF Y:58 P:25 SP:FB CYC:  0
E7F6  D0 0E     BNE $E806                       A:66 X:EF Y:58 P:27 SP:FB CYC:  0
E7F8  C0 58     CPY #$58                        A:66 X:EF Y:58 P:27 SP:FB CYC:  0
E7FA  D0 0A     BNE $E806                       A:66 X:EF Y:58 P:27 SP:FB CYC:  0
E7FC  E0 EF     CPX #$EF                        A:66 X:EF Y:58 P:27 SP:FB CYC:  0
E7FE  D0 06     BNE $E806                       A:66 X:EF Y:58 P:27 SP:FB CYC:  0
E800  A5 56     LDA $56 = 66                    A:66 X:EF Y:58 P:27 SP:FB CYC:  0
E802  C9 66     CMP #$66                        A:66 X:EF Y:58 P:25 SP:FB CYC:  0
E804  F0 04     BEQ $E80A                       A:66 X:EF Y:58 P:27 SP:FB CYC:  0
E80A  A9 FF     LDA #$FF                        A:66 X:EF Y:58 P:27 SP:FB CYC:  0
E80C  8D 49 05  STA $0549 = 00                  A:FF X:EF Y:58 P:A5 SP:FB CYC:  0
E80F  A0 E5     LDY #$E5                        A:FF X:EF Y:58 P:A5 SP:FB CYC:  0
E811  A2 AF     LDX #$AF                        A:FF X:EF Y:E5 P:A5 SP:FB CYC:  0
E813  A9 F5     LDA #$F5                        A:FF X:AF Y:E5 P:A5 SP:FB CYC:  0
E815  24 01     BIT $01 = C0                    A:F5 X:AF Y:E5 P:A5 SP:FB CYC:  0
E817  18        CLC                             A:F5 X:AF Y:E5 P:E5 SP:FB CYC:  0
E818  8F 49 05 *SAX $0549 = FF                  A:F5 X:AF Y:E5 P:E4 SP:FB CYC:  0
E81B  EA        NOP                             A:F5 X:AF Y:E5 P:E4 SP:FB CYC:  0
E81C  EA        NOP                             A:F5 X:AF Y:E5 P:E4 SP:FB CYC:  0
E81D  EA        NOP                             A:F5 X:AF Y:E5 P:E4 SP:FB CYC:  0
E81E  EA        NOP                             A:F5 X:AF Y:E5 P:E4 SP:FB CYC:  0
E81F  F0 19     BEQ $E83A                       A:F5 X:AF Y:E5 P:E4 SP:FB CYC:  0
E821  B0 17     BCS $E83A                       A:F5 X:AF Y:E5 P:E4 SP:FB CYC:  0
E823  50 15     BVC $E83A                       A:F5 X:AF Y:E5 P:E4 SP:FB CYC:  0
E825  10 13     BPL $E83A                       A:F5 X:AF Y:E5 P:E4 SP:FB CYC:  0
E827  C9 F5     CMP #$F5                        A:F5 X:AF Y:E5 P:E4 SP:FB CYC:  0
E829  D0 0F     BNE $E83A                       A:F5 X:AF Y:E5 P:67 SP:FB CYC:  0
E82B  C0 E5     CPY #$E5                        A:F5 X:AF Y:E5 P:67 SP:FB CYC:  0
E82D  D0 0B     BNE $E83A                       A:F5 X:AF Y:E5 P:67 SP:FB CYC:  0
E82F  E0 AF     CPX #$AF                        A:F5 X:AF Y:E5 P:67 SP:FB CYC:  0
E831  D0 07     BNE $E83A                       A:F5 X:AF Y:E5 P:67 SP:FB CYC:  0
E833  AD 49 05  LDA $0549 = A5                  A:F5 X:AF Y:E5 P:67 SP:FB CYC:  0
E836  C9 A5     CMP #$A5                        A:A5 X:AF Y:E5 P:E5 SP:FB CYC:  0
E838  F0 04     BEQ $E83E                       A:A5 X:AF Y:E5 P:67 SP:FB CYC:  0
E83E  A9 00     LDA #$00                        A:A5 X:AF Y:E5 P:67 SP:FB CYC:  0
E840  8D 56 05  STA $0556 = 00                  A:00 X:AF Y:E5 P:67 SP:FB CYC:  0
E843  A0 58     LDY #$58                        A:00 X:AF Y:E5 P:67 SP:FB CYC:  0
E845  A2 B3     LDX #$B3                        A:00 X:AF Y:58 P:65 SP:FB CYC:  0
E847  A9 97     LDA #$97                        A:00 X:B3 Y:58 P:E5 SP:FB CYC:  0
E849  38        SEC                             A:97 X:B3 Y:58 P:E5 SP:FB CYC:  0
E84A  B8        CLV                             A:97 X:B3 Y:58 P:E5 SP:FB CYC:  0
E84B  8F 56 05 *SAX $0556 = 00                  A:97 X:B3 Y:58 P:A5 SP:FB CYC:  0
E84E  EA        NOP                             A:97 X:B3 Y:58 P:A5 SP:FB CYC:  0
E84F  EA        NOP                             A:97 X:B3 Y:58 P:A5 SP:FB CYC:  0
E850  EA        NOP                             A:97 X:B3 Y:58 P:A5 SP:FB CYC:  0
E851  EA        NOP                             A:97 X:B3 Y:58 P:A5 SP:FB CYC:  0
E852  F0 19     BEQ $E86D                       A:97 X:B3 Y:58 P:A5 SP:FB CYC:  0
E854  90 17     BCC $E86D                       A:97 X:B3 Y:58 P:A5 SP:FB CYC:  0
E856  70 15     BVS $E86D                       A:97 X:B3 Y:58 P:A5 SP:FB CYC:  0
E858  10 13     BPL $E86D                       A:97 X:B3 Y:58 P:A5 SP:FB CYC:  0
E85A  C9 97     CMP #$97                        A:97 X:B3 Y:58 P:A5 SP:FB CYC:  0
E85C  D0 0F     BNE $E86D                       A:97 X:B3 Y:58 P:27 SP:FB CYC:  0
E85E  C0 58     CPY #$58                        A:97 X:B3 Y:58 P:27 SP:FB CYC:  0
E860  D0 0B     BNE $E86D                       A:97 X:B3 Y:58 P:27 SP:FB CYC:  0
E862  E0 B3     CPX #$B3                        A:97 X:B3 Y:58 P:27 SP:FB CYC:  0
E864  D0 07     BNE $E86D                       A:97 X:B3 Y:58 P:27 SP:FB CYC:  0
E866  AD 56 05  LDA $0556 = 93                  A:97 X:B3 Y:58 P:27 SP:FB CYC:  0
E869  C9 93     CMP #$93                        A:93 X:B3 Y:58 P:A5 SP:FB CYC:  0
E86B  F0 04     BEQ $E871                       A:93 X:B3 Y:58 P:27 SP:FB CYC:  0
E871  A9 FF     LDA #$FF                        A:93 X:B3 Y:58 P:27 SP:FB CYC:  0
E873  85 49     STA $49 = 00                    A:FF X:B3 Y:58 P:A5 SP:FB CYC:  0
E875  A0 FF     LDY #$FF                        A:FF X:B3 Y:58 P:A5 SP:FB CYC:  0
E877  A2 AA     LDX #$AA                        A:FF X:B3 Y:FF P:A5 SP:FB CYC:  0
E879  A9 55     LDA #$55                        A:FF X:AA Y:FF P:A5 SP:FB CYC:  0
E87B  24 01     BIT $01 = C0                    A:55 X:AA Y:FF P:25 SP:FB CYC:  0
E87D  18        CLC                             A:55 X:AA Y:FF P:E5 SP:FB CYC:  0
E87E  97 4A    *SAX $4A,Y @ 49 = FF             A:55 X:AA Y:FF P:E4 SP:FB CYC:  0
E880  EA        NOP                             A:55 X:AA Y:FF P:E4 SP:FB CYC:  0
E881  EA        NOP                             A:55 X:AA Y:FF P:E4 SP:FB CYC:  0
E882  EA        NOP                             A:55 X:AA Y:FF P:E4 SP:FB CYC:  0
E883  EA        NOP                             A:55 X:AA Y:FF P:E4 SP:FB CYC:  0
E884  F0 18     BEQ $E89E                       A:55 X:AA Y:FF P:E4 SP:FB CYC:  0
E886  B0 16     BCS $E89E                       A:55 X:AA Y:FF P:E4 SP:FB CYC:  0
E888  50 14     BVC $E89E                       A:55 X:AA Y:FF P:E4 SP:FB CYC:  0
E88A  10 12     BPL $E89E                       A:55 X:AA Y:FF P:E4 SP:FB CYC:  0
E88C  C9 55     CMP #$55                        A:55 X:AA Y:FF P:E4 SP:FB CYC:  0
E88E  D0 0E     BNE $E89E                       A:55 X:AA Y:FF P:67 SP:FB CYC:  0
E890  C0 FF     CPY #$FF                        A:55 X:AA Y:FF P:67 SP:FB CYC:  0
E892  D0 0A     BNE $E89E                       A:55 X:AA Y:FF P:67 SP:FB CYC:  0
E894  E0 AA     CPX #$AA                        A:55 X:AA Y:FF P:67 SP:FB CYC:  0
E896  D0 06     BNE $E89E                       A:55 X:AA Y:FF P:67 SP:FB CYC:  0
E898  A5 49     LDA $49 = 00                    A:55 X:AA Y:FF P:67 SP:FB CYC:  0
E89A  C9 00     CMP #$00                        A:00 X:AA Y:FF P:67 SP:FB CYC:  0
E89C  F0 04     BEQ $E8A2                       A:00 X:AA Y:FF P:67 SP:FB CYC:  0
E8A2  A9 00     LDA #$00                        A:00 X:AA Y:FF P:67 SP:FB CYC:  0
E8A4  85 56     STA $56 = 66                    A:00 X:AA Y:FF P:67 SP:FB CYC:  0
E8A6  A0 06     LDY #$06                        A:00 X:AA Y:FF P:67 SP:FB CYC:  0
E8A8  A2 EF     LDX #$EF                        A:00 X:AA Y:06 P:65 SP:FB CYC:  0
E8AA  A9 66     LDA #$66                        A:00 X:EF Y:06 P:E5 SP:FB CYC:  0
E8AC  38        SEC                             A:66 X:EF Y:06 P:65 SP:FB CYC:  0
E8AD  B8        CLV                             A:66 X:EF Y:06 P:65 SP:FB CYC:  0
E8AE  97 50    *SAX $50,Y @ 56 = 00             A:66 X:EF Y:06 P:25 SP:FB CYC:  0
E8B0  EA        NOP                             A:66 X:EF Y:06 P:25 SP:FB CYC:  0
E8B1  EA        NOP                             A:66 X:EF Y:06 P:25 SP:FB CYC:  0
E8B2  EA        NOP                             A:66 X:EF Y:06 P:25 SP:FB CYC:  0
E8B3  EA        NOP                             A:66 X:EF Y:06 P:25 SP:FB CYC:  0
E8B4  F0 18     BEQ $E8CE                       A:66 X:EF Y:06 P:25 SP:FB CYC:  0
E8B6  90 16     BCC $E8CE                       A:66 X:EF Y:06 P:25 SP:FB CYC:  0
E8B8  70 14     BVS $E8CE                       A:66 X:EF Y:06 P:25 SP:FB CYC:  0
E8BA  30 12     BMI $E8CE                       A:66 X:EF Y:06 P:25 SP:FB CYC:  0
E8BC  C9 66     CMP #$66                        A:66 X:EF Y:06 P:25 SP:FB CYC:  0
E8BE  D0 0E     BNE $E8CE                       A:66 X:EF Y:06 P:27 SP:FB CYC:  0
E8C0  C0 06     CPY #$06                        A:66 X:EF Y:06 P:27 SP:FB CYC:  0
E8C2  D0 0A     BNE $E8CE                       A:66 X:EF Y:06 P:27 SP:FB CYC:  0
E8C4  E0 EF     CPX #$EF                        A:66 X:EF Y:06 P:27 SP:FB CYC:  0
E8C6  D0 06     BNE $E8CE                       A:66 X:EF Y:06 P:27 SP:FB CYC:  0
E8C8  A5 56     LDA $56 = 66                    A:66 X:EF Y:06 P:27 SP:FB CYC:  0
E8CA  C9 66     CMP #$66                        A:66 X:EF Y:06 P:25 SP:FB CYC:  0
E8CC  F0 04     BEQ $E8D2                       A:66 X:EF Y:06 P:27 SP:FB CYC:  0
E8D2  60        RTS                             A:66 X:EF Y:06 P:27 SP:FB CYC:  0
C638  20 D3 E8  JSR $E8D3                       A:66 X:EF Y:06 P:27 SP:FD CYC:  0
E8D3  A0 90     LDY #$90                        A:66 X:EF Y:06 P:27 SP:FB CYC:  0
E8D5  20 31 F9  JSR $F931                       A:66 X:EF Y:90 P:A5 SP:FB CYC:  0
F931  24 01     BIT $01 = C0                    A:66 X:EF Y:90 P:A5 SP:F9 CYC:  0
F933  A9 40     LDA #$40                        A:66 X:EF Y:90 P:E5 SP:F9 CYC:  0
F935  38        SEC                             A:40 X:EF Y:90 P:65 SP:F9 CYC:  0
F936  60        RTS                             A:40 X:EF Y:90 P:65 SP:F9 CYC:  0
E8D8  EB 40    *SBC #$40                        A:40 X:EF Y:90 P:65 SP:FB CYC:  0
E8DA  EA        NOP                             A:00 X:EF Y:90 P:27 SP:FB CYC:  0
E8DB  EA        NOP                             A:00 X:EF Y:90 P:27 SP:FB CYC:  0
E8DC  EA        NOP                             A:00 X:EF Y:90 P:27 SP:FB CYC:  0
E8DD  EA        NOP                             A:00 X:EF Y:90 P:27 SP:FB CYC:  0
E8DE  20 37 F9  JSR $F937                       A:00 X:EF Y:90 P:27 SP:FB CYC:  0
F937  30 0B     BMI $F944                       A:00 X:EF Y:90 P:27 SP:F9 CYC:  0
F939  90 09     BCC $F944                       A:00 X:EF Y:90 P:27 SP:F9 CYC:  0
F93B  D0 07     BNE $F944                       A:00 X:EF Y:90 P:27 SP:F9 CYC:  0
F93D  70 05     BVS $F944                       A:00 X:EF Y:90 P:27 SP:F9 CYC:  0
F93F  C9 00     CMP #$00                        A:00 X:EF Y:90 P:27 SP:F9 CYC:  0
F941  D0 01     BNE $F944                       A:00 X:EF Y:90 P:27 SP:F9 CYC:  0
F943  60        RTS                             A:00 X:EF Y:90 P:27 SP:F9 CYC:  0
E8E1  C8        INY                             A:00 X:EF Y:90 P:27 SP:FB CYC:  0
E8E2  20 47 F9  JSR $F947                       A:00 X:EF Y:91 P:A5 SP:FB CYC:  0
F947  B8        CLV                             A:00 X:EF Y:91 P:A5 SP:F9 CYC:  0
F948  38        SEC                             A:00 X:EF Y:91 P:A5 SP:F9 CYC:  0
F949  A9 40     LDA #$40                        A:00 X:EF Y:91 P:A5 SP:F9 CYC:  0
F94B  60        RTS                             A:40 X:EF Y:91 P:25 SP:F9 CYC:  0
E8E5  EB 3F    *SBC #$3F                        A:40 X:EF Y:91 P:25 SP:FB CYC:  0
E8E7  EA        NOP                             A:01 X:EF Y:91 P:25 SP:FB CYC:  0
E8E8  EA        NOP                             A:01 X:EF Y:91 P:25 SP:FB CYC:  0
E8E9  EA        NOP                             A:01 X:EF Y:91 P:25 SP:FB CYC:  0
E8EA  EA        NOP                             A:01 X:EF Y:91 P:25 SP:FB CYC:  0
E8EB  20 4C F9  JSR $F94C                       A:01 X:EF Y:91 P:25 SP:FB CYC:  0
F94C  F0 0B     BEQ $F959                       A:01 X:EF Y:91 P:25 SP:F9 CYC:  0
F94E  30 09     BMI $F959                       A:01 X:EF Y:91 P:25 SP:F9 CYC:  0
F950  90 07     BCC $F959                       A:01 X:EF Y:91 P:25 SP:F9 CYC:  0
F952  70 05     BVS $F959                       A:01 X:EF Y:91 P:25 SP:F9 CYC:  0
F954  C9 01     CMP #$01                        A:01 X:EF Y:91 P:25 SP:F9 CYC:  0
F956  D0 01     BNE $F959                       A:01 X:EF Y:91 P:27 SP:F9 CYC:  0
F958  60        RTS                             A:01 X:EF Y:91 P:27 SP:F9 CYC:  0
E8EE  C8        INY                             A:01 X:EF Y:91 P:27 SP:FB CYC:  0
E8EF  20 5C F9  JSR $F95C                       A:01 X:EF Y:92 P:A5 SP:FB CYC:  0
F95C  A9 40     LDA #$40                        A:01 X:EF Y:92 P:A5 SP:F9 CYC:  0
F95E  38        SEC                             A:40 X:EF Y:92 P:25 SP:F9 CYC:  0
F95F  24 01     BIT $01 = C0                    A:40 X:EF Y:92 P:25 SP:F9 CYC:  0
F961  60        RTS                             A:40 X:EF Y:92 P:E5 SP:F9 CYC:  0
E8F2  EB 41    *SBC #$41                        A:40 X:EF Y:92 P:E5 SP:FB CYC:  0
E8F4  EA        NOP                             A:FF X:EF Y:92 P:A4 SP:FB CYC:  0
E8F5  EA        NOP                             A:FF X:EF Y:92 P:A4 SP:FB CYC:  0
E8F6  EA        NOP                             A:FF X:EF Y:92 P:A4 SP:FB CYC:  0
E8F7  EA        NOP                             A:FF X:EF Y:92 P:A4 SP:FB CYC:  0
E8F8  20 62 F9  JSR $F962                       A:FF X:EF Y:92 P:A4 SP:FB CYC:  0
F962  B0 0B     BCS $F96F                       A:FF X:EF Y:92 P:A4 SP:F9 CYC:  0
F964  F0 09     BEQ $F96F                       A:FF X:EF Y:92 P:A4 SP:F9 CYC:  0
F966  10 07     BPL $F96F                       A:FF X:EF Y:92 P:A4 SP:F9 CYC:  0
F968  70 05     BVS $F96F                       A:FF X:EF Y:92 P:A4 SP:F9 CYC:  0
F96A  C9 FF     CMP #$FF                        A:FF X:EF Y:92 P:A4 SP:F9 CYC:  0
F96C  D0 01     BNE $F96F                       A:FF X:EF Y:92 P:27 SP:F9 CYC:  0
F96E  60        RTS                             A:FF X:EF Y:92 P:27 SP:F9 CYC:  0
E8FB  C8        INY                             A:FF X:EF Y:92 P:27 SP:FB CYC:  0
E8FC  20 72 F9  JSR $F972                       A:FF X:EF Y:93 P:A5 SP:FB CYC:  0
F972  18        CLC                             A:FF X:EF Y:93 P:A5 SP:F9 CYC:  0
F973  A9 80     LDA #$80                        A:FF X:EF Y:93 P:A4 SP:F9 CYC:  0
F975  60        RTS                             A:80 X:EF Y:93 P:A4 SP:F9 CYC:  0
E8FF  EB 00    *SBC #$00                        A:80 X:EF Y:93 P:A4 SP:FB CYC:  0
E901  EA        NOP                             A:7F X:EF Y:93 P:65 SP:FB CYC:  0
E902  EA        NOP                             A:7F X:EF Y:93 P:65 SP:FB CYC:  0
E903  EA        NOP                             A:7F X:EF Y:93 P:65 SP:FB CYC:  0
E904  EA        NOP                             A:7F X:EF Y:93 P:65 SP:FB CYC:  0
E905  20 76 F9  JSR $F976                       A:7F X:EF Y:93 P:65 SP:FB CYC:  0
F976  90 05     BCC $F97D                       A:7F X:EF Y:93 P:65 SP:F9 CYC:  0
F978  C9 7F     CMP #$7F                        A:7F X:EF Y:93 P:65 SP:F9 CYC:  0
F97A  D0 01     BNE $F97D                       A:7F X:EF Y:93 P:67 SP:F9 CYC:  0
F97C  60        RTS                             A:7F X:EF Y:93 P:67 SP:F9 CYC:  0
E908  C8        INY                             A:7F X:EF Y:93 P:67 SP:FB CYC:  0
E909  20 80 F9  JSR $F980                       A:7F X:EF Y:94 P:E5 SP:FB CYC:  0
F980  38        SEC                             A:7F X:EF Y:94 P:E5 SP:F9 CYC:  0
F981  A9 81     LDA #$81                        A:7F X:EF Y:94 P:E5 SP:F9 CYC:  0
F983  60        RTS                             A:81 X:EF Y:94 P:E5 SP:F9 CYC:  0
E90C  EB 7F    *SBC #$7F                        A:81 X:EF Y:94 P:E5 SP:FB CYC:  0
E90E  EA        NOP                             A:02 X:EF Y:94 P:65 SP:FB CYC:  0
E90F  EA        NOP                             A:02 X:EF Y:94 P:65 SP:FB CYC:  0
E910  EA        NOP                             A:02 X:EF Y:94 P:65 SP:FB CYC:  0
E911  EA        NOP                             A:02 X:EF Y:94 P:65 SP:FB CYC:  0
E912  20 84 F9  JSR $F984                       A:02 X:EF Y:94 P:65 SP:FB CYC:  0
F984  50 07     BVC $F98D                       A:02 X:EF Y:94 P:65 SP:F9 CYC:  0
F986  90 05     BCC $F98D                       A:02 X:EF Y:94 P:65 SP:F9 CYC:  0
F988  C9 02     CMP #$02                        A:02 X:EF Y:94 P:65 SP:F9 CYC:  0
F98A  D0 01     BNE $F98D                       A:02 X:EF Y:94 P:67 SP:F9 CYC:  0
F98C  60        RTS                             A:02 X:EF Y:94 P:67 SP:F9 CYC:  0
E915  60        RTS                             A:02 X:EF Y:94 P:67 SP:FB CYC:  0
C63B  20 16 E9  JSR $E916                       A:02 X:EF Y:94 P:67 SP:FD CYC:  0
E916  A9 FF     LDA #$FF                        A:02 X:EF Y:94 P:67 SP:FB CYC:  0
E918  85 01     STA $01 = C0                    A:FF X:EF Y:94 P:E5 SP:FB CYC:  0
E91A  A0 95     LDY #$95                        A:FF X:EF Y:94 P:E5 SP:FB CYC:  0
E91C  A2 02     LDX #$02                        A:FF X:EF Y:95 P:E5 SP:FB CYC:  0
E91E  A9 47     LDA #$47                        A:FF X:02 Y:95 P:65 SP:FB CYC:  0
E920  85 47     STA $47 = 00                    A:47 X:02 Y:95 P:65 SP:FB CYC:  0
E922  A9 06     LDA #$06                        A:47 X:02 Y:95 P:65 SP:FB CYC:  0
E924  85 48     STA $48 = 00                    A:06 X:02 Y:95 P:65 SP:FB CYC:  0
E926  A9 EB     LDA #$EB                        A:06 X:02 Y:95 P:65 SP:FB CYC:  0
E928  8D 47 06  STA $0647 = 00                  A:EB X:02 Y:95 P:E5 SP:FB CYC:  0
E92B  20 31 FA  JSR $FA31                       A:EB X:02 Y:95 P:E5 SP:FB CYC:  0
FA31  24 01     BIT $01 = FF                    A:EB X:02 Y:95 P:E5 SP:F9 CYC:  0
FA33  18        CLC                             A:EB X:02 Y:95 P:E5 SP:F9 CYC:  0
FA34  A9 40     LDA #$40                        A:EB X:02 Y:95 P:E4 SP:F9 CYC:  0
FA36  60        RTS                             A:40 X:02 Y:95 P:64 SP:F9 CYC:  0
E92E  C3 45    *DCP ($45,X) @ 47 = 0647 = EB    A:40 X:02 Y:95 P:64 SP:FB CYC:  0
E930  EA        NOP                             A:40 X:02 Y:95 P:64 SP:FB CYC:  0
E931  EA        NOP                             A:40 X:02 Y:95 P:64 SP:FB CYC:  0
E932  EA        NOP                             A:40 X:02 Y:95 P:64 SP:FB CYC:  0
E933  EA        NOP                             A:40 X:02 Y:95 P:64 SP:FB CYC:  0
E934  20 37 FA  JSR $FA37                       A:40 X:02 Y:95 P:64 SP:FB CYC:  0
FA37  50 2C     BVC $FA65                       A:40 X:02 Y:95 P:64 SP:F9 CYC:  0
FA39  B0 2A     BCS $FA65                       A:40 X:02 Y:95 P:64 SP:F9 CYC:  0
FA3B  30 28     BMI $FA65                       A:40 X:02 Y:95 P:64 SP:F9 CYC:  0
FA3D  C9 40     CMP #$40                        A:40 X:02 Y:95 P:64 SP:F9 CYC:  0
FA3F  D0 24     BNE $FA65                       A:40 X:02 Y:95 P:67 SP:F9 CYC:  0
FA41  60        RTS                             A:40 X:02 Y:95 P:67 SP:F9 CYC:  0
E937  AD 47 06  LDA $0647 = EA                  A:40 X:02 Y:95 P:67 SP:FB CYC:  0
E93A  C9 EA     CMP #$EA                        A:EA X:02 Y:95 P:E5 SP:FB CYC:  0
E93C  F0 02     BEQ $E940                       A:EA X:02 Y:95 P:67 SP:FB CYC:  0
E940  C8        INY                             A:EA X:02 Y:95 P:67 SP:FB CYC:  0
E941  A9 00     LDA #$00                        A:EA X:02 Y:96 P:E5 SP:FB CYC:  0
E943  8D 47 06  STA $0647 = EA                  A:00 X:02 Y:96 P:67 SP:FB CYC:  0
E946  20 42 FA  JSR $FA42                       A:00 X:02 Y:96 P:67 SP:FB CYC:  0
FA42  B8        CLV                             A:00 X:02 Y:96 P:67 SP:F9 CYC:  0
FA43  38        SEC                             A:00 X:02 Y:96 P:27 SP:F9 CYC:  0
FA44  A9 FF     LDA #$FF                        A:00 X:02 Y:96 P:27 SP:F9 CYC:  0
FA46  60        RTS                             A:FF X:02 Y:96 P:A5 SP:F9 CYC:  0
E949  C3 45    *DCP ($45,X) @ 47 = 0647 = 00    A:FF X:02 Y:96 P:A5 SP:FB CYC:  0
E94B  EA        NOP                             A:FF X:02 Y:96 P:27 SP:FB CYC:  0
E94C  EA        NOP                             A:FF X:02 Y:96 P:27 SP:FB CYC:  0
E94D  EA        NOP                             A:FF X:02 Y:96 P:27 SP:FB CYC:  0
E94E  EA        NOP                             A:FF X:02 Y:96 P:27 SP:FB CYC:  0
E94F  20 47 FA  JSR $FA47                       A:FF X:02 Y:96 P:27 SP:FB CYC:  0
FA47  70 1C     BVS $FA65                       A:FF X:02 Y:96 P:27 SP:F9 CYC:  0
FA49  D0 1A     BNE $FA65                       A:FF X:02 Y:96 P:27 SP:F9 CYC:  0
FA4B  30 18     BMI $FA65                       A:FF X:02 Y:96 P:27 SP:F9 CYC:  0
FA4D  90 16     BCC $FA65                       A:FF X:02 Y:96 P:27 SP:F9 CYC:  0
FA4F  C9 FF     CMP #$FF                        A:FF X:02 Y:96 P:27 SP:F9 CYC:  0
FA51  D0 12     BNE $FA65                       A:FF X:02 Y:96 P:27 SP:F9 CYC:  0
FA53  60        RTS                             A:FF X:02 Y:96 P:27 SP:F9 CYC:  0
E952  AD 47 06  LDA $0647 = FF                  A:FF X:02 Y:96 P:27 SP:FB CYC:  0
E955  C9 FF     CMP #$FF                        A:FF X:02 Y:96 P:A5 SP:FB CYC:  0
E957  F0 02     BEQ $E95B                       A:FF X:02 Y:96 P:27 SP:FB CYC:  0
E95B  C8        INY                             A:FF X:02 Y:96 P:27 SP:FB CYC:  0
E95C  A9 37     LDA #$37                        A:FF X:02 Y:97 P:A5 SP:FB CYC:  0
E95E  8D 47 06  STA $0647 = FF                  A:37 X:02 Y:97 P:25 SP:FB CYC:  0
E961  20 54 FA  JSR $FA54                       A:37 X:02 Y:97 P:25 SP:FB CYC:  0
FA54  24 01     BIT $01 = FF                    A:37 X:02 Y:97 P:25 SP:F9 CYC:  0
FA56  A9 F0     LDA #$F0                        A:37 X:02 Y:97 P:E5 SP:F9 CYC:  0
FA58  60        RTS                             A:F0 X:02 Y:97 P:E5 SP:F9 CYC:  0
E964  C3 45    *DCP ($45,X) @ 47 = 0647 = 37    A:F0 X:02 Y:97 P:E5 SP:FB CYC:  0
E966  EA        NOP                             A:F0 X:02 Y:97 P:E5 SP:FB CYC:  0
E967  EA        NOP                             A:F0 X:02 Y:97 P:E5 SP:FB CYC:  0
E968  EA        NOP                             A:F0 X:02 Y:97 P:E5 SP:FB CYC:  0
E969  EA        NOP                             A:F0 X:02 Y:97 P:E5 SP:FB CYC:  0
E96A  20 59 FA  JSR $FA59                       A:F0 X:02 Y:97 P:E5 SP:FB CYC:  0
FA59  50 0A     BVC $FA65                       A:F0 X:02 Y:97 P:E5 SP:F9 CYC:  0
FA5B  F0 08     BEQ $FA65                       A:F0 X:02 Y:97 P:E5 SP:F9 CYC:  0
FA5D  10 06     BPL $FA65                       A:F0 X:02 Y:97 P:E5 SP:F9 CYC:  0
FA5F  90 04     BCC $FA65                       A:F0 X:02 Y:97 P:E5 SP:F9 CYC:  0
FA61  C9 F0     CMP #$F0                        A:F0 X:02 Y:97 P:E5 SP:F9 CYC:  0
FA63  F0 02     BEQ $FA67                       A:F0 X:02 Y:97 P:67 SP:F9 CYC:  0
FA67  60        RTS                             A:F0 X:02 Y:97 P:67 SP:F9 CYC:  0
E96D  AD 47 06  LDA $0647 = 36                  A:F0 X:02 Y:97 P:67 SP:FB CYC:  0
E970  C9 36     CMP #$36                        A:36 X:02 Y:97 P:65 SP:FB CYC:  0
E972  F0 02     BEQ $E976                       A:36 X:02 Y:97 P:67 SP:FB CYC:  0
E976  C8        INY                             A:36 X:02 Y:97 P:67 SP:FB CYC:  0
E977  A9 EB     LDA #$EB                        A:36 X:02 Y:98 P:E5 SP:FB CYC:  0
E979  85 47     STA $47 = 47                    A:EB X:02 Y:98 P:E5 SP:FB CYC:  0
E97B  20 31 FA  JSR $FA31                       A:EB X:02 Y:98 P:E5 SP:FB CYC:  0
FA31  24 01     BIT $01 = FF                    A:EB X:02 Y:98 P:E5 SP:F9 CYC:  0
FA33  18        CLC                             A:EB X:02 Y:98 P:E5 SP:F9 CYC:  0
FA34  A9 40     LDA #$40                        A:EB X:02 Y:98 P:E4 SP:F9 CYC:  0
FA36  60        RTS                             A:40 X:02 Y:98 P:64 SP:F9 CYC:  0
E97E  C7 47    *DCP $47 = EB                    A:40 X:02 Y:98 P:64 SP:FB CYC:  0
E980  EA        NOP                             A:40 X:02 Y:98 P:64 SP:FB CYC:  0
E981  EA        NOP                             A:40 X:02 Y:98 P:64 SP:FB CYC:  0
E982  EA        NOP                             A:40 X:02 Y:98 P:64 SP:FB CYC:  0
E983  EA        NOP                             A:40 X:02 Y:98 P:64 SP:FB CYC:  0
E984  20 37 FA  JSR $FA37                       A:40 X:02 Y:98 P:64 SP:FB CYC:  0
FA37  50 2C     BVC $FA65                       A:40 X:02 Y:98 P:64 SP:F9 CYC:  0
FA39  B0 2A     BCS $FA65                       A:40 X:02 Y:98 P:64 SP:F9 CYC:  0
FA3B  30 28     BMI $FA65                       A:40 X:02 Y:98 P:64 SP:F9 CYC:  0
FA3D  C9 40     CMP #$40                        A:40 X:02 Y:98 P:64 SP:F9 CYC:  0
FA3F  D0 24     BNE $FA65                       A:40 X:02 Y:98 P:67 SP:F9 CYC:  0
FA41  60        RTS                             A:40 X:02 Y:98 P:67 SP:F9 CYC:  0
E987  A5 47     LDA $47 = EA                    A:40 X:02 Y:98 P:67 SP:FB CYC:  0
E989  C9 EA     CMP #$EA                        A:EA X:02 Y:98 P:E5 SP:FB CYC:  0
E98B  F0 02     BEQ $E98F                       A:EA X:02 Y:98 P:67 SP:FB CYC:  0
E98F  C8        INY                             A:EA X:02 Y:98 P:67 SP:FB CYC:  0
E990  A9 00     LDA #$00                        A:EA X:02 Y:99 P:E5 SP:FB CYC:  0
E992  85 47     STA $47 = EA                    A:00 X:02 Y:99 P:67 SP:FB CYC:  0
E994  20 42 FA  JSR $FA42                       A:00 X:02 Y:99 P:67 SP:FB CYC:  0
FA42  B8        CLV                             A:00 X:02 Y:99 P:67 SP:F9 CYC:  0
FA43  38        SEC                             A:00 X:02 Y:99 P:27 SP:F9 CYC:  0
FA44  A9 FF     LDA #$FF                        A:00 X:02 Y:99 P:27 SP:F9 CYC:  0
FA46  60        RTS                             A:FF X:02 Y:99 P:A5 SP:F9 CYC:  0
E997  C7 47    *DCP $47 = 00                    A:FF X:02 Y:99 P:A5 SP:FB CYC:  0
E999  EA        NOP                             A:FF X:02 Y:99 P:27 SP:FB CYC:  0
E99A  EA        NOP                             A:FF X:02 Y:99 P:27 SP:FB CYC:  0
E99B  EA        NOP                             A:FF X:02 Y:99 P:27 SP:FB CYC:  0
E99C  EA        NOP                             A:FF X:02 Y:99 P:27 SP:FB CYC:  0
E99D  20 47 FA  JSR $FA47                       A:FF X:02 Y:99 P:27 SP:FB CYC:  0
FA47  70 1C     BVS $FA65                       A:FF X:02 Y:99 P:27 SP:F9 CYC:  0
FA49  D0 1A     BNE $FA65                       A:FF X:02 Y:99 P:27 SP:F9 CYC:  0
FA4B  30 18     BMI $FA65                       A:FF X:02 Y:99 P:27 SP:F9 CYC:  0
FA4D  90 16     BCC $FA65                       A:FF X:02 Y:99 P:27 SP:F9 CYC:  0
FA4F  C9 FF     CMP #$FF                        A:FF X:02 Y:99 P:27 SP:F9 CYC:  0
FA51  D0 12     BNE $FA65                       A:FF X:02 Y:99 P:27 SP:F9 CYC:  0
FA53  60        RTS                             A:FF X:02 Y:99 P:27 SP:F9 CYC:  0
E9A0  A5 47     LDA $47 = FF                    A:FF X:02 Y:99 P:27 SP:FB CYC:  0
E9A2  C9 FF     CMP #$FF                        A:FF X:02 Y:99 P:A5 SP:FB CYC:  0
E9A4  F0 02     BEQ $E9A8                       A:FF X:02 Y:99 P:27 SP:FB CYC:  0
E9A8  C8        INY                             A:FF X:02 Y:99 P:27 SP:FB CYC:  0
E9A9  A9 37     LDA #$37                        A:FF X:02 Y:9A P:A5 SP:FB CYC:  0
E9AB  85 47     STA $47 = FF                    A:37 X:02 Y:9A P:25 SP:FB CYC:  0
E9AD  20 54 FA  JSR $FA54                       A:37 X:02 Y:9A P:25 SP:FB CYC:  0
FA54  24 01     BIT $01 = FF                    A:37 X:02 Y:9A P:25 SP:F9 CYC:  0
FA56  A9 F0     LDA #$F0                        A:37 X:02 Y:9A P:E5 SP:F9 CYC:  0
FA58  60        RTS                             A:F0 X:02 Y:9A P:E5 SP:F9 CYC:  0
E9B0  C7 47    *DCP $47 = 37                    A:F0 X:02 Y:9A P:E5 SP:FB CYC:  0
E9B2  EA        NOP                             A:F0 X:02 Y:9A P:E5 SP:FB CYC:  0
E9B3  EA        NOP                             A:F0 X:02 Y:9A P:E5 SP:FB CYC:  0
E9B4  EA        NOP                             A:F0 X:02 Y:9A P:E5 SP:FB CYC:  0
E9B5  EA        NOP                             A:F0 X:02 Y:9A P:E5 SP:FB CYC:  0
E9B6  20 59 FA  JSR $FA59                       A:F0 X:02 Y:9A P:E5 SP:FB CYC:  0
FA59  50 0A     BVC $FA65                       A:F0 X:02 Y:9A P:E5 SP:F9 CYC:  0
FA5B  F0 08     BEQ $FA65                       A:F0 X:02 Y:9A P:E5 SP:F9 CYC:  0
FA5D  10 06     BPL $FA65                       A:F0 X:02 Y:9A P:E5 SP:F9 CYC:  0
FA5F  90 04     BCC $FA65                       A:F0 X:02 Y:9A P:E5 SP:F9 CYC:  0
FA61  C9 F0     CMP #$F0                        A:F0 X:02 Y:9A P:E5 SP:F9 CYC:  0
FA63  F0 02     BEQ $FA67                       A:F0 X:02 Y:9A P:67 SP:F9 CYC:  0
FA67  60        RTS                             A:F0 X:02 Y:9A P:67 SP:F9 CYC:  0
E9B9  A5 47     LDA $47 = 36                    A:F0 X:02 Y:9A P:67 SP:FB CYC:  0
E9BB  C9 36     CMP #$36                        A:36 X:02 Y:9A P:65 SP:FB CYC:  0
E9BD  F0 02     BEQ $E9C1                       A:36 X:02 Y:9A P:67 SP:FB CYC:  0
E9C1  C8        INY                             A:36 X:02 Y:9A P:67 SP:FB CYC:  0
E9C2  A9 EB     LDA #$EB                        A:36 X:02 Y:9B P:E5 SP:FB CYC:  0
E9C4  8D 47 06  STA $0647 = 36                  A:EB X:02 Y:9B P:E5 SP:FB CYC:  0
E9C7  20 31 FA  JSR $FA31                       A:EB X:02 Y:9B P:E5 SP:FB CYC:  0
FA31  24 01     BIT $01 = FF                    A:EB X:02 Y:9B P:E5 SP:F9 CYC:  0
FA33  18        CLC                             A:EB X:02 Y:9B P:E5 SP:F9 CYC:  0
FA34  A9 40     LDA #$40                        A:EB X:02 Y:9B P:E4 SP:F9 CYC:  0
FA36  60        RTS                             A:40 X:02 Y:9B P:64 SP:F9 CYC:  0
E9CA  CF 47 06 *DCP $0647 = EB                  A:40 X:02 Y:9B P:64 SP:FB CYC:  0
E9CD  EA        NOP                             A:40 X:02 Y:9B P:64 SP:FB CYC:  0
E9CE  EA        NOP                             A:40 X:02 Y:9B P:64 SP:FB CYC:  0
E9CF  EA        NOP                             A:40 X:02 Y:9B P:64 SP:FB CYC:  0
E9D0  EA        NOP                             A:40 X:02 Y:9B P:64 SP:FB CYC:  0
E9D1  20 37 FA  JSR $FA37                       A:40 X:02 Y:9B P:64 SP:FB CYC:  0
FA37  50 2C     BVC $FA65                       A:40 X:02 Y:9B P:64 SP:F9 CYC:  0
FA39  B0 2A     BCS $FA65                       A:40 X:02 Y:9B P:64 SP:F9 CYC:  0
FA3B  30 28     BMI $FA65                       A:40 X:02 Y:9B P:64 SP:F9 CYC:  0
FA3D  C9 40     CMP #$40                        A:40 X:02 Y:9B P:64 SP:F9 CYC:  0
FA3F  D0 24     BNE $FA65                       A:40 X:02 Y:9B P:67 SP:F9 CYC:  0
FA41  60        RTS                             A:40 X:02 Y:9B P:67 SP:F9 CYC:  0
E9D4  AD 47 06  LDA $0647 = EA                  A:40 X:02 Y:9B P:67 SP:FB CYC:  0
E9D7  C9 EA     CMP #$EA                        A:EA X:02 Y:9B P:E5 SP:FB CYC:  0
E9D9  F0 02     BEQ $E9DD                       A:EA X:02 Y:9B P:67 SP:FB CYC:  0
E9DD  C8        INY                             A:EA X:02 Y:9B P:67 SP:FB CYC:  0
E9DE  A9 00     LDA #$00                        A:EA X:02 Y:9C P:E5 SP:FB CYC:  0
E9E0  8D 47 06  STA $0647 = EA                  A:00 X:02 Y:9C P:67 SP:FB CYC:  0
E9E3  20 42 FA  JSR $FA42                       A:00 X:02 Y:9C P:67 SP:FB CYC:  0
FA42  B8        CLV                             A:00 X:02 Y:9C P:67 SP:F9 CYC:  0
FA43  38        SEC                             A:00 X:02 Y:9C P:27 SP:F9 CYC:  0
FA44  A9 FF     LDA #$FF                        A:00 X:02 Y:9C P:27 SP:F9 CYC:  0
FA46  60        RTS                             A:FF X:02 Y:9C P:A5 SP:F9 CYC:  0
E9E6  CF 47 06 *DCP $0647 = 00                  A:FF X:02 Y:9C P:A5 SP:FB CYC:  0
E9E9  EA        NOP                             A:FF X:02 Y:9C P:27 SP:FB CYC:  0
E9EA  EA        NOP                             A:FF X:02 Y:9C P:27 SP:FB CYC:  0
E9EB  EA        NOP                             A:FF X:02 Y:9C P:27 SP:FB CYC:  0
E9EC  EA        NOP                             A:FF X:02 Y:9C P:27 SP:FB CYC:  0
E9ED  20 47 FA  JSR $FA47                       A:FF X:02 Y:9C P:27 SP:FB CYC:  0
FA47  70 1C     BVS $FA65                       A:FF X:02 Y:9C P:27 SP:F9 CYC:  0
FA49  D0 1A     BNE $FA65                       A:FF X:02 Y:9C P:27 SP:F9 CYC:  0
FA4B  30 18     BMI $FA65                       A:FF X:02 Y:9C P:27 SP:F9 CYC:  0
FA4D  90 16     BCC $FA65                       A:FF X:02 Y:9C P:27 SP:F9 CYC:  0
FA4F  C9 FF     CMP #$FF                        A:FF X:02 Y:9C P:27 SP:F9 CYC:  0
FA51  D0 12     BNE $FA65                       A:FF X:02 Y:9C P:27 SP:F9 CYC:  0
FA53  60        RTS                             A:FF X:02 Y:9C P:27 SP:F9 CYC:  0
E9F0  AD 47 06  LDA $0647 = FF                  A:FF X:02 Y:9C P:27 SP:FB CYC:  0
E9F3  C9 FF     CMP #$FF                        A:FF X:02 Y:9C P:A5 SP:FB CYC:  0
E9F5  F0 02     BEQ $E9F9                       A:FF X:02 Y:9C P:27 SP:FB CYC:  0
E9F9  C8        INY                             A:FF X:02 Y:9C P:27 SP:FB CYC:  0
E9FA  A9 37     LDA #$37                        A:FF X:02 Y:9D P:A5 SP:FB CYC:  0
E9FC  8D 47 06  STA $0647 = FF                  A:37 X:02 Y:9D P:25 SP:FB CYC:  0
E9FF  20 54 FA  JSR $FA54                       A:37 X:02 Y:9D P:25 SP:FB CYC:  0
FA54  24 01     BIT $01 = FF                    A:37 X:02 Y:9D P:25 SP:F9 CYC:  0
FA56  A9 F0     LDA #$F0                        A:37 X:02 Y:9D P:E5 SP:F9 CYC:  0
FA58  60        RTS                             A:F0 X:02 Y:9D P:E5 SP:F9 CYC:  0
EA02  CF 47 06 *DCP $0647 = 37                  A:F0 X:02 Y:9D P:E5 SP:FB CYC:  0
EA05  EA        NOP                             A:F0 X:02 Y:9D P:E5 SP:FB CYC:  0
EA06  EA        NOP                             A:F0 X:02 Y:9D P:E5 SP:FB CYC:  0
EA07  EA        NOP                             A:F0 X:02 Y:9D P:E5 SP:FB CYC:  0
EA08  EA        NOP                             A:F0 X:02 Y:9D P:E5 SP:FB CYC:  0
EA09  20 59 FA  JSR $FA59                       A:F0 X:02 Y:9D P:E5 SP:FB CYC:  0
FA59  50 0A     BVC $FA65                       A:F0 X:02 Y:9D P:E5 SP:F9 CYC:  0
FA5B  F0 08     BEQ $FA65                       A:F0 X:02 Y:9D P:E5 SP:F9 CYC:  0
FA5D  10 06     BPL $FA65                       A:F0 X:02 Y:9D P:E5 SP:F9 CYC:  0
FA5F  90 04     BCC $FA65                       A:F0 X:02 Y:9D P:E5 SP:F9 CYC:  0
FA61  C9 F0     CMP #$F0                        A:F0 X:02 Y:9D P:E5 SP:F9 CYC:  0
FA63  F0 02     BEQ $FA67                       A:F0 X:02 Y:9D P:67 SP:F9 CYC:  0
FA67  60        RTS                             A:F0 X:02 Y:9D P:67 SP:F9 CYC:  0
EA0C  AD 47 06  LDA $0647 = 36                  A:F0 X:02 Y:9D P:67 SP:FB CYC:  0
EA0F  C9 36     CMP #$36                        A:36 X:02 Y:9D P:65 SP:FB CYC:  0
EA11  F0 02     BEQ $EA15                       A:36 X:02 Y:9D P:67 SP:FB CYC:  0
EA15  A9 EB     LDA #$EB                        A:36 X:02 Y:9D P:67 SP:FB CYC:  0
EA17  8D 47 06  STA $0647 = 36                  A:EB X:02 Y:9D P:E5 SP:FB CYC:  0
EA1A  A9 48     LDA #$48                        A:EB X:02 Y:9D P:E5 SP:FB CYC:  0
EA1C  85 45     STA $45 = 32                    A:48 X:02 Y:9D P:65 SP:FB CYC:  0
EA1E  A9 05     LDA #$05                        A:48 X:02 Y:9D P:65 SP:FB CYC:  0
EA20  85 46     STA $46 = 04                    A:05 X:02 Y:9D P:65 SP:FB CYC:  0
EA22  A0 FF     LDY #$FF                        A:05 X:02 Y:9D P:65 SP:FB CYC:  0
EA24  20 31 FA  JSR $FA31                       A:05 X:02 Y:FF P:E5 SP:FB CYC:  0
FA31  24 01     BIT $01 = FF                    A:05 X:02 Y:FF P:E5 SP:F9 CYC:  0
FA33  18        CLC                             A:05 X:02 Y:FF P:E5 SP:F9 CYC:  0
FA34  A9 40     LDA #$40                        A:05 X:02 Y:FF P:E4 SP:F9 CYC:  0
FA36  60        RTS                             A:40 X:02 Y:FF P:64 SP:F9 CYC:  0
EA27  D3 45    *DCP ($45),Y = 0548 @ 0647 = EB  A:40 X:02 Y:FF P:64 SP:FB CYC:  0
EA29  EA        NOP                             A:40 X:02 Y:FF P:64 SP:FB CYC:  0
EA2A  EA        NOP                             A:40 X:02 Y:FF P:64 SP:FB CYC:  0
EA2B  08        PHP                             A:40 X:02 Y:FF P:64 SP:FB CYC:  0
EA2C  48        PHA                             A:40 X:02 Y:FF P:64 SP:FA CYC:  0
EA2D  A0 9E     LDY #$9E                        A:40 X:02 Y:FF P:64 SP:F9 CYC:  0
EA2F  68        PLA                             A:40 X:02 Y:9E P:E4 SP:F9 CYC:  0
EA30  28        PLP                             A:40 X:02 Y:9E P:64 SP:FA CYC:  0
EA31  20 37 FA  JSR $FA37                       A:40 X:02 Y:9E P:64 SP:FB CYC:  0
FA37  50 2C     BVC $FA65                       A:40 X:02 Y:9E P:64 SP:F9 CYC:  0
FA39  B0 2A     BCS $FA65                       A:40 X:02 Y:9E P:64 SP:F9 CYC:  0
FA3B  30 28     BMI $FA65                       A:40 X:02 Y:9E P:64 SP:F9 CYC:  0
FA3D  C9 40     CMP #$40                        A:40 X:02 Y:9E P:64 SP:F9 CYC:  0
FA3F  D0 24     BNE $FA65                       A:40 X:02 Y:9E P:67 SP:F9 CYC:  0
FA41  60        RTS                             A:40 X:02 Y:9E P:67 SP:F9 CYC:  0
EA34  AD 47 06  LDA $0647 = EA                  A:40 X:02 Y:9E P:67 SP:FB CYC:  0
EA37  C9 EA     CMP #$EA                        A:EA X:02 Y:9E P:E5 SP:FB CYC:  0
EA39  F0 02     BEQ $EA3D                       A:EA X:02 Y:9E P:67 SP:FB CYC:  0
EA3D  A0 FF     LDY #$FF                        A:EA X:02 Y:9E P:67 SP:FB CYC:  0
EA3F  A9 00     LDA #$00                        A:EA X:02 Y:FF P:E5 SP:FB CYC:  0
EA41  8D 47 06  STA $0647 = EA                  A:00 X:02 Y:FF P:67 SP:FB CYC:  0
EA44  20 42 FA  JSR $FA42                       A:00 X:02 Y:FF P:67 SP:FB CYC:  0
FA42  B8        CLV                             A:00 X:02 Y:FF P:67 SP:F9 CYC:  0
FA43  38        SEC                             A:00 X:02 Y:FF P:27 SP:F9 CYC:  0
FA44  A9 FF     LDA #$FF                        A:00 X:02 Y:FF P:27 SP:F9 CYC:  0
FA46  60        RTS                             A:FF X:02 Y:FF P:A5 SP:F9 CYC:  0
EA47  D3 45    *DCP ($45),Y = 0548 @ 0647 = 00  A:FF X:02 Y:FF P:A5 SP:FB CYC:  0
EA49  EA        NOP                             A:FF X:02 Y:FF P:27 SP:FB CYC:  0
EA4A  EA        NOP                             A:FF X:02 Y:FF P:27 SP:FB CYC:  0
EA4B  08        PHP                             A:FF X:02 Y:FF P:27 SP:FB CYC:  0
EA4C  48        PHA                             A:FF X:02 Y:FF P:27 SP:FA CYC:  0
EA4D  A0 9F     LDY #$9F                        A:FF X:02 Y:FF P:27 SP:F9 CYC:  0
EA4F  68        PLA                             A:FF X:02 Y:9F P:A5 SP:F9 CYC:  0
EA50  28        PLP                             A:FF X:02 Y:9F P:A5 SP:FA CYC:  0
EA51  20 47 FA  JSR $FA47                       A:FF X:02 Y:9F P:27 SP:FB CYC:  0
FA47  70 1C     BVS $FA65                       A:FF X:02 Y:9F P:27 SP:F9 CYC:  0
FA49  D0 1A     BNE $FA65                       A:FF X:02 Y:9F P:27 SP:F9 CYC:  0
FA4B  30 18     BMI $FA65                       A:FF X:02 Y:9F P:27 SP:F9 CYC:  0
FA4D  90 16     BCC $FA65                       A:FF X:02 Y:9F P:27 SP:F9 CYC:  0
FA4F  C9 FF     CMP #$FF                        A:FF X:02 Y:9F P:27 SP:F9 CYC:  0
FA51  D0 12     BNE $FA65                       A:FF X:02 Y:9F P:27 SP:F9 CYC:  0
FA53  60        RTS                             A:FF X:02 Y:9F P:27 SP:F9 CYC:  0
EA54  AD 47 06  LDA $0647 = FF                  A:FF X:02 Y:9F P:27 SP:FB CYC:  0
EA57  C9 FF     CMP #$FF                        A:FF X:02 Y:9F P:A5 SP:FB CYC:  0
EA59  F0 02     BEQ $EA5D                       A:FF X:02 Y:9F P:27 SP:FB CYC:  0
EA5D  A0 FF     LDY #$FF                        A:FF X:02 Y:9F P:27 SP:FB CYC:  0
EA5F  A9 37     LDA #$37                        A:FF X:02 Y:FF P:A5 SP:FB CYC:  0
EA61  8D 47 06  STA $0647 = FF                  A:37 X:02 Y:FF P:25 SP:FB CYC:  0
EA64  20 54 FA  JSR $FA54                       A:37 X:02 Y:FF P:25 SP:FB CYC:  0
FA54  24 01     BIT $01 = FF                    A:37 X:02 Y:FF P:25 SP:F9 CYC:  0
FA56  A9 F0     LDA #$F0                        A:37 X:02 Y:FF P:E5 SP:F9 CYC:  0
FA58  60        RTS                             A:F0 X:02 Y:FF P:E5 SP:F9 CYC:  0
EA67  D3 45    *DCP ($45),Y = 0548 @ 0647 = 37  A:F0 X:02 Y:FF P:E5 SP:FB CYC:  0
EA69  EA        NOP                             A:F0 X:02 Y:FF P:E5 SP:FB CYC:  0
EA6A  EA        NOP                             A:F0 X:02 Y:FF P:E5 SP:FB CYC:  0
EA6B  08        PHP                             A:F0 X:02 Y:FF P:E5 SP:FB CYC:  0
EA6C  48        PHA                             A:F0 X:02 Y:FF P:E5 SP:FA CYC:  0
EA6D  A0 A0     LDY #$A0                        A:F0 X:02 Y:FF P:E5 SP:F9 CYC:  0
EA6F  68        PLA                             A:F0 X:02 Y:A0 P:E5 SP:F9 CYC:  0
EA70  28        PLP                             A:F0 X:02 Y:A0 P:E5 SP:FA CYC:  0
EA71  20 59 FA  JSR $FA59                       A:F0 X:02 Y:A0 P:E5 SP:FB CYC:  0
FA59  50 0A     BVC $FA65                       A:F0 X:02 Y:A0 P:E5 SP:F9 CYC:  0
FA5B  F0 08     BEQ $FA65                       A:F0 X:02 Y:A0 P:E5 SP:F9 CYC:  0
FA5D  10 06     BPL $FA65                       A:F0 X:02 Y:A0 P:E5 SP:F9 CYC:  0
FA5F  90 04     BCC $FA65                       A:F0 X:02 Y:A0 P:E5 SP:F9 CYC:  0
FA61  C9 F0     CMP #$F0                        A:F0 X:02 Y:A0 P:E5 SP:F9 CYC:  0
FA63  F0 02     BEQ $FA67                       A:F0 X:02 Y:A0 P:67 SP:F9 CYC:  0
FA67  60        RTS                             A:F0 X:02 Y:A0 P:67 SP:F9 CYC:  0
EA74  AD 47 06  LDA $0647 = 36                  A:F0 X:02 Y:A0 P:67 SP:FB CYC:  0
EA77  C9 36     CMP #$36                        A:36 X:02 Y:A0 P:65 SP:FB CYC:  0
EA79  F0 02     BEQ $EA7D                       A:36 X:02 Y:A0 P:67 SP:FB CYC:  0
EA7D  A0 A1     LDY #$A1                        A:36 X:02 Y:A0 P:67 SP:FB CYC:  0
EA7F  A2 FF     LDX #$FF                        A:36 X:02 Y:A1 P:E5 SP:FB CYC:  0
EA81  A9 EB     LDA #$EB                        A:36 X:FF Y:A1 P:E5 SP:FB CYC:  0
EA83  85 47     STA $47 = 36                    A:EB X:FF Y:A1 P:E5 SP:FB CYC:  0
EA85  20 31 FA  JSR $FA31                       A:EB X:FF Y:A1 P:E5 SP:FB CYC:  0
FA31  24 01     BIT $01 = FF                    A:EB X:FF Y:A1 P:E5 SP:F9 CYC:  0
FA33  18        CLC                             A:EB X:FF Y:A1 P:E5 SP:F9 CYC:  0
FA34  A9 40     LDA #$40                        A:EB X:FF Y:A1 P:E4 SP:F9 CYC:  0
FA36  60        RTS                             A:40 X:FF Y:A1 P:64 SP:F9 CYC:  0
EA88  D7 48    *DCP $48,X @ 47 = EB             A:40 X:FF Y:A1 P:64 SP:FB CYC:  0
EA8A  EA        NOP                             A:40 X:FF Y:A1 P:64 SP:FB CYC:  0
EA8B  EA        NOP                             A:40 X:FF Y:A1 P:64 SP:FB CYC:  0
EA8C  EA        NOP                             A:40 X:FF Y:A1 P:64 SP:FB CYC:  0
EA8D  EA        NOP                             A:40 X:FF Y:A1 P:64 SP:FB CYC:  0
EA8E  20 37 FA  JSR $FA37                       A:40 X:FF Y:A1 P:64 SP:FB CYC:  0
FA37  50 2C     BVC $FA65                       A:40 X:FF Y:A1 P:64 SP:F9 CYC:  0
FA39  B0 2A     BCS $FA65                       A:40 X:FF Y:A1 P:64 SP:F9 CYC:  0
FA3B  30 28     BMI $FA65                       A:40 X:FF Y:A1 P:64 SP:F9 CYC:  0
FA3D  C9 40     CMP #$40                        A:40 X:FF Y:A1 P:64 SP:F9 CYC:  0
FA3F  D0 24     BNE $FA65                       A:40 X:FF Y:A1 P:67 SP:F9 CYC:  0
FA41  60        RTS                             A:40 X:FF Y:A1 P:67 SP:F9 CYC:  0
EA91  A5 47     LDA $47 = EA                    A:40 X:FF Y:A1 P:67 SP:FB CYC:  0
EA93  C9 EA     CMP #$EA                        A:EA X:FF Y:A1 P:E5 SP:FB CYC:  0
EA95  F0 02     BEQ $EA99                       A:EA X:FF Y:A1 P:67 SP:FB CYC:  0
EA99  C8        INY                             A:EA X:FF Y:A1 P:67 SP:FB CYC:  0
EA9A  A9 00     LDA #$00                        A:EA X:FF Y:A2 P:E5 SP:FB CYC:  0
EA9C  85 47     STA $47 = EA                    A:00 X:FF Y:A2 P:67 SP:FB CYC:  0
EA9E  20 42 FA  JSR $FA42                       A:00 X:FF Y:A2 P:67 SP:FB CYC:  0
FA42  B8        CLV                             A:00 X:FF Y:A2 P:67 SP:F9 CYC:  0
FA43  38        SEC                             A:00 X:FF Y:A2 P:27 SP:F9 CYC:  0
FA44  A9 FF     LDA #$FF                        A:00 X:FF Y:A2 P:27 SP:F9 CYC:  0
FA46  60        RTS                             A:FF X:FF Y:A2 P:A5 SP:F9 CYC:  0
EAA1  D7 48    *DCP $48,X @ 47 = 00             A:FF X:FF Y:A2 P:A5 SP:FB CYC:  0
EAA3  EA        NOP                             A:FF X:FF Y:A2 P:27 SP:FB CYC:  0
EAA4  EA        NOP                             A:FF X:FF Y:A2 P:27 SP:FB CYC:  0
EAA5  EA        NOP                             A:FF X:FF Y:A2 P:27 SP:FB CYC:  0
EAA6  EA        NOP                             A:FF X:FF Y:A2 P:27 SP:FB CYC:  0
EAA7  20 47 FA  JSR $FA47                       A:FF X:FF Y:A2 P:27 SP:FB CYC:  0
FA47  70 1C     BVS $FA65                       A:FF X:FF Y:A2 P:27 SP:F9 CYC:  0
FA49  D0 1A     BNE $FA65                       A:FF X:FF Y:A2 P:27 SP:F9 CYC:  0
FA4B  30 18     BMI $FA65                       A:FF X:FF Y:A2 P:27 SP:F9 CYC:  0
FA4D  90 16     BCC $FA65                       A:FF X:FF Y:A2 P:27 SP:F9 CYC:  0
FA4F  C9 FF     CMP #$FF                        A:FF X:FF Y:A2 P:27 SP:F9 CYC:  0
FA51  D0 12     BNE $FA65                       A:FF X:FF Y:A2 P:27 SP:F9 CYC:  0
FA53  60        RTS                             A:FF X:FF Y:A2 P:27 SP:F9 CYC:  0
EAAA  A5 47     LDA $47 = FF                    A:FF X:FF Y:A2 P:27 SP:FB CYC:  0
EAAC  C9 FF     CMP #$FF                        A:FF X:FF Y:A2 P:A5 SP:FB CYC:  0
EAAE  F0 02     BEQ $EAB2                       A:FF X:FF Y:A2 P:27 SP:FB CYC:  0
EAB2  C8        INY                             A:FF X:FF Y:A2 P:27 SP:FB CYC:  0
EAB3  A9 37     LDA #$37                        A:FF X:FF Y:A3 P:A5 SP:FB CYC:  0
EAB5  85 47     STA $47 = FF                    A:37 X:FF Y:A3 P:25 SP:FB CYC:  0
EAB7  20 54 FA  JSR $FA54                       A:37 X:FF Y:A3 P:25 SP:FB CYC:  0
FA54  24 01     BIT $01 = FF                    A:37 X:FF Y:A3 P:25 SP:F9 CYC:  0
FA56  A9 F0     LDA #$F0                        A:37 X:FF Y:A3 P:E5 SP:F9 CYC:  0
FA58  60        RTS                             A:F0 X:FF Y:A3 P:E5 SP:F9 CYC:  0
EABA  D7 48    *DCP $48,X @ 47 = 37             A:F0 X:FF Y:A3 P:E5 SP:FB CYC:  0
EABC  EA        NOP                             A:F0 X:FF Y:A3 P:E5 SP:FB CYC:  0
EABD  EA        NOP                             A:F0 X:FF Y:A3 P:E5 SP:FB CYC:  0
EABE  EA        NOP                             A:F0 X:FF Y:A3 P:E5 SP:FB CYC:  0
EABF  EA        NOP                             A:F0 X:FF Y:A3 P:E5 SP:FB CYC:  0
EAC0  20 59 FA  JSR $FA59                       A:F0 X:FF Y:A3 P:E5 SP:FB CYC:  0
FA59  50 0A     BVC $FA65                       A:F0 X:FF Y:A3 P:E5 SP:F9 CYC:  0
FA5B  F0 08     BEQ $FA65                       A:F0 X:FF Y:A3 P:E5 SP:F9 CYC:  0
FA5D  10 06     BPL $FA65                       A:F0 X:FF Y:A3 P:E5 SP:F9 CYC:  0
FA5F  90 04     BCC $FA65                       A:F0 X:FF Y:A3 P:E5 SP:F9 CYC:  0
FA61  C9 F0     CMP #$F0                        A:F0 X:FF Y:A3 P:E5 SP:F9 CYC:  0
FA63  F0 02     BEQ $FA67                       A:F0 X:FF Y:A3 P:67 SP:F9 CYC:  0
FA67  60        RTS                             A:F0 X:FF Y:A3 P:67 SP:F9 CYC:  0
EAC3  A5 47     LDA $47 = 36                    A:F0 X:FF Y:A3 P:67 SP:FB CYC:  0
EAC5  C9 36     CMP #$36                        A:36 X:FF Y:A3 P:65 SP:FB CYC:  0
EAC7  F0 02     BEQ $EACB                       A:36 X:FF Y:A3 P:67 SP:FB CYC:  0
EACB  A9 EB     LDA #$EB                        A:36 X:FF Y:A3 P:67 SP:FB CYC:  0
EACD  8D 47 06  STA $0647 = 36                  A:EB X:FF Y:A3 P:E5 SP:FB CYC:  0
EAD0  A0 FF     LDY #$FF                        A:EB X:FF Y:A3 P:E5 SP:FB CYC:  0
EAD2  20 31 FA  JSR $FA31                       A:EB X:FF Y:FF P:E5 SP:FB CYC:  0
FA31  24 01     BIT $01 = FF                    A:EB X:FF Y:FF P:E5 SP:F9 CYC:  0
FA33  18        CLC                             A:EB X:FF Y:FF P:E5 SP:F9 CYC:  0
FA34  A9 40     LDA #$40                        A:EB X:FF Y:FF P:E4 SP:F9 CYC:  0
FA36  60        RTS                             A:40 X:FF Y:FF P:64 SP:F9 CYC:  0
EAD5  DB 48 05 *DCP $0548,Y @ 0647 = EB         A:40 X:FF Y:FF P:64 SP:FB CYC:  0
EAD8  EA        NOP                             A:40 X:FF Y:FF P:64 SP:FB CYC:  0
EAD9  EA        NOP                             A:40 X:FF Y:FF P:64 SP:FB CYC:  0
EADA  08        PHP                             A:40 X:FF Y:FF P:64 SP:FB CYC:  0
EADB  48        PHA                             A:40 X:FF Y:FF P:64 SP:FA CYC:  0
EADC  A0 A4     LDY #$A4                        A:40 X:FF Y:FF P:64 SP:F9 CYC:  0
EADE  68        PLA                             A:40 X:FF Y:A4 P:E4 SP:F9 CYC:  0
EADF  28        PLP                             A:40 X:FF Y:A4 P:64 SP:FA CYC:  0
EAE0  20 37 FA  JSR $FA37                       A:40 X:FF Y:A4 P:64 SP:FB CYC:  0
FA37  50 2C     BVC $FA65                       A:40 X:FF Y:A4 P:64 SP:F9 CYC:  0
FA39  B0 2A     BCS $FA65                       A:40 X:FF Y:A4 P:64 SP:F9 CYC:  0
FA3B  30 28     BMI $FA65                       A:40 X:FF Y:A4 P:64 SP:F9 CYC:  0
FA3D  C9 40     CMP #$40                        A:40 X:FF Y:A4 P:64 SP:F9 CYC:  0
FA3F  D0 24     BNE $FA65                       A:40 X:FF Y:A4 P:67 SP:F9 CYC:  0
FA41  60        RTS                             A:40 X:FF Y:A4 P:67 SP:F9 CYC:  0
EAE3  AD 47 06  LDA $0647 = EA                  A:40 X:FF Y:A4 P:67 SP:FB CYC:  0
EAE6  C9 EA     CMP #$EA                        A:EA X:FF Y:A4 P:E5 SP:FB CYC:  0
EAE8  F0 02     BEQ $EAEC                       A:EA X:FF Y:A4 P:67 SP:FB CYC:  0
EAEC  A0 FF     LDY #$FF                        A:EA X:FF Y:A4 P:67 SP:FB CYC:  0
EAEE  A9 00     LDA #$00                        A:EA X:FF Y:FF P:E5 SP:FB CYC:  0
EAF0  8D 47 06  STA $0647 = EA                  A:00 X:FF Y:FF P:67 SP:FB CYC:  0
EAF3  20 42 FA  JSR $FA42                       A:00 X:FF Y:FF P:67 SP:FB CYC:  0
FA42  B8        CLV                             A:00 X:FF Y:FF P:67 SP:F9 CYC:  0
FA43  38        SEC                             A:00 X:FF Y:FF P:27 SP:F9 CYC:  0
FA44  A9 FF     LDA #$FF                        A:00 X:FF Y:FF P:27 SP:F9 CYC:  0
FA46  60        RTS                             A:FF X:FF Y:FF P:A5 SP:F9 CYC:  0
EAF6  DB 48 05 *DCP $0548,Y @ 0647 = 00         A:FF X:FF Y:FF P:A5 SP:FB CYC:  0
EAF9  EA        NOP                             A:FF X:FF Y:FF P:27 SP:FB CYC:  0
EAFA  EA        NOP                             A:FF X:FF Y:FF P:27 SP:FB CYC:  0
EAFB  08        PHP                             A:FF X:FF Y:FF P:27 SP:FB CYC:  0
EAFC  48        PHA                             A:FF X:FF Y:FF P:27 SP:FA CYC:  0
EAFD  A0 A5     LDY #$A5                        A:FF X:FF Y:FF P:27 SP:F9 CYC:  0
EAFF  68        PLA                             A:FF X:FF Y:A5 P:A5 SP:F9 CYC:  0
EB00  28        PLP                             A:FF X:FF Y:A5 P:A5 SP:FA CYC:  0
EB01  20 47 FA  JSR $FA47                       A:FF X:FF Y:A5 P:27 SP:FB CYC:  0
FA47  70 1C     BVS $FA65                       A:FF X:FF Y:A5 P:27 SP:F9 CYC:  0
FA49  D0 1A     BNE $FA65                       A:FF X:FF Y:A5 P:27 SP:F9 CYC:  0
FA4B  30 18     BMI $FA65                       A:FF X:FF Y:A5 P:27 SP:F9 CYC:  0
FA4D  90 16     BCC $FA65                       A:FF X:FF Y:A5 P:27 SP:F9 CYC:  0
FA4F  C9 FF     CMP #$FF                        A:FF X:FF Y:A5 P:27 SP:F9 CYC:  0
FA51  D0 12     BNE $FA65                       A:FF X:FF Y:A5 P:27 SP:F9 CYC:  0
FA53  60        RTS                             A:FF X:FF Y:A5 P:27 SP:F9 CYC:  0
EB04  AD 47 06  LDA $0647 = FF                  A:FF X:FF Y:A5 P:27 SP:FB CYC:  0
EB07  C9 FF     CMP #$FF                        A:FF X:FF Y:A5 P:A5 SP:FB CYC:  0
EB09  F0 02     BEQ $EB0D                       A:FF X:FF Y:A5 P:27 SP:FB CYC:  0
EB0D  A0 FF     LDY #$FF                        A:FF X:FF Y:A5 P:27 SP:FB CYC:  0
EB0F  A9 37     LDA #$37                        A:FF X:FF Y:FF P:A5 SP:FB CYC:  0
EB11  8D 47 06  STA $0647 = FF                  A:37 X:FF Y:FF P:25 SP:FB CYC:  0
EB14  20 54 FA  JSR $FA54                       A:37 X:FF Y:FF P:25 SP:FB CYC:  0
FA54  24 01     BIT $01 = FF                    A:37 X:FF Y:FF P:25 SP:F9 CYC:  0
FA56  A9 F0     LDA #$F0                        A:37 X:FF Y:FF P:E5 SP:F9 CYC:  0
FA58  60        RTS                             A:F0 X:FF Y:FF P:E5 SP:F9 CYC:  0
EB17  DB 48 05 *DCP $0548,Y @ 0647 = 37         A:F0 X:FF Y:FF P:E5 SP:FB CYC:  0
EB1A  EA        NOP                             A:F0 X:FF Y:FF P:E5 SP:FB CYC:  0
EB1B  EA        NOP                             A:F0 X:FF Y:FF P:E5 SP:FB CYC:  0
EB1C  08        PHP                             A:F0 X:FF Y:FF P:E5 SP:FB CYC:  0
EB1D  48        PHA                             A:F0 X:FF Y:FF P:E5 SP:FA CYC:  0
EB1E  A0 A6     LDY #$A6                        A:F0 X:FF Y:FF P:E5 SP:F9 CYC:  0
EB20  68        PLA                             A:F0 X:FF Y:A6 P:E5 SP:F9 CYC:  0
EB21  28        PLP                             A:F0 X:FF Y:A6 P:E5 SP:FA CYC:  0
EB22  20 59 FA  JSR $FA59                       A:F0 X:FF Y:A6 P:E5 SP:FB CYC:  0
FA59  50 0A     BVC $FA65                       A:F0 X:FF Y:A6 P:E5 SP:F9 CYC:  0
FA5B  F0 08     BEQ $FA65                       A:F0 X:FF Y:A6 P:E5 SP:F9 CYC:  0
FA5D  10 06     BPL $FA65                       A:F0 X:FF Y:A6 P:E5 SP:F9 CYC:  0
FA5F  90 04     BCC $FA65                       A:F0 X:FF Y:A6 P:E5 SP:F9 CYC:  0
FA61  C9 F0     CMP #$F0                        A:F0 X:FF Y:A6 P:E5 SP:F9 CYC:  0
FA63  F0 02     BEQ $FA67                       A:F0 X:FF Y:A6 P:67 SP:F9 CYC:  0
FA67  60        RTS                             A:F0 X:FF Y:A6 P:67 SP:F9 CYC:  0
EB25  AD 47 06  LDA $0647 = 36                  A:F0 X:FF Y:A6 P:67 SP:FB CYC:  0
EB28  C9 36     CMP #$36                        A:36 X:FF Y:A6 P:65 SP:FB CYC:  0
EB2A  F0 02     BEQ $EB2E                       A:36 X:FF Y:A6 P:67 SP:FB CYC:  0
EB2E  A0 A7     LDY #$A7                        A:36 X:FF Y:A6 P:67 SP:FB CYC:  0
EB30  A2 FF     LDX #$FF                        A:36 X:FF Y:A7 P:E5 SP:FB CYC:  0
EB32  A9 EB     LDA #$EB                        A:36 X:FF Y:A7 P:E5 SP:FB CYC:  0
EB34  8D 47 06  STA $0647 = 36                  A:EB X:FF Y:A7 P:E5 SP:FB CYC:  0
EB37  20 31 FA  JSR $FA31                       A:EB X:FF Y:A7 P:E5 SP:FB CYC:  0
FA31  24 01     BIT $01 = FF                    A:EB X:FF Y:A7 P:E5 SP:F9 CYC:  0
FA33  18        CLC                             A:EB X:FF Y:A7 P:E5 SP:F9 CYC:  0
FA34  A9 40     LDA #$40                        A:EB X:FF Y:A7 P:E4 SP:F9 CYC:  0
FA36  60        RTS                             A:40 X:FF Y:A7 P:64 SP:F9 CYC:  0
EB3A  DF 48 05 *DCP $0548,X @ 0647 = EB         A:40 X:FF Y:A7 P:64 SP:FB CYC:  0
EB3D  EA        NOP                             A:40 X:FF Y:A7 P:64 SP:FB CYC:  0
EB3E  EA        NOP                             A:40 X:FF Y:A7 P:64 SP:FB CYC:  0
EB3F  EA        NOP                             A:40 X:FF Y:A7 P:64 SP:FB CYC:  0
EB40  EA        NOP                             A:40 X:FF Y:A7 P:64 SP:FB CYC:  0
EB41  20 37 FA  JSR $FA37                       A:40 X:FF Y:A7 P:64 SP:FB CYC:  0
FA37  50 2C     BVC $FA65                       A:40 X:FF Y:A7 P:64 SP:F9 CYC:  0
FA39  B0 2A     BCS $FA65                       A:40 X:FF Y:A7 P:64 SP:F9 CYC:  0
FA3B  30 28     BMI $FA65                       A:40 X:FF Y:A7 P:64 SP:F9 CYC:  0
FA3D  C9 40     CMP #$40                        A:40 X:FF Y:A7 P:64 SP:F9 CYC:  0
FA3F  D0 24     BNE $FA65                       A:40 X:FF Y:A7 P:67 SP:F9 CYC:  0
FA41  60        RTS                             A:40 X:FF Y:A7 P:67 SP:F9 CYC:  0
EB44  AD 47 06  LDA $0647 = EA                  A:40 X:FF Y:A7 P:67 SP:FB CYC:  0
EB47  C9 EA     CMP #$EA                        A:EA X:FF Y:A7 P:E5 SP:FB CYC:  0
EB49  F0 02     BEQ $EB4D                       A:EA X:FF Y:A7 P:67 SP:FB CYC:  0
EB4D  C8        INY                             A:EA X:FF Y:A7 P:67 SP:FB CYC:  0
EB4E  A9 00     LDA #$00                        A:EA X:FF Y:A8 P:E5 SP:FB CYC:  0
EB50  8D 47 06  STA $0647 = EA                  A:00 X:FF Y:A8 P:67 SP:FB CYC:  0
EB53  20 42 FA  JSR $FA42                       A:00 X:FF Y:A8 P:67 SP:FB CYC:  0
FA42  B8        CLV                             A:00 X:FF Y:A8 P:67 SP:F9 CYC:  0
FA43  38        SEC                             A:00 X:FF Y:A8 P:27 SP:F9 CYC:  0
FA44  A9 FF     LDA #$FF                        A:00 X:FF Y:A8 P:27 SP:F9 CYC:  0
FA46  60        RTS                             A:FF X:FF Y:A8 P:A5 SP:F9 CYC:  0
EB56  DF 48 05 *DCP $0548,X @ 0647 = 00         A:FF X:FF Y:A8 P:A5 SP:FB CYC:  0
EB59  EA        NOP                             A:FF X:FF Y:A8 P:27 SP:FB CYC:  0
EB5A  EA        NOP                             A:FF X:FF Y:A8 P:27 SP:FB CYC:  0
EB5B  EA        NOP                             A:FF X:FF Y:A8 P:27 SP:FB CYC:  0
EB5C  EA        NOP                             A:FF X:FF Y:A8 P:27 SP:FB CYC:  0
EB5D  20 47 FA  JSR $FA47                       A:FF X:FF Y:A8 P:27 SP:FB CYC:  0
FA47  70 1C     BVS $FA65                       A:FF X:FF Y:A8 P:27 SP:F9 CYC:  0
FA49  D0 1A     BNE $FA65                       A:FF X:FF Y:A8 P:27 SP:F9 CYC:  0
FA4B  30 18     BMI $FA65                       A:FF X:FF Y:A8 P:27 SP:F9 CYC:  0
FA4D  90 16     BCC $FA65                       A:FF X:FF Y:A8 P:27 SP:F9 CYC:  0
FA4F  C9 FF     CMP #$FF                        A:FF X:FF Y:A8 P:27 SP:F9 CYC:  0
FA51  D0 12     BNE $FA65                       A:FF X:FF Y:A8 P:27 SP:F9 CYC:  0
FA53  60        RTS                             A:FF X:FF Y:A8 P:27 SP:F9 CYC:  0
EB60  AD 47 06  LDA $0647 = FF                  A:FF X:FF Y:A8 P:27 SP:FB CYC:  0
EB63  C9 FF     CMP #$FF                        A:FF X:FF Y:A8 P:A5 SP:FB CYC:  0
EB65  F0 02     BEQ $EB69                       A:FF X:FF Y:A8 P:27 SP:FB CYC:  0
EB69  C8        INY                             A:FF X:FF Y:A8 P:27 SP:FB CYC:  0
EB6A  A9 37     LDA #$37                        A:FF X:FF Y:A9 P:A5 SP:FB CYC:  0
EB6C  8D 47 06  STA $0647 = FF                  A:37 X:FF Y:A9 P:25 SP:FB CYC:  0
EB6F  20 54 FA  JSR $FA54                       A:37 X:FF Y:A9 P:25 SP:FB CYC:  0
FA54  24 01     BIT $01 = FF                    A:37 X:FF Y:A9 P:25 SP:F9 CYC:  0
FA56  A9 F0     LDA #$F0                        A:37 X:FF Y:A9 P:E5 SP:F9 CYC:  0
FA58  60        RTS                             A:F0 X:FF Y:A9 P:E5 SP:F9 CYC:  0
EB72  DF 48 05 *DCP $0548,X @ 0647 = 37         A:F0 X:FF Y:A9 P:E5 SP:FB CYC:  0
EB75  EA        NOP                             A:F0 X:FF Y:A9 P:E5 SP:FB CYC:  0
EB76  EA        NOP                             A:F0 X:FF Y:A9 P:E5 SP:FB CYC:  0
EB77  EA        NOP                             A:F0 X:FF Y:A9 P:E5 SP:FB CYC:  0
EB78  EA        NOP                             A:F0 X:FF Y:A9 P:E5 SP:FB CYC:  0
EB79  20 59 FA  JSR $FA59                       A:F0 X:FF Y:A9 P:E5 SP:FB CYC:  0
FA59  50 0A     BVC $FA65                       A:F0 X:FF Y:A9 P:E5 SP:F9 CYC:  0
FA5B  F0 08     BEQ $FA65                       A:F0 X:FF Y:A9 P:E5 SP:F9 CYC:  0
FA5D  10 06     BPL $FA65                       A:F0 X:FF Y:A9 P:E5 SP:F9 CYC:  0
FA5F  90 04     BCC $FA65                       A:F0 X:FF Y:A9 P:E5 SP:F9 CYC:  0
FA61  C9 F0     CMP #$F0                        A:F0 X:FF Y:A9 P:E5 SP:F9 CYC:  0
FA63  F0 02     BEQ $FA67                       A:F0 X:FF Y:A9 P:67 SP:F9 CYC:  0
FA67  60        RTS                             A:F0 X:FF Y:A9 P:67 SP:F9 CYC:  0
EB7C  AD 47 06  LDA $0647 = 36                  A:F0 X:FF Y:A9 P:67 SP:FB CYC:  0
EB7F  C9 36     CMP #$36                        A:36 X:FF Y:A9 P:65 SP:FB CYC:  0
EB81  F0 02     BEQ $EB85                       A:36 X:FF Y:A9 P:67 SP:FB CYC:  0
EB85  60        RTS                             A:36 X:FF Y:A9 P:67 SP:FB CYC:  0
C63E  20 86 EB  JSR $EB86                       A:36 X:FF Y:A9 P:67 SP:FD CYC:  0
EB86  A9 FF     LDA #$FF                        A:36 X:FF Y:A9 P:67 SP:FB CYC:  0
EB88  85 01     STA $01 = FF                    A:FF X:FF Y:A9 P:E5 SP:FB CYC:  0
EB8A  A0 AA     LDY #$AA                        A:FF X:FF Y:A9 P:E5 SP:FB CYC:  0
EB8C  A2 02     LDX #$02                        A:FF X:FF Y:AA P:E5 SP:FB CYC:  0
EB8E  A9 47     LDA #$47                        A:FF X:02 Y:AA P:65 SP:FB CYC:  0
EB90  85 47     STA $47 = 36                    A:47 X:02 Y:AA P:65 SP:FB CYC:  0
EB92  A9 06     LDA #$06                        A:47 X:02 Y:AA P:65 SP:FB CYC:  0
EB94  85 48     STA $48 = 06                    A:06 X:02 Y:AA P:65 SP:FB CYC:  0
EB96  A9 EB     LDA #$EB                        A:06 X:02 Y:AA P:65 SP:FB CYC:  0
EB98  8D 47 06  STA $0647 = 36                  A:EB X:02 Y:AA P:E5 SP:FB CYC:  0
EB9B  20 B1 FA  JSR $FAB1                       A:EB X:02 Y:AA P:E5 SP:FB CYC:  0
FAB1  24 01     BIT $01 = FF                    A:EB X:02 Y:AA P:E5 SP:F9 CYC:  0
FAB3  18        CLC                             A:EB X:02 Y:AA P:E5 SP:F9 CYC:  0
FAB4  A9 40     LDA #$40                        A:EB X:02 Y:AA P:E4 SP:F9 CYC:  0
FAB6  60        RTS                             A:40 X:02 Y:AA P:64 SP:F9 CYC:  0
EB9E  E3 45    *ISC ($45,X) @ 47 = 0647 = EB    A:40 X:02 Y:AA P:64 SP:FB CYC:  0
EBA0  EA        NOP                             A:53 X:02 Y:AA P:24 SP:FB CYC:  0
EBA1  EA        NOP                             A:53 X:02 Y:AA P:24 SP:FB CYC:  0
EBA2  EA        NOP                             A:53 X:02 Y:AA P:24 SP:FB CYC:  0
EBA3  EA        NOP                             A:53 X:02 Y:AA P:24 SP:FB CYC:  0
EBA4  20 B7 FA  JSR $FAB7                       A:53 X:02 Y:AA P:24 SP:FB CYC:  0
FAB7  70 2D     BVS $FAE6                       A:53 X:02 Y:AA P:24 SP:F9 CYC:  0
FAB9  B0 2B     BCS $FAE6                       A:53 X:02 Y:AA P:24 SP:F9 CYC:  0
FABB  30 29     BMI $FAE6                       A:53 X:02 Y:AA P:24 SP:F9 CYC:  0
FABD  C9 53     CMP #$53                        A:53 X:02 Y:AA P:24 SP:F9 CYC:  0
FABF  D0 25     BNE $FAE6                       A:53 X:02 Y:AA P:27 SP:F9 CYC:  0
FAC1  60        RTS                             A:53 X:02 Y:AA P:27 SP:F9 CYC:  0
EBA7  AD 47 06  LDA $0647 = EC                  A:53 X:02 Y:AA P:27 SP:FB CYC:  0
EBAA  C9 EC     CMP #$EC                        A:EC X:02 Y:AA P:A5 SP:FB CYC:  0
EBAC  F0 02     BEQ $EBB0                       A:EC X:02 Y:AA P:27 SP:FB CYC:  0
EBB0  C8        INY                             A:EC X:02 Y:AA P:27 SP:FB CYC:  0
EBB1  A9 FF     LDA #$FF                        A:EC X:02 Y:AB P:A5 SP:FB CYC:  0
EBB3  8D 47 06  STA $0647 = EC                  A:FF X:02 Y:AB P:A5 SP:FB CYC:  0
EBB6  20 C2 FA  JSR $FAC2                       A:FF X:02 Y:AB P:A5 SP:FB CYC:  0
FAC2  B8        CLV                             A:FF X:02 Y:AB P:A5 SP:F9 CYC:  0
FAC3  38        SEC                             A:FF X:02 Y:AB P:A5 SP:F9 CYC:  0
FAC4  A9 FF     LDA #$FF                        A:FF X:02 Y:AB P:A5 SP:F9 CYC:  0
FAC6  60        RTS                             A:FF X:02 Y:AB P:A5 SP:F9 CYC:  0
EBB9  E3 45    *ISC ($45,X) @ 47 = 0647 = FF    A:FF X:02 Y:AB P:A5 SP:FB CYC:  0
EBBB  EA        NOP                             A:FF X:02 Y:AB P:A5 SP:FB CYC:  0
EBBC  EA        NOP                             A:FF X:02 Y:AB P:A5 SP:FB CYC:  0
EBBD  EA        NOP                             A:FF X:02 Y:AB P:A5 SP:FB CYC:  0
EBBE  EA        NOP                             A:FF X:02 Y:AB P:A5 SP:FB CYC:  0
EBBF  20 C7 FA  JSR $FAC7                       A:FF X:02 Y:AB P:A5 SP:FB CYC:  0
FAC7  70 1D     BVS $FAE6                       A:FF X:02 Y:AB P:A5 SP:F9 CYC:  0
FAC9  F0 1B     BEQ $FAE6                       A:FF X:02 Y:AB P:A5 SP:F9 CYC:  0
FACB  10 19     BPL $FAE6                       A:FF X:02 Y:AB P:A5 SP:F9 CYC:  0
FACD  90 17     BCC $FAE6                       A:FF X:02 Y:AB P:A5 SP:F9 CYC:  0
FACF  C9 FF     CMP #$FF                        A:FF X:02 Y:AB P:A5 SP:F9 CYC:  0
FAD1  D0 13     BNE $FAE6                       A:FF X:02 Y:AB P:27 SP:F9 CYC:  0
FAD3  60        RTS                             A:FF X:02 Y:AB P:27 SP:F9 CYC:  0
EBC2  AD 47 06  LDA $0647 = 00                  A:FF X:02 Y:AB P:27 SP:FB CYC:  0
EBC5  C9 00     CMP #$00                        A:00 X:02 Y:AB P:27 SP:FB CYC:  0
EBC7  F0 02     BEQ $EBCB                       A:00 X:02 Y:AB P:27 SP:FB CYC:  0
EBCB  C8        INY                             A:00 X:02 Y:AB P:27 SP:FB CYC:  0
EBCC  A9 37     LDA #$37                        A:00 X:02 Y:AC P:A5 SP:FB CYC:  0
EBCE  8D 47 06  STA $0647 = 00                  A:37 X:02 Y:AC P:25 SP:FB CYC:  0
EBD1  20 D4 FA  JSR $FAD4                       A:37 X:02 Y:AC P:25 SP:FB CYC:  0
FAD4  24 01     BIT $01 = FF                    A:37 X:02 Y:AC P:25 SP:F9 CYC:  0
FAD6  38        SEC                             A:37 X:02 Y:AC P:E5 SP:F9 CYC:  0
FAD7  A9 F0     LDA #$F0                        A:37 X:02 Y:AC P:E5 SP:F9 CYC:  0
FAD9  60        RTS                             A:F0 X:02 Y:AC P:E5 SP:F9 CYC:  0
EBD4  E3 45    *ISC ($45,X) @ 47 = 0647 = 37    A:F0 X:02 Y:AC P:E5 SP:FB CYC:  0
EBD6  EA        NOP                             A:B8 X:02 Y:AC P:A5 SP:FB CYC:  0
EBD7  EA        NOP                             A:B8 X:02 Y:AC P:A5 SP:FB CYC:  0
EBD8  EA        NOP                             A:B8 X:02 Y:AC P:A5 SP:FB CYC:  0
EBD9  EA        NOP                             A:B8 X:02 Y:AC P:A5 SP:FB CYC:  0
EBDA  20 DA FA  JSR $FADA                       A:B8 X:02 Y:AC P:A5 SP:FB CYC:  0
FADA  70 0A     BVS $FAE6                       A:B8 X:02 Y:AC P:A5 SP:F9 CYC:  0
FADC  F0 08     BEQ $FAE6                       A:B8 X:02 Y:AC P:A5 SP:F9 CYC:  0
FADE  10 06     BPL $FAE6                       A:B8 X:02 Y:AC P:A5 SP:F9 CYC:  0
FAE0  90 04     BCC $FAE6                       A:B8 X:02 Y:AC P:A5 SP:F9 CYC:  0
FAE2  C9 B8     CMP #$B8                        A:B8 X:02 Y:AC P:A5 SP:F9 CYC:  0
FAE4  F0 02     BEQ $FAE8                       A:B8 X:02 Y:AC P:27 SP:F9 CYC:  0
FAE8  60        RTS                             A:B8 X:02 Y:AC P:27 SP:F9 CYC:  0
EBDD  AD 47 06  LDA $0647 = 38                  A:B8 X:02 Y:AC P:27 SP:FB CYC:  0
EBE0  C9 38     CMP #$38                        A:38 X:02 Y:AC P:25 SP:FB CYC:  0
EBE2  F0 02     BEQ $EBE6                       A:38 X:02 Y:AC P:27 SP:FB CYC:  0
EBE6  C8        INY                             A:38 X:02 Y:AC P:27 SP:FB CYC:  0
EBE7  A9 EB     LDA #$EB                        A:38 X:02 Y:AD P:A5 SP:FB CYC:  0
EBE9  85 47     STA $47 = 47                    A:EB X:02 Y:AD P:A5 SP:FB CYC:  0
EBEB  20 B1 FA  JSR $FAB1                       A:EB X:02 Y:AD P:A5 SP:FB CYC:  0
FAB1  24 01     BIT $01 = FF                    A:EB X:02 Y:AD P:A5 SP:F9 CYC:  0
FAB3  18        CLC                             A:EB X:02 Y:AD P:E5 SP:F9 CYC:  0
FAB4  A9 40     LDA #$40                        A:EB X:02 Y:AD P:E4 SP:F9 CYC:  0
FAB6  60        RTS                             A:40 X:02 Y:AD P:64 SP:F9 CYC:  0
EBEE  E7 47    *ISC $47 = EB                    A:40 X:02 Y:AD P:64 SP:FB CYC:  0
EBF0  EA        NOP                             A:53 X:02 Y:AD P:24 SP:FB CYC:  0
EBF1  EA        NOP                             A:53 X:02 Y:AD P:24 SP:FB CYC:  0
EBF2  EA        NOP                             A:53 X:02 Y:AD P:24 SP:FB CYC:  0
EBF3  EA        NOP                             A:53 X:02 Y:AD P:24 SP:FB CYC:  0
EBF4  20 B7 FA  JSR $FAB7                       A:53 X:02 Y:AD P:24 SP:FB CYC:  0
FAB7  70 2D     BVS $FAE6                       A:53 X:02 Y:AD P:24 SP:F9 CYC:  0
FAB9  B0 2B     BCS $FAE6                       A:53 X:02 Y:AD P:24 SP:F9 CYC:  0
FABB  30 29     BMI $FAE6                       A:53 X:02 Y:AD P:24 SP:F9 CYC:  0
FABD  C9 53     CMP #$53                        A:53 X:02 Y:AD P:24 SP:F9 CYC:  0
FABF  D0 25     BNE $FAE6                       A:53 X:02 Y:AD P:27 SP:F9 CYC:  0
FAC1  60        RTS                             A:53 X:02 Y:AD P:27 SP:F9 CYC:  0
EBF7  A5 47     LDA $47 = EC                    A:53 X:02 Y:AD P:27 SP:FB CYC:  0
EBF9  C9 EC     CMP #$EC                        A:EC X:02 Y:AD P:A5 SP:FB CYC:  0
EBFB  F0 02     BEQ $EBFF                       A:EC X:02 Y:AD P:27 SP:FB CYC:  0
EBFF  C8        INY                             A:EC X:02 Y:AD P:27 SP:FB CYC:  0
EC00  A9 FF     LDA #$FF                        A:EC X:02 Y:AE P:A5 SP:FB CYC:  0
EC02  85 47     STA $47 = EC                    A:FF X:02 Y:AE P:A5 SP:FB CYC:  0
EC04  20 C2 FA  JSR $FAC2                       A:FF X:02 Y:AE P:A5 SP:FB CYC:  0
FAC2  B8        CLV                             A:FF X:02 Y:AE P:A5 SP:F9 CYC:  0
FAC3  38        SEC                             A:FF X:02 Y:AE P:A5 SP:F9 CYC:  0
FAC4  A9 FF     LDA #$FF                        A:FF X:02 Y:AE P:A5 SP:F9 CYC:  0
FAC6  60        RTS                             A:FF X:02 Y:AE P:A5 SP:F9 CYC:  0
EC07  E7 47    *ISC $47 = FF                    A:FF X:02 Y:AE P:A5 SP:FB CYC:  0
EC09  EA        NOP                             A:FF X:02 Y:AE P:A5 SP:FB CYC:  0
EC0A  EA        NOP                             A:FF X:02 Y:AE P:A5 SP:FB CYC:  0
EC0B  EA        NOP                             A:FF X:02 Y:AE P:A5 SP:FB CYC:  0
EC0C  EA        NOP                             A:FF X:02 Y:AE P:A5 SP:FB CYC:  0
EC0D  20 C7 FA  JSR $FAC7                       A:FF X:02 Y:AE P:A5 SP:FB CYC:  0
FAC7  70 1D     BVS $FAE6                       A:FF X:02 Y:AE P:A5 SP:F9 CYC:  0
FAC9  F0 1B     BEQ $FAE6                       A:FF X:02 Y:AE P:A5 SP:F9 CYC:  0
FACB  10 19     BPL $FAE6                       A:FF X:02 Y:AE P:A5 SP:F9 CYC:  0
FACD  90 17     BCC $FAE6                       A:FF X:02 Y:AE P:A5 SP:F9 CYC:  0
FACF  C9 FF     CMP #$FF                        A:FF X:02 Y:AE P:A5 SP:F9 CYC:  0
FAD1  D0 13     BNE $FAE6                       A:FF X:02 Y:AE P:27 SP:F9 CYC:  0
FAD3  60        RTS                             A:FF X:02 Y:AE P:27 SP:F9 CYC:  0
EC10  A5 47     LDA $47 = 00                    A:FF X:02 Y:AE P:27 SP:FB CYC:  0
EC12  C9 00     CMP #$00                        A:00 X:02 Y:AE P:27 SP:FB CYC:  0
EC14  F0 02     BEQ $EC18                       A:00 X:02 Y:AE P:27 SP:FB CYC:  0
EC18  C8        INY                             A:00 X:02 Y:AE P:27 SP:FB CYC:  0
EC19  A9 37     LDA #$37                        A:00 X:02 Y:AF P:A5 SP:FB CYC:  0
EC1B  85 47     STA $47 = 00                    A:37 X:02 Y:AF P:25 SP:FB CYC:  0
EC1D  20 D4 FA  JSR $FAD4                       A:37 X:02 Y:AF P:25 SP:FB CYC:  0
FAD4  24 01     BIT $01 = FF                    A:37 X:02 Y:AF P:25 SP:F9 CYC:  0
FAD6  38        SEC                             A:37 X:02 Y:AF P:E5 SP:F9 CYC:  0
FAD7  A9 F0     LDA #$F0                        A:37 X:02 Y:AF P:E5 SP:F9 CYC:  0
FAD9  60        RTS                             A:F0 X:02 Y:AF P:E5 SP:F9 CYC:  0
EC20  E7 47    *ISC $47 = 37                    A:F0 X:02 Y:AF P:E5 SP:FB CYC:  0
EC22  EA        NOP                             A:B8 X:02 Y:AF P:A5 SP:FB CYC:  0
EC23  EA        NOP                             A:B8 X:02 Y:AF P:A5 SP:FB CYC:  0
EC24  EA        NOP                             A:B8 X:02 Y:AF P:A5 SP:FB CYC:  0
EC25  EA        NOP                             A:B8 X:02 Y:AF P:A5 SP:FB CYC:  0
EC26  20 DA FA  JSR $FADA                       A:B8 X:02 Y:AF P:A5 SP:FB CYC:  0
FADA  70 0A     BVS $FAE6                       A:B8 X:02 Y:AF P:A5 SP:F9 CYC:  0
FADC  F0 08     BEQ $FAE6                       A:B8 X:02 Y:AF P:A5 SP:F9 CYC:  0
FADE  10 06     BPL $FAE6                       A:B8 X:02 Y:AF P:A5 SP:F9 CYC:  0
FAE0  90 04     BCC $FAE6                       A:B8 X:02 Y:AF P:A5 SP:F9 CYC:  0
FAE2  C9 B8     CMP #$B8                        A:B8 X:02 Y:AF P:A5 SP:F9 CYC:  0
FAE4  F0 02     BEQ $FAE8                       A:B8 X:02 Y:AF P:27 SP:F9 CYC:  0
FAE8  60        RTS                             A:B8 X:02 Y:AF P:27 SP:F9 CYC:  0
EC29  A5 47     LDA $47 = 38                    A:B8 X:02 Y:AF P:27 SP:FB CYC:  0
EC2B  C9 38     CMP #$38                        A:38 X:02 Y:AF P:25 SP:FB CYC:  0
EC2D  F0 02     BEQ $EC31                       A:38 X:02 Y:AF P:27 SP:FB CYC:  0
EC31  C8        INY                             A:38 X:02 Y:AF P:27 SP:FB CYC:  0
EC32  A9 EB     LDA #$EB                        A:38 X:02 Y:B0 P:A5 SP:FB CYC:  0
EC34  8D 47 06  STA $0647 = 38                  A:EB X:02 Y:B0 P:A5 SP:FB CYC:  0
EC37  20 B1 FA  JSR $FAB1                       A:EB X:02 Y:B0 P:A5 SP:FB CYC:  0
FAB1  24 01     BIT $01 = FF                    A:EB X:02 Y:B0 P:A5 SP:F9 CYC:  0
FAB3  18        CLC                             A:EB X:02 Y:B0 P:E5 SP:F9 CYC:  0
FAB4  A9 40     LDA #$40                        A:EB X:02 Y:B0 P:E4 SP:F9 CYC:  0
FAB6  60        RTS                             A:40 X:02 Y:B0 P:64 SP:F9 CYC:  0
EC3A  EF 47 06 *ISC $0647 = EB                  A:40 X:02 Y:B0 P:64 SP:FB CYC:  0
EC3D  EA        NOP                             A:53 X:02 Y:B0 P:24 SP:FB CYC:  0
EC3E  EA        NOP                             A:53 X:02 Y:B0 P:24 SP:FB CYC:  0
EC3F  EA        NOP                             A:53 X:02 Y:B0 P:24 SP:FB CYC:  0
EC40  EA        NOP                             A:53 X:02 Y:B0 P:24 SP:FB CYC:  0
EC41  20 B7 FA  JSR $FAB7                       A:53 X:02 Y:B0 P:24 SP:FB CYC:  0
FAB7  70 2D     BVS $FAE6                       A:53 X:02 Y:B0 P:24 SP:F9 CYC:  0
FAB9  B0 2B     BCS $FAE6                       A:53 X:02 Y:B0 P:24 SP:F9 CYC:  0
FABB  30 29     BMI $FAE6                       A:53 X:02 Y:B0 P:24 SP:F9 CYC:  0
FABD  C9 53     CMP #$53                        A:53 X:02 Y:B0 P:24 SP:F9 CYC:  0
FABF  D0 25     BNE $FAE6                       A:53 X:02 Y:B0 P:27 SP:F9 CYC:  0
FAC1  60        RTS                             A:53 X:02 Y:B0 P:27 SP:F9 CYC:  0
EC44  AD 47 06  LDA $0647 = EC                  A:53 X:02 Y:B0 P:27 SP:FB CYC:  0
EC47  C9 EC     CMP #$EC                        A:EC X:02 Y:B0 P:A5 SP:FB CYC:  0
EC49  F0 02     BEQ $EC4D                       A:EC X:02 Y:B0 P:27 SP:FB CYC:  0
EC4D  C8        INY                             A:EC X:02 Y:B0 P:27 SP:FB CYC:  0
EC4E  A9 FF     LDA #$FF                        A:EC X:02 Y:B1 P:A5 SP:FB CYC:  0
EC50  8D 47 06  STA $0647 = EC                  A:FF X:02 Y:B1 P:A5 SP:FB CYC:  0
EC53  20 C2 FA  JSR $FAC2                       A:FF X:02 Y:B1 P:A5 SP:FB CYC:  0
FAC2  B8        CLV                             A:FF X:02 Y:B1 P:A5 SP:F9 CYC:  0
FAC3  38        SEC                             A:FF X:02 Y:B1 P:A5 SP:F9 CYC:  0
FAC4  A9 FF     LDA #$FF                        A:FF X:02 Y:B1 P:A5 SP:F9 CYC:  0
FAC6  60        RTS                             A:FF X:02 Y:B1 P:A5 SP:F9 CYC:  0
EC56  EF 47 06 *ISC $0647 = FF                  A:FF X:02 Y:B1 P:A5 SP:FB CYC:  0
EC59  EA        NOP                             A:FF X:02 Y:B1 P:A5 SP:FB CYC:  0
EC5A  EA        NOP                             A:FF X:02 Y:B1 P:A5 SP:FB CYC:  0
EC5B  EA        NOP                             A:FF X:02 Y:B1 P:A5 SP:FB CYC:  0
EC5C  EA        NOP                             A:FF X:02 Y:B1 P:A5 SP:FB CYC:  0
EC5D  20 C7 FA  JSR $FAC7                       A:FF X:02 Y:B1 P:A5 SP:FB CYC:  0
FAC7  70 1D     BVS $FAE6                       A:FF X:02 Y:B1 P:A5 SP:F9 CYC:  0
FAC9  F0 1B     BEQ $FAE6                       A:FF X:02 Y:B1 P:A5 SP:F9 CYC:  0
FACB  10 19     BPL $FAE6                       A:FF X:02 Y:B1 P:A5 SP:F9 CYC:  0
FACD  90 17     BCC $FAE6                       A:FF X:02 Y:B1 P:A5 SP:F9 CYC:  0
FACF  C9 FF     CMP #$FF                        A:FF X:02 Y:B1 P:A5 SP:F9 CYC:  0
FAD1  D0 13     BNE $FAE6                       A:FF X:02 Y:B1 P:27 SP:F9 CYC:  0
FAD3  60        RTS                             A:FF X:02 Y:B1 P:27 SP:F9 CYC:  0
EC60  AD 47 06  LDA $0647 = 00                  A:FF X:02 Y:B1 P:27 SP:FB CYC:  0
EC63  C9 00     CMP #$00                        A:00 X:02 Y:B1 P:27 SP:FB CYC:  0
EC65  F0 02     BEQ $EC69                       A:00 X:02 Y:B1 P:27 SP:FB CYC:  0
EC69  C8        INY                             A:00 X:02 Y:B1 P:27 SP:FB CYC:  0
EC6A  A9 37     LDA #$37                        A:00 X:02 Y:B2 P:A5 SP:FB CYC:  0
EC6C  8D 47 06  STA $0647 = 00                  A:37 X:02 Y:B2 P:25 SP:FB CYC:  0
EC6F  20 D4 FA  JSR $FAD4                       A:37 X:02 Y:B2 P:25 SP:FB CYC:  0
FAD4  24 01     BIT $01 = FF                    A:37 X:02 Y:B2 P:25 SP:F9 CYC:  0
FAD6  38        SEC                             A:37 X:02 Y:B2 P:E5 SP:F9 CYC:  0
FAD7  A9 F0     LDA #$F0                        A:37 X:02 Y:B2 P:E5 SP:F9 CYC:  0
FAD9  60        RTS                             A:F0 X:02 Y:B2 P:E5 SP:F9 CYC:  0
EC72  EF 47 06 *ISC $0647 = 37                  A:F0 X:02 Y:B2 P:E5 SP:FB CYC:  0
EC75  EA        NOP                             A:B8 X:02 Y:B2 P:A5 SP:FB CYC:  0
EC76  EA        NOP                             A:B8 X:02 Y:B2 P:A5 SP:FB CYC:  0
EC77  EA        NOP                             A:B8 X:02 Y:B2 P:A5 SP:FB CYC:  0
EC78  EA        NOP                             A:B8 X:02 Y:B2 P:A5 SP:FB CYC:  0
EC79  20 DA FA  JSR $FADA                       A:B8 X:02 Y:B2 P:A5 SP:FB CYC:  0
FADA  70 0A     BVS $FAE6                       A:B8 X:02 Y:B2 P:A5 SP:F9 CYC:  0
FADC  F0 08     BEQ $FAE6                       A:B8 X:02 Y:B2 P:A5 SP:F9 CYC:  0
FADE  10 06     BPL $FAE6                       A:B8 X:02 Y:B2 P:A5 SP:F9 CYC:  0
FAE0  90 04     BCC $FAE6                       A:B8 X:02 Y:B2 P:A5 SP:F9 CYC:  0
FAE2  C9 B8     CMP #$B8                        A:B8 X:02 Y:B2 P:A5 SP:F9 CYC:  0
FAE4  F0 02     BEQ $FAE8                       A:B8 X:02 Y:B2 P:27 SP:F9 CYC:  0
FAE8  60        RTS                             A:B8 X:02 Y:B2 P:27 SP:F9 CYC:  0
EC7C  AD 47 06  LDA $0647 = 38                  A:B8 X:02 Y:B2 P:27 SP:FB CYC:  0
EC7F  C9 38     CMP #$38                        A:38 X:02 Y:B2 P:25 SP:FB CYC:  0
EC81  F0 02     BEQ $EC85                       A:38 X:02 Y:B2 P:27 SP:FB CYC:  0
EC85  A9 EB     LDA #$EB                        A:38 X:02 Y:B2 P:27 SP:FB CYC:  0
EC87  8D 47 06  STA $0647 = 38                  A:EB X:02 Y:B2 P:A5 SP:FB CYC:  0
EC8A  A9 48     LDA #$48                        A:EB X:02 Y:B2 P:A5 SP:FB CYC:  0
EC8C  85 45     STA $45 = 48                    A:48 X:02 Y:B2 P:25 SP:FB CYC:  0
EC8E  A9 05     LDA #$05                        A:48 X:02 Y:B2 P:25 SP:FB CYC:  0
EC90  85 46     STA $46 = 05                    A:05 X:02 Y:B2 P:25 SP:FB CYC:  0
EC92  A0 FF     LDY #$FF                        A:05 X:02 Y:B2 P:25 SP:FB CYC:  0
EC94  20 B1 FA  JSR $FAB1                       A:05 X:02 Y:FF P:A5 SP:FB CYC:  0
FAB1  24 01     BIT $01 = FF                    A:05 X:02 Y:FF P:A5 SP:F9 CYC:  0
FAB3  18        CLC                             A:05 X:02 Y:FF P:E5 SP:F9 CYC:  0
FAB4  A9 40     LDA #$40                        A:05 X:02 Y:FF P:E4 SP:F9 CYC:  0
FAB6  60        RTS                             A:40 X:02 Y:FF P:64 SP:F9 CYC:  0
EC97  F3 45    *ISC ($45),Y = 0548 @ 0647 = EB  A:40 X:02 Y:FF P:64 SP:FB CYC:  0
EC99  EA        NOP                             A:53 X:02 Y:FF P:24 SP:FB CYC:  0
EC9A  EA        NOP                             A:53 X:02 Y:FF P:24 SP:FB CYC:  0
EC9B  08        PHP                             A:53 X:02 Y:FF P:24 SP:FB CYC:  0
EC9C  48        PHA                             A:53 X:02 Y:FF P:24 SP:FA CYC:  0
EC9D  A0 B3     LDY #$B3                        A:53 X:02 Y:FF P:24 SP:F9 CYC:  0
EC9F  68        PLA                             A:53 X:02 Y:B3 P:A4 SP:F9 CYC:  0
ECA0  28        PLP                             A:53 X:02 Y:B3 P:24 SP:FA CYC:  0
ECA1  20 B7 FA  JSR $FAB7                       A:53 X:02 Y:B3 P:24 SP:FB CYC:  0
FAB7  70 2D     BVS $FAE6                       A:53 X:02 Y:B3 P:24 SP:F9 CYC:  0
FAB9  B0 2B     BCS $FAE6                       A:53 X:02 Y:B3 P:24 SP:F9 CYC:  0
FABB  30 29     BMI $FAE6                       A:53 X:02 Y:B3 P:24 SP:F9 CYC:  0
FABD  C9 53     CMP #$53                        A:53 X:02 Y:B3 P:24 SP:F9 CYC:  0
FABF  D0 25     BNE $FAE6                       A:53 X:02 Y:B3 P:27 SP:F9 CYC:  0
FAC1  60        RTS                             A:53 X:02 Y:B3 P:27 SP:F9 CYC:  0
ECA4  AD 47 06  LDA $0647 = EC                  A:53 X:02 Y:B3 P:27 SP:FB CYC:  0
ECA7  C9 EC     CMP #$EC                        A:EC X:02 Y:B3 P:A5 SP:FB CYC:  0
ECA9  F0 02     BEQ $ECAD                       A:EC X:02 Y:B3 P:27 SP:FB CYC:  0
ECAD  A0 FF     LDY #$FF                        A:EC X:02 Y:B3 P:27 SP:FB CYC:  0
ECAF  A9 FF     LDA #$FF                        A:EC X:02 Y:FF P:A5 SP:FB CYC:  0
ECB1  8D 47 06  STA $0647 = EC                  A:FF X:02 Y:FF P:A5 SP:FB CYC:  0
ECB4  20 C2 FA  JSR $FAC2                       A:FF X:02 Y:FF P:A5 SP:FB CYC:  0
FAC2  B8        CLV                             A:FF X:02 Y:FF P:A5 SP:F9 CYC:  0
FAC3  38        SEC                             A:FF X:02 Y:FF P:A5 SP:F9 CYC:  0
FAC4  A9 FF     LDA #$FF                        A:FF X:02 Y:FF P:A5 SP:F9 CYC:  0
FAC6  60        RTS                             A:FF X:02 Y:FF P:A5 SP:F9 CYC:  0
ECB7  F3 45    *ISC ($45),Y = 0548 @ 0647 = FF  A:FF X:02 Y:FF P:A5 SP:FB CYC:  0
ECB9  EA        NOP                             A:FF X:02 Y:FF P:A5 SP:FB CYC:  0
ECBA  EA        NOP                             A:FF X:02 Y:FF P:A5 SP:FB CYC:  0
ECBB  08        PHP                             A:FF X:02 Y:FF P:A5 SP:FB CYC:  0
ECBC  48        PHA                             A:FF X:02 Y:FF P:A5 SP:FA CYC:  0
ECBD  A0 B4     LDY #$B4                        A:FF X:02 Y:FF P:A5 SP:F9 CYC:  0
ECBF  68        PLA                             A:FF X:02 Y:B4 P:A5 SP:F9 CYC:  0
ECC0  28        PLP                             A:FF X:02 Y:B4 P:A5 SP:FA CYC:  0
ECC1  20 C7 FA  JSR $FAC7                       A:FF X:02 Y:B4 P:A5 SP:FB CYC:  0
FAC7  70 1D     BVS $FAE6                       A:FF X:02 Y:B4 P:A5 SP:F9 CYC:  0
FAC9  F0 1B     BEQ $FAE6                       A:FF X:02 Y:B4 P:A5 SP:F9 CYC:  0
FACB  10 19     BPL $FAE6                       A:FF X:02 Y:B4 P:A5 SP:F9 CYC:  0
FACD  90 17     BCC $FAE6                       A:FF X:02 Y:B4 P:A5 SP:F9 CYC:  0
FACF  C9 FF     CMP #$FF                        A:FF X:02 Y:B4 P:A5 SP:F9 CYC:  0
FAD1  D0 13     BNE $FAE6                       A:FF X:02 Y:B4 P:27 SP:F9 CYC:  0
FAD3  60        RTS                             A:FF X:02 Y:B4 P:27 SP:F9 CYC:  0
ECC4  AD 47 06  LDA $0647 = 00                  A:FF X:02 Y:B4 P:27 SP:FB CYC:  0
ECC7  C9 00     CMP #$00                        A:00 X:02 Y:B4 P:27 SP:FB CYC:  0
ECC9  F0 02     BEQ $ECCD                       A:00 X:02 Y:B4 P:27 SP:FB CYC:  0
ECCD  A0 FF     LDY #$FF                        A:00 X:02 Y:B4 P:27 SP:FB CYC:  0
ECCF  A9 37     LDA #$37                        A:00 X:02 Y:FF P:A5 SP:FB CYC:  0
ECD1  8D 47 06  STA $0647 = 00                  A:37 X:02 Y:FF P:25 SP:FB CYC:  0
ECD4  20 D4 FA  JSR $FAD4                       A:37 X:02 Y:FF P:25 SP:FB CYC:  0
FAD4  24 01     BIT $01 = FF                    A:37 X:02 Y:FF P:25 SP:F9 CYC:  0
FAD6  38        SEC                             A:37 X:02 Y:FF P:E5 SP:F9 CYC:  0
FAD7  A9 F0     LDA #$F0                        A:37 X:02 Y:FF P:E5 SP:F9 CYC:  0
FAD9  60        RTS                             A:F0 X:02 Y:FF P:E5 SP:F9 CYC:  0
ECD7  F3 45    *ISC ($45),Y = 0548 @ 0647 = 37  A:F0 X:02 Y:FF P:E5 SP:FB CYC:  0
ECD9  EA        NOP                             A:B8 X:02 Y:FF P:A5 SP:FB CYC:  0
ECDA  EA        NOP                             A:B8 X:02 Y:FF P:A5 SP:FB CYC:  0
ECDB  08        PHP                             A:B8 X:02 Y:FF P:A5 SP:FB CYC:  0
ECDC  48        PHA                             A:B8 X:02 Y:FF P:A5 SP:FA CYC:  0
ECDD  A0 B5     LDY #$B5                        A:B8 X:02 Y:FF P:A5 SP:F9 CYC:  0
ECDF  68        PLA                             A:B8 X:02 Y:B5 P:A5 SP:F9 CYC:  0
ECE0  28        PLP                             A:B8 X:02 Y:B5 P:A5 SP:FA CYC:  0
ECE1  20 DA FA  JSR $FADA                       A:B8 X:02 Y:B5 P:A5 SP:FB CYC:  0
FADA  70 0A     BVS $FAE6                       A:B8 X:02 Y:B5 P:A5 SP:F9 CYC:  0
FADC  F0 08     BEQ $FAE6                       A:B8 X:02 Y:B5 P:A5 SP:F9 CYC:  0
FADE  10 06     BPL $FAE6                       A:B8 X:02 Y:B5 P:A5 SP:F9 CYC:  0
FAE0  90 04     BCC $FAE6                       A:B8 X:02 Y:B5 P:A5 SP:F9 CYC:  0
FAE2  C9 B8     CMP #$B8                        A:B8 X:02 Y:B5 P:A5 SP:F9 CYC:  0
FAE4  F0 02     BEQ $FAE8                       A:B8 X:02 Y:B5 P:27 SP:F9 CYC:  0
FAE8  60        RTS                             A:B8 X:02 Y:B5 P:27 SP:F9 CYC:  0
ECE4  AD 47 06  LDA $0647 = 38                  A:B8 X:02 Y:B5 P:27 SP:FB CYC:  0
ECE7  C9 38     CMP #$38                        A:38 X:02 Y:B5 P:25 SP:FB CYC:  0
ECE9  F0 02     BEQ $ECED                       A:38 X:02 Y:B5 P:27 SP:FB CYC:  0
ECED  A0 B6     LDY #$B6                        A:38 X:02 Y:B5 P:27 SP:FB CYC:  0
ECEF  A2 FF     LDX #$FF                        A:38 X:02 Y:B6 P:A5 SP:FB CYC:  0
ECF1  A9 EB     LDA #$EB                        A:38 X:FF Y:B6 P:A5 SP:FB CYC:  0
ECF3  85 47     STA $47 = 38                    A:EB X:FF Y:B6 P:A5 SP:FB CYC:  0
ECF5  20 B1 FA  JSR $FAB1                       A:EB X:FF Y:B6 P:A5 SP:FB CYC:  0
FAB1  24 01     BIT $01 = FF                    A:EB X:FF Y:B6 P:A5 SP:F9 CYC:  0
FAB3  18        CLC                             A:EB X:FF Y:B6 P:E5 SP:F9 CYC:  0
FAB4  A9 40     LDA #$40                        A:EB X:FF Y:B6 P:E4 SP:F9 CYC:  0
FAB6  60        RTS                             A:40 X:FF Y:B6 P:64 SP:F9 CYC:  0
ECF8  F7 48    *ISC $48,X @ 47 = EB             A:40 X:FF Y:B6 P:64 SP:FB CYC:  0
ECFA  EA        NOP                             A:53 X:FF Y:B6 P:24 SP:FB CYC:  0
ECFB  EA        NOP                             A:53 X:FF Y:B6 P:24 SP:FB CYC:  0
ECFC  EA        NOP                             A:53 X:FF Y:B6 P:24 SP:FB CYC:  0
ECFD  EA        NOP                             A:53 X:FF Y:B6 P:24 SP:FB CYC:  0
ECFE  20 B7 FA  JSR $FAB7                       A:53 X:FF Y:B6 P:24 SP:FB CYC:  0
FAB7  70 2D     BVS $FAE6                       A:53 X:FF Y:B6 P:24 SP:F9 CYC:  0
FAB9  B0 2B     BCS $FAE6                       A:53 X:FF Y:B6 P:24 SP:F9 CYC:  0
FABB  30 29     BMI $FAE6                       A:53 X:FF Y:B6 P:24 SP:F9 CYC:  0
FABD  C9 53     CMP #$53                        A:53 X:FF Y:B6 P:24 SP:F9 CYC:  0
FABF  D0 25     BNE $FAE6                       A:53 X:FF Y:B6 P:27 SP:F9 CYC:  0
FAC1  60        RTS                             A:53 X:FF Y:B6 P:27 SP:F9 CYC:  0
ED01  A5 47     LDA $47 = EC                    A:53 X:FF Y:B6 P:27 SP:FB CYC:  0
ED03  C9 EC     CMP #$EC                        A:EC X:FF Y:B6 P:A5 SP:FB CYC:  0
ED05  F0 02     BEQ $ED09                       A:EC X:FF Y:B6 P:27 SP:FB CYC:  0
ED09  C8        INY                             A:EC X:FF Y:B6 P:27 SP:FB CYC:  0
ED0A  A9 FF     LDA #$FF                        A:EC X:FF Y:B7 P:A5 SP:FB CYC:  0
ED0C  85 47     STA $47 = EC                    A:FF X:FF Y:B7 P:A5 SP:FB CYC:  0
ED0E  20 C2 FA  JSR $FAC2                       A:FF X:FF Y:B7 P:A5 SP:FB CYC:  0
FAC2  B8        CLV                             A:FF X:FF Y:B7 P:A5 SP:F9 CYC:  0
FAC3  38        SEC                             A:FF X:FF Y:B7 P:A5 SP:F9 CYC:  0
FAC4  A9 FF     LDA #$FF                        A:FF X:FF Y:B7 P:A5 SP:F9 CYC:  0
FAC6  60        RTS                             A:FF X:FF Y:B7 P:A5 SP:F9 CYC:  0
ED11  F7 48    *ISC $48,X @ 47 = FF             A:FF X:FF Y:B7 P:A5 SP:FB CYC:  0
ED13  EA        NOP                             A:FF X:FF Y:B7 P:A5 SP:FB CYC:  0
ED14  EA        NOP                             A:FF X:FF Y:B7 P:A5 SP:FB CYC:  0
ED15  EA        NOP                             A:FF X:FF Y:B7 P:A5 SP:FB CYC:  0
ED16  EA        NOP                             A:FF X:FF Y:B7 P:A5 SP:FB CYC:  0
ED17  20 C7 FA  JSR $FAC7                       A:FF X:FF Y:B7 P:A5 SP:FB CYC:  0
FAC7  70 1D     BVS $FAE6                       A:FF X:FF Y:B7 P:A5 SP:F9 CYC:  0
FAC9  F0 1B     BEQ $FAE6                       A:FF X:FF Y:B7 P:A5 SP:F9 CYC:  0
FACB  10 19     BPL $FAE6                       A:FF X:FF Y:B7 P:A5 SP:F9 CYC:  0
FACD  90 17     BCC $FAE6                       A:FF X:FF Y:B7 P:A5 SP:F9 CYC:  0
FACF  C9 FF     CMP #$FF                        A:FF X:FF Y:B7 P:A5 SP:F9 CYC:  0
FAD1  D0 13     BNE $FAE6                       A:FF X:FF Y:B7 P:27 SP:F9 CYC:  0
FAD3  60        RTS                             A:FF X:FF Y:B7 P:27 SP:F9 CYC:  0
ED1A  A5 47     LDA $47 = 00                    A:FF X:FF Y:B7 P:27 SP:FB CYC:  0
ED1C  C9 00     CMP #$00                        A:00 X:FF Y:B7 P:27 SP:FB CYC:  0
ED1E  F0 02     BEQ $ED22                       A:00 X:FF Y:B7 P:27 SP:FB CYC:  0
ED22  C8        INY                             A:00 X:FF Y:B7 P:27 SP:FB CYC:  0
ED23  A9 37     LDA #$37                        A:00 X:FF Y:B8 P:A5 SP:FB CYC:  0
ED25  85 47     STA $47 = 00                    A:37 X:FF Y:B8 P:25 SP:FB CYC:  0
ED27  20 D4 FA  JSR $FAD4                       A:37 X:FF Y:B8 P:25 SP:FB CYC:  0
FAD4  24 01     BIT $01 = FF                    A:37 X:FF Y:B8 P:25 SP:F9 CYC:  0
FAD6  38        SEC                             A:37 X:FF Y:B8 P:E5 SP:F9 CYC:  0
FAD7  A9 F0     LDA #$F0                        A:37 X:FF Y:B8 P:E5 SP:F9 CYC:  0
FAD9  60        RTS                             A:F0 X:FF Y:B8 P:E5 SP:F9 CYC:  0
ED2A  F7 48    *ISC $48,X @ 47 = 37             A:F0 X:FF Y:B8 P:E5 SP:FB CYC:  0
ED2C  EA        NOP                             A:B8 X:FF Y:B8 P:A5 SP:FB CYC:  0
ED2D  EA        NOP                             A:B8 X:FF Y:B8 P:A5 SP:FB CYC:  0
ED2E  EA        NOP                             A:B8 X:FF Y:B8 P:A5 SP:FB CYC:  0
ED2F  EA        NOP                             A:B8 X:FF Y:B8 P:A5 SP:FB CYC:  0
ED30  20 DA FA  JSR $FADA                       A:B8 X:FF Y:B8 P:A5 SP:FB CYC:  0
FADA  70 0A     BVS $FAE6                       A:B8 X:FF Y:B8 P:A5 SP:F9 CYC:  0
FADC  F0 08     BEQ $FAE6                       A:B8 X:FF Y:B8 P:A5 SP:F9 CYC:  0
FADE  10 06     BPL $FAE6                       A:B8 X:FF Y:B8 P:A5 SP:F9 CYC:  0
FAE0  90 04     BCC $FAE6                       A:B8 X:FF Y:B8 P:A5 SP:F9 CYC:  0
FAE2  C9 B8     CMP #$B8                        A:B8 X:FF Y:B8 P:A5 SP:F9 CYC:  0
FAE4  F0 02     BEQ $FAE8                       A:B8 X:FF Y:B8 P:27 SP:F9 CYC:  0
FAE8  60        RTS                             A:B8 X:FF Y:B8 P:27 SP:F9 CYC:  0
ED33  A5 47     LDA $47 = 38                    A:B8 X:FF Y:B8 P:27 SP:FB CYC:  0
ED35  C9 38     CMP #$38                        A:38 X:FF Y:B8 P:25 SP:FB CYC:  0
ED37  F0 02     BEQ $ED3B                       A:38 X:FF Y:B8 P:27 SP:FB CYC:  0
ED3B  A9 EB     LDA #$EB                        A:38 X:FF Y:B8 P:27 SP:FB CYC:  0
ED3D  8D 47 06  STA $0647 = 38                  A:EB X:FF Y:B8 P:A5 SP:FB CYC:  0
ED40  A0 FF     LDY #$FF                        A:EB X:FF Y:B8 P:A5 SP:FB CYC:  0
ED42  20 B1 FA  JSR $FAB1                       A:EB X:FF Y:FF P:A5 SP:FB CYC:  0
FAB1  24 01     BIT $01 = FF                    A:EB X:FF Y:FF P:A5 SP:F9 CYC:  0
FAB3  18        CLC                             A:EB X:FF Y:FF P:E5 SP:F9 CYC:  0
FAB4  A9 40     LDA #$40                        A:EB X:FF Y:FF P:E4 SP:F9 CYC:  0
FAB6  60        RTS                             A:40 X:FF Y:FF P:64 SP:F9 CYC:  0
ED45  FB 48 05 *ISC $0548,Y @ 0647 = EB         A:40 X:FF Y:FF P:64 SP:FB CYC:  0
ED48  EA        NOP                             A:53 X:FF Y:FF P:24 SP:FB CYC:  0
ED49  EA        NOP                             A:53 X:FF Y:FF P:24 SP:FB CYC:  0
ED4A  08        PHP                             A:53 X:FF Y:FF P:24 SP:FB CYC:  0
ED4B  48        PHA                             A:53 X:FF Y:FF P:24 SP:FA CYC:  0
ED4C  A0 B9     LDY #$B9                        A:53 X:FF Y:FF P:24 SP:F9 CYC:  0
ED4E  68        PLA                             A:53 X:FF Y:B9 P:A4 SP:F9 CYC:  0
ED4F  28        PLP                             A:53 X:FF Y:B9 P:24 SP:FA CYC:  0
ED50  20 B7 FA  JSR $FAB7                       A:53 X:FF Y:B9 P:24 SP:FB CYC:  0
FAB7  70 2D     BVS $FAE6                       A:53 X:FF Y:B9 P:24 SP:F9 CYC:  0
FAB9  B0 2B     BCS $FAE6                       A:53 X:FF Y:B9 P:24 SP:F9 CYC:  0
FABB  30 29     BMI $FAE6                       A:53 X:FF Y:B9 P:24 SP:F9 CYC:  0
FABD  C9 53     CMP #$53                        A:53 X:FF Y:B9 P:24 SP:F9 CYC:  0
FABF  D0 25     BNE $FAE6                       A:53 X:FF Y:B9 P:27 SP:F9 CYC:  0
FAC1  60        RTS                             A:53 X:FF Y:B9 P:27 SP:F9 CYC:  0
ED53  AD 47 06  LDA $0647 = EC                  A:53 X:FF Y:B9 P:27 SP:FB CYC:  0
ED56  C9 EC     CMP #$EC                        A:EC X:FF Y:B9 P:A5 SP:FB CYC:  0
ED58  F0 02     BEQ $ED5C                       A:EC X:FF Y:B9 P:27 SP:FB CYC:  0
ED5C  A0 FF     LDY #$FF                        A:EC X:FF Y:B9 P:27 SP:FB CYC:  0
ED5E  A9 FF     LDA #$FF                        A:EC X:FF Y:FF P:A5 SP:FB CYC:  0
ED60  8D 47 06  STA $0647 = EC                  A:FF X:FF Y:FF P:A5 SP:FB CYC:  0
ED63  20 C2 FA  JSR $FAC2                       A:FF X:FF Y:FF P:A5 SP:FB CYC:  0
FAC2  B8        CLV                             A:FF X:FF Y:FF P:A5 SP:F9 CYC:  0
FAC3  38        SEC                             A:FF X:FF Y:FF P:A5 SP:F9 CYC:  0
FAC4  A9 FF     LDA #$FF                        A:FF X:FF Y:FF P:A5 SP:F9 CYC:  0
FAC6  60        RTS                             A:FF X:FF Y:FF P:A5 SP:F9 CYC:  0
ED66  FB 48 05 *ISC $0548,Y @ 0647 = FF         A:FF X:FF Y:FF P:A5 SP:FB CYC:  0
ED69  EA        NOP                             A:FF X:FF Y:FF P:A5 SP:FB CYC:  0
ED6A  EA        NOP                             A:FF X:FF Y:FF P:A5 SP:FB CYC:  0
ED6B  08        PHP                             A:FF X:FF Y:FF P:A5 SP:FB CYC:  0
ED6C  48        PHA                             A:FF X:FF Y:FF P:A5 SP:FA CYC:  0
ED6D  A0 BA     LDY #$BA                        A:FF X:FF Y:FF P:A5 SP:F9 CYC:  0
ED6F  68        PLA                             A:FF X:FF Y:BA P:A5 SP:F9 CYC:  0
ED70  28        PLP                             A:FF X:FF Y:BA P:A5 SP:FA CYC:  0
ED71  20 C7 FA  JSR $FAC7                       A:FF X:FF Y:BA P:A5 SP:FB CYC:  0
FAC7  70 1D     BVS $FAE6                       A:FF X:FF Y:BA P:A5 SP:F9 CYC:  0
FAC9  F0 1B     BEQ $FAE6                       A:FF X:FF Y:BA P:A5 SP:F9 CYC:  0
FACB  10 19     BPL $FAE6                       A:FF X:FF Y:BA P:A5 SP:F9 CYC:  0
FACD  90 17     BCC $FAE6                       A:FF X:FF Y:BA P:A5 SP:F9 CYC:  0
FACF  C9 FF     CMP #$FF                        A:FF X:FF Y:BA P:A5 SP:F9 CYC:  0
FAD1  D0 13     BNE $FAE6                       A:FF X:FF Y:BA P:27 SP:F9 CYC:  0
FAD3  60        RTS                             A:FF X:FF Y:BA P:27 SP:F9 CYC:  0
ED74  AD 47 06  LDA $0647 = 00                  A:FF X:FF Y:BA P:27 SP:FB CYC:  0
ED77  C9 00     CMP #$00                        A:00 X:FF Y:BA P:27 SP:FB CYC:  0
ED79  F0 02     BEQ $ED7D                       A:00 X:FF Y:BA P:27 SP:FB CYC:  0
ED7D  A0 FF     LDY #$FF                        A:00 X:FF Y:BA P:27 SP:FB CYC:  0
ED7F  A9 37     LDA #$37                        A:00 X:FF Y:FF P:A5 SP:FB CYC:  0
ED81  8D 47 06  STA $0647 = 00                  A:37 X:FF Y:FF P:25 SP:FB CYC:  0
ED84  20 D4 FA  JSR $FAD4                       A:37 X:FF Y:FF P:25 SP:FB CYC:  0
FAD4  24 01     BIT $01 = FF                    A:37 X:FF Y:FF P:25 SP:F9 CYC:  0
FAD6  38        SEC                             A:37 X:FF Y:FF P:E5 SP:F9 CYC:  0
FAD7  A9 F0     LDA #$F0                        A:37 X:FF Y:FF P:E5 SP:F9 CYC:  0
FAD9  60        RTS                             A:F0 X:FF Y:FF P:E5 SP:F9 CYC:  0
ED87  FB 48 05 *ISC $0548,Y @ 0647 = 37         A:F0 X:FF Y:FF P:E5 SP:FB CYC:  0
ED8A  EA        NOP                             A:B8 X:FF Y:FF P:A5 SP:FB CYC:  0
ED8B  EA        NOP                             A:B8 X:FF Y:FF P:A5 SP:FB CYC:  0
ED8C  08        PHP                             A:B8 X:FF Y:FF P:A5 SP:FB CYC:  0
ED8D  48        PHA                             A:B8 X:FF Y:FF P:A5 SP:FA CYC:  0
ED8E  A0 BB     LDY #$BB                        A:B8 X:FF Y:FF P:A5 SP:F9 CYC:  0
ED90  68        PLA                             A:B8 X:FF Y:BB P:A5 SP:F9 CYC:  0
ED91  28        PLP                             A:B8 X:FF Y:BB P:A5 SP:FA CYC:  0
ED92  20 DA FA  JSR $FADA                       A:B8 X:FF Y:BB P:A5 SP:FB CYC:  0
FADA  70 0A     BVS $FAE6                       A:B8 X:FF Y:BB P:A5 SP:F9 CYC:  0
FADC  F0 08     BEQ $FAE6                       A:B8 X:FF Y:BB P:A5 SP:F9 CYC:  0
FADE  10 06     BPL $FAE6                       A:B8 X:FF Y:BB P:A5 SP:F9 CYC:  0
FAE0  90 04     BCC $FAE6                       A:B8 X:FF Y:BB P:A5 SP:F9 CYC:  0
FAE2  C9 B8     CMP #$B8                        A:B8 X:FF Y:BB P:A5 SP:F9 CYC:  0
FAE4  F0 02     BEQ $FAE8                       A:B8 X:FF Y:BB P:27 SP:F9 CYC:  0
FAE8  60        RTS                             A:B8 X:FF Y:BB P:27 SP:F9 CYC:  0
ED95  AD 47 06  LDA $0647 = 38                  A:B8 X:FF Y:BB P:27 SP:FB CYC:  0
ED98  C9 38     CMP #$38                        A:38 X:FF Y:BB P:25 SP:FB CYC:  0
ED9A  F0 02     BEQ $ED9E                       A:38 X:FF Y:BB P:27 SP:FB CYC:  0
ED9E  A0 BC     LDY #$BC                        A:38 X:FF Y:BB P:27 SP:FB CYC:  0
EDA0  A2 FF     LDX #$FF                        A:38 X:FF Y:BC P:A5 SP:FB CYC:  0
EDA2  A9 EB     LDA #$EB                        A:38 X:FF Y:BC P:A5 SP:FB CYC:  0
EDA4  8D 47 06  STA $0647 = 38                  A:EB X:FF Y:BC P:A5 SP:FB CYC:  0
EDA7  20 B1 FA  JSR $FAB1                       A:EB X:FF Y:BC P:A5 SP:FB CYC:  0
FAB1  24 01     BIT $01 = FF                    A:EB X:FF Y:BC P:A5 SP:F9 CYC:  0
FAB3  18        CLC                             A:EB X:FF Y:BC P:E5 SP:F9 CYC:  0
FAB4  A9 40     LDA #$40                        A:EB X:FF Y:BC P:E4 SP:F9 CYC:  0
FAB6  60        RTS                             A:40 X:FF Y:BC P:64 SP:F9 CYC:  0
EDAA  FF 48 05 *ISC $0548,X @ 0647 = EB         A:40 X:FF Y:BC P:64 SP:FB CYC:  0
EDAD  EA        NOP                             A:53 X:FF Y:BC P:24 SP:FB CYC:  0
EDAE  EA        NOP                             A:53 X:FF Y:BC P:24 SP:FB CYC:  0
EDAF  EA        NOP                             A:53 X:FF Y:BC P:24 SP:FB CYC:  0
EDB0  EA        NOP                             A:53 X:FF Y:BC P:24 SP:FB CYC:  0
EDB1  20 B7 FA  JSR $FAB7                       A:53 X:FF Y:BC P:24 SP:FB CYC:  0
FAB7  70 2D     BVS $FAE6                       A:53 X:FF Y:BC P:24 SP:F9 CYC:  0
FAB9  B0 2B     BCS $FAE6                       A:53 X:FF Y:BC P:24 SP:F9 CYC:  0
FABB  30 29     BMI $FAE6                       A:53 X:FF Y:BC P:24 SP:F9 CYC:  0
FABD  C9 53     CMP #$53                        A:53 X:FF Y:BC P:24 SP:F9 CYC:  0
FABF  D0 25     BNE $FAE6                       A:53 X:FF Y:BC P:27 SP:F9 CYC:  0
FAC1  60        RTS                             A:53 X:FF Y:BC P:27 SP:F9 CYC:  0
EDB4  AD 47 06  LDA $0647 = EC                  A:53 X:FF Y:BC P:27 SP:FB CYC:  0
EDB7  C9 EC     CMP #$EC                        A:EC X:FF Y:BC P:A5 SP:FB CYC:  0
EDB9  F0 02     BEQ $EDBD                       A:EC X:FF Y:BC P:27 SP:FB CYC:  0
EDBD  C8        INY                             A:EC X:FF Y:BC P:27 SP:FB CYC:  0
EDBE  A9 FF     LDA #$FF                        A:EC X:FF Y:BD P:A5 SP:FB CYC:  0
EDC0  8D 47 06  STA $0647 = EC                  A:FF X:FF Y:BD P:A5 SP:FB CYC:  0
EDC3  20 C2 FA  JSR $FAC2                       A:FF X:FF Y:BD P:A5 SP:FB CYC:  0
FAC2  B8        CLV                             A:FF X:FF Y:BD P:A5 SP:F9 CYC:  0
FAC3  38        SEC                             A:FF X:FF Y:BD P:A5 SP:F9 CYC:  0
FAC4  A9 FF     LDA #$FF                        A:FF X:FF Y:BD P:A5 SP:F9 CYC:  0
FAC6  60        RTS                             A:FF X:FF Y:BD P:A5 SP:F9 CYC:  0
EDC6  FF 48 05 *ISC $0548,X @ 0647 = FF         A:FF X:FF Y:BD P:A5 SP:FB CYC:  0
EDC9  EA        NOP                             A:FF X:FF Y:BD P:A5 SP:FB CYC:  0
EDCA  EA        NOP                             A:FF X:FF Y:BD P:A5 SP:FB CYC:  0
EDCB  EA        NOP                             A:FF X:FF Y:BD P:A5 SP:FB CYC:  0
EDCC  EA        NOP                             A:FF X:FF Y:BD P:A5 SP:FB CYC:  0
EDCD  20 C7 FA  JSR $FAC7                       A:FF X:FF Y:BD P:A5 SP:FB CYC:  0
FAC7  70 1D     BVS $FAE6                       A:FF X:FF Y:BD P:A5 SP:F9 CYC:  0
FAC9  F0 1B     BEQ $FAE6                       A:FF X:FF Y:BD P:A5 SP:F9 CYC:  0
FACB  10 19     BPL $FAE6                       A:FF X:FF Y:BD P:A5 SP:F9 CYC:  0
FACD  90 17     BCC $FAE6                       A:FF X:FF Y:BD P:A5 SP:F9 CYC:  0
FACF  C9 FF     CMP #$FF                        A:FF X:FF Y:BD P:A5 SP:F9 CYC:  0
FAD1  D0 13     BNE $FAE6                       A:FF X:FF Y:BD P:27 SP:F9 CYC:  0
FAD3  60        RTS                             A:FF X:FF Y:BD P:27 SP:F9 CYC:  0
EDD0  AD 47 06  LDA $0647 = 00                  A:FF X:FF Y:BD P:27 SP:FB CYC:  0
EDD3  C9 00     CMP #$00                        A:00 X:FF Y:BD P:27 SP:FB CYC:  0
EDD5  F0 02     BEQ $EDD9                       A:00 X:FF Y:BD P:27 SP:FB CYC:  0
EDD9  C8        INY                             A:00 X:FF Y:BD P:27 SP:FB CYC:  0
EDDA  A9 37     LDA #$37                        A:00 X:FF Y:BE P:A5 SP:FB CYC:  0
EDDC  8D 47 06  STA $0647 = 00                  A:37 X:FF Y:BE P:25 SP:FB CYC:  0
EDDF  20 D4 FA  JSR $FAD4                       A:37 X:FF Y:BE P:25 SP:FB CYC:  0
FAD4  24 01     BIT $01 = FF                    A:37 X:FF Y:BE P:25 SP:F9 CYC:  0
FAD6  38        SEC                             A:37 X:FF Y:BE P:E5 SP:F9 CYC:  0
FAD7  A9 F0     LDA #$F0                        A:37 X:FF Y:BE P:E5 SP:F9 CYC:  0
FAD9  60        RTS                             A:F0 X:FF Y:BE P:E5 SP:F9 CYC:  0
EDE2  FF 48 05 *ISC $0548,X @ 0647 = 37         A:F0 X:FF Y:BE P:E5 SP:FB CYC:  0
EDE5  EA        NOP                             A:B8 X:FF Y:BE P:A5 SP:FB CYC:  0
EDE6  EA        NOP                             A:B8 X:FF Y:BE P:A5 SP:FB CYC:  0
EDE7  EA        NOP                             A:B8 X:FF Y:BE P:A5 SP:FB CYC:  0
EDE8  EA        NOP                             A:B8 X:FF Y:BE P:A5 SP:FB CYC:  0
EDE9  20 DA FA  JSR $FADA                       A:B8 X:FF Y:BE P:A5 SP:FB CYC:  0
FADA  70 0A     BVS $FAE6                       A:B8 X:FF Y:BE P:A5 SP:F9 CYC:  0
FADC  F0 08     BEQ $FAE6                       A:B8 X:FF Y:BE P:A5 SP:F9 CYC:  0
FADE  10 06     BPL $FAE6                       A:B8 X:FF Y:BE P:A5 SP:F9 CYC:  0
FAE0  90 04     BCC $FAE6                       A:B8 X:FF Y:BE P:A5 SP:F9 CYC:  0
FAE2  C9 B8     CMP #$B8                        A:B8 X:FF Y:BE P:A5 SP:F9 CYC:  0
FAE4  F0 02     BEQ $FAE8                       A:B8 X:FF Y:BE P:27 SP:F9 CYC:  0
FAE8  60        RTS                             A:B8 X:FF Y:BE P:27 SP:F9 CYC:  0
EDEC  AD 47 06  LDA $0647 = 38                  A:B8 X:FF Y:BE P:27 SP:FB CYC:  0
EDEF  C9 38     CMP #$38                        A:38 X:FF Y:BE P:25 SP:FB CYC:  0
EDF1  F0 02     BEQ $EDF5                       A:38 X:FF Y:BE P:27 SP:FB CYC:  0
EDF5  60        RTS                             A:38 X:FF Y:BE P:27 SP:FB CYC:  0
C641  20 F6 ED  JSR $EDF6                       A:38 X:FF Y:BE P:27 SP:FD CYC:  0
EDF6  A9 FF     LDA #$FF                        A:38 X:FF Y:BE P:27 SP:FB CYC:  0
EDF8  85 01     STA $01 = FF                    A:FF X:FF Y:BE P:A5 SP:FB CYC:  0
EDFA  A0 BF     LDY #$BF                        A:FF X:FF Y:BE P:A5 SP:FB CYC:  0
EDFC  A2 02     LDX #$02                        A:FF X:FF Y:BF P:A5 SP:FB CYC:  0
EDFE  A9 47     LDA #$47                        A:FF X:02 Y:BF P:25 SP:FB CYC:  0
EE00  85 47     STA $47 = 38                    A:47 X:02 Y:BF P:25 SP:FB CYC:  0
EE02  A9 06     LDA #$06                        A:47 X:02 Y:BF P:25 SP:FB CYC:  0
EE04  85 48     STA $48 = 06                    A:06 X:02 Y:BF P:25 SP:FB CYC:  0
EE06  A9 A5     LDA #$A5                        A:06 X:02 Y:BF P:25 SP:FB CYC:  0
EE08  8D 47 06  STA $0647 = 38                  A:A5 X:02 Y:BF P:A5 SP:FB CYC:  0
EE0B  20 7B FA  JSR $FA7B                       A:A5 X:02 Y:BF P:A5 SP:FB CYC:  0
FA7B  24 01     BIT $01 = FF                    A:A5 X:02 Y:BF P:A5 SP:F9 CYC:  0
FA7D  18        CLC                             A:A5 X:02 Y:BF P:E5 SP:F9 CYC:  0
FA7E  A9 B3     LDA #$B3                        A:A5 X:02 Y:BF P:E4 SP:F9 CYC:  0
FA80  60        RTS                             A:B3 X:02 Y:BF P:E4 SP:F9 CYC:  0
EE0E  03 45    *SLO ($45,X) @ 47 = 0647 = A5    A:B3 X:02 Y:BF P:E4 SP:FB CYC:  0
EE10  EA        NOP                             A:FB X:02 Y:BF P:E5 SP:FB CYC:  0
EE11  EA        NOP                             A:FB X:02 Y:BF P:E5 SP:FB CYC:  0
EE12  EA        NOP                             A:FB X:02 Y:BF P:E5 SP:FB CYC:  0
EE13  EA        NOP                             A:FB X:02 Y:BF P:E5 SP:FB CYC:  0
EE14  20 81 FA  JSR $FA81                       A:FB X:02 Y:BF P:E5 SP:FB CYC:  0
FA81  50 63     BVC $FAE6                       A:FB X:02 Y:BF P:E5 SP:F9 CYC:  0
FA83  90 61     BCC $FAE6                       A:FB X:02 Y:BF P:E5 SP:F9 CYC:  0
FA85  10 5F     BPL $FAE6                       A:FB X:02 Y:BF P:E5 SP:F9 CYC:  0
FA87  C9 FB     CMP #$FB                        A:FB X:02 Y:BF P:E5 SP:F9 CYC:  0
FA89  D0 5B     BNE $FAE6                       A:FB X:02 Y:BF P:67 SP:F9 CYC:  0
FA8B  60        RTS                             A:FB X:02 Y:BF P:67 SP:F9 CYC:  0
EE17  AD 47 06  LDA $0647 = 4A                  A:FB X:02 Y:BF P:67 SP:FB CYC:  0
EE1A  C9 4A     CMP #$4A                        A:4A X:02 Y:BF P:65 SP:FB CYC:  0
EE1C  F0 02     BEQ $EE20                       A:4A X:02 Y:BF P:67 SP:FB CYC:  0
EE20  C8        INY                             A:4A X:02 Y:BF P:67 SP:FB CYC:  0
EE21  A9 29     LDA #$29                        A:4A X:02 Y:C0 P:E5 SP:FB CYC:  0
EE23  8D 47 06  STA $0647 = 4A                  A:29 X:02 Y:C0 P:65 SP:FB CYC:  0
EE26  20 8C FA  JSR $FA8C                       A:29 X:02 Y:C0 P:65 SP:FB CYC:  0
FA8C  B8        CLV                             A:29 X:02 Y:C0 P:65 SP:F9 CYC:  0
FA8D  18        CLC                             A:29 X:02 Y:C0 P:25 SP:F9 CYC:  0
FA8E  A9 C3     LDA #$C3                        A:29 X:02 Y:C0 P:24 SP:F9 CYC:  0
FA90  60        RTS                             A:C3 X:02 Y:C0 P:A4 SP:F9 CYC:  0
EE29  03 45    *SLO ($45,X) @ 47 = 0647 = 29    A:C3 X:02 Y:C0 P:A4 SP:FB CYC:  0
EE2B  EA        NOP                             A:D3 X:02 Y:C0 P:A4 SP:FB CYC:  0
EE2C  EA        NOP                             A:D3 X:02 Y:C0 P:A4 SP:FB CYC:  0
EE2D  EA        NOP                             A:D3 X:02 Y:C0 P:A4 SP:FB CYC:  0
EE2E  EA        NOP                             A:D3 X:02 Y:C0 P:A4 SP:FB CYC:  0
EE2F  20 91 FA  JSR $FA91                       A:D3 X:02 Y:C0 P:A4 SP:FB CYC:  0
FA91  70 53     BVS $FAE6                       A:D3 X:02 Y:C0 P:A4 SP:F9 CYC:  0
FA93  F0 51     BEQ $FAE6                       A:D3 X:02 Y:C0 P:A4 SP:F9 CYC:  0
FA95  10 4F     BPL $FAE6                       A:D3 X:02 Y:C0 P:A4 SP:F9 CYC:  0
FA97  B0 4D     BCS $FAE6                       A:D3 X:02 Y:C0 P:A4 SP:F9 CYC:  0
FA99  C9 D3     CMP #$D3                        A:D3 X:02 Y:C0 P:A4 SP:F9 CYC:  0
FA9B  D0 49     BNE $FAE6                       A:D3 X:02 Y:C0 P:27 SP:F9 CYC:  0
FA9D  60        RTS                             A:D3 X:02 Y:C0 P:27 SP:F9 CYC:  0
EE32  AD 47 06  LDA $0647 = 52                  A:D3 X:02 Y:C0 P:27 SP:FB CYC:  0
EE35  C9 52     CMP #$52                        A:52 X:02 Y:C0 P:25 SP:FB CYC:  0
EE37  F0 02     BEQ $EE3B                       A:52 X:02 Y:C0 P:27 SP:FB CYC:  0
EE3B  C8        INY                             A:52 X:02 Y:C0 P:27 SP:FB CYC:  0
EE3C  A9 37     LDA #$37                        A:52 X:02 Y:C1 P:A5 SP:FB CYC:  0
EE3E  8D 47 06  STA $0647 = 52                  A:37 X:02 Y:C1 P:25 SP:FB CYC:  0
EE41  20 9E FA  JSR $FA9E                       A:37 X:02 Y:C1 P:25 SP:FB CYC:  0
FA9E  24 01     BIT $01 = FF                    A:37 X:02 Y:C1 P:25 SP:F9 CYC:  0
FAA0  38        SEC                             A:37 X:02 Y:C1 P:E5 SP:F9 CYC:  0
FAA1  A9 10     LDA #$10                        A:37 X:02 Y:C1 P:E5 SP:F9 CYC:  0
FAA3  60        RTS                             A:10 X:02 Y:C1 P:65 SP:F9 CYC:  0
EE44  03 45    *SLO ($45,X) @ 47 = 0647 = 37    A:10 X:02 Y:C1 P:65 SP:FB CYC:  0
EE46  EA        NOP                             A:7E X:02 Y:C1 P:64 SP:FB CYC:  0
EE47  EA        NOP                             A:7E X:02 Y:C1 P:64 SP:FB CYC:  0
EE48  EA        NOP                             A:7E X:02 Y:C1 P:64 SP:FB CYC:  0
EE49  EA        NOP                             A:7E X:02 Y:C1 P:64 SP:FB CYC:  0
EE4A  20 A4 FA  JSR $FAA4                       A:7E X:02 Y:C1 P:64 SP:FB CYC:  0
FAA4  50 40     BVC $FAE6                       A:7E X:02 Y:C1 P:64 SP:F9 CYC:  0
FAA6  F0 3E     BEQ $FAE6                       A:7E X:02 Y:C1 P:64 SP:F9 CYC:  0
FAA8  30 3C     BMI $FAE6                       A:7E X:02 Y:C1 P:64 SP:F9 CYC:  0
FAAA  B0 3A     BCS $FAE6                       A:7E X:02 Y:C1 P:64 SP:F9 CYC:  0
FAAC  C9 7E     CMP #$7E                        A:7E X:02 Y:C1 P:64 SP:F9 CYC:  0
FAAE  D0 36     BNE $FAE6                       A:7E X:02 Y:C1 P:67 SP:F9 CYC:  0
FAB0  60        RTS                             A:7E X:02 Y:C1 P:67 SP:F9 CYC:  0
EE4D  AD 47 06  LDA $0647 = 6E                  A:7E X:02 Y:C1 P:67 SP:FB CYC:  0
EE50  C9 6E     CMP #$6E                        A:6E X:02 Y:C1 P:65 SP:FB CYC:  0
EE52  F0 02     BEQ $EE56                       A:6E X:02 Y:C1 P:67 SP:FB CYC:  0
EE56  C8        INY                             A:6E X:02 Y:C1 P:67 SP:FB CYC:  0
EE57  A9 A5     LDA #$A5                        A:6E X:02 Y:C2 P:E5 SP:FB CYC:  0
EE59  85 47     STA $47 = 47                    A:A5 X:02 Y:C2 P:E5 SP:FB CYC:  0
EE5B  20 7B FA  JSR $FA7B                       A:A5 X:02 Y:C2 P:E5 SP:FB CYC:  0
FA7B  24 01     BIT $01 = FF                    A:A5 X:02 Y:C2 P:E5 SP:F9 CYC:  0
FA7D  18        CLC                             A:A5 X:02 Y:C2 P:E5 SP:F9 CYC:  0
FA7E  A9 B3     LDA #$B3                        A:A5 X:02 Y:C2 P:E4 SP:F9 CYC:  0
FA80  60        RTS                             A:B3 X:02 Y:C2 P:E4 SP:F9 CYC:  0
EE5E  07 47    *SLO $47 = A5                    A:B3 X:02 Y:C2 P:E4 SP:FB CYC:  0
EE60  EA        NOP                             A:FB X:02 Y:C2 P:E5 SP:FB CYC:  0
EE61  EA        NOP                             A:FB X:02 Y:C2 P:E5 SP:FB CYC:  0
EE62  EA        NOP                             A:FB X:02 Y:C2 P:E5 SP:FB CYC:  0
EE63  EA        NOP                             A:FB X:02 Y:C2 P:E5 SP:FB CYC:  0
EE64  20 81 FA  JSR $FA81                       A:FB X:02 Y:C2 P:E5 SP:FB CYC:  0
FA81  50 63     BVC $FAE6                       A:FB X:02 Y:C2 P:E5 SP:F9 CYC:  0
FA83  90 61     BCC $FAE6                       A:FB X:02 Y:C2 P:E5 SP:F9 CYC:  0
FA85  10 5F     BPL $FAE6                       A:FB X:02 Y:C2 P:E5 SP:F9 CYC:  0
FA87  C9 FB     CMP #$FB                        A:FB X:02 Y:C2 P:E5 SP:F9 CYC:  0
FA89  D0 5B     BNE $FAE6                       A:FB X:02 Y:C2 P:67 SP:F9 CYC:  0
FA8B  60        RTS                             A:FB X:02 Y:C2 P:67 SP:F9 CYC:  0
EE67  A5 47     LDA $47 = 4A                    A:FB X:02 Y:C2 P:67 SP:FB CYC:  0
EE69  C9 4A     CMP #$4A                        A:4A X:02 Y:C2 P:65 SP:FB CYC:  0
EE6B  F0 02     BEQ $EE6F                       A:4A X:02 Y:C2 P:67 SP:FB CYC:  0
EE6F  C8        INY                             A:4A X:02 Y:C2 P:67 SP:FB CYC:  0
EE70  A9 29     LDA #$29                        A:4A X:02 Y:C3 P:E5 SP:FB CYC:  0
EE72  85 47     STA $47 = 4A                    A:29 X:02 Y:C3 P:65 SP:FB CYC:  0
EE74  20 8C FA  JSR $FA8C                       A:29 X:02 Y:C3 P:65 SP:FB CYC:  0
FA8C  B8        CLV                             A:29 X:02 Y:C3 P:65 SP:F9 CYC:  0
FA8D  18        CLC                             A:29 X:02 Y:C3 P:25 SP:F9 CYC:  0
FA8E  A9 C3     LDA #$C3                        A:29 X:02 Y:C3 P:24 SP:F9 CYC:  0
FA90  60        RTS                             A:C3 X:02 Y:C3 P:A4 SP:F9 CYC:  0
EE77  07 47    *SLO $47 = 29                    A:C3 X:02 Y:C3 P:A4 SP:FB CYC:  0
EE79  EA        NOP                             A:D3 X:02 Y:C3 P:A4 SP:FB CYC:  0
EE7A  EA        NOP                             A:D3 X:02 Y:C3 P:A4 SP:FB CYC:  0
EE7B  EA        NOP                             A:D3 X:02 Y:C3 P:A4 SP:FB CYC:  0
EE7C  EA        NOP                             A:D3 X:02 Y:C3 P:A4 SP:FB CYC:  0
EE7D  20 91 FA  JSR $FA91                       A:D3 X:02 Y:C3 P:A4 SP:FB CYC:  0
FA91  70 53     BVS $FAE6                       A:D3 X:02 Y:C3 P:A4 SP:F9 CYC:  0
FA93  F0 51     BEQ $FAE6                       A:D3 X:02 Y:C3 P:A4 SP:F9 CYC:  0
FA95  10 4F     BPL $FAE6                       A:D3 X:02 Y:C3 P:A4 SP:F9 CYC:  0
FA97  B0 4D     BCS $FAE6                       A:D3 X:02 Y:C3 P:A4 SP:F9 CYC:  0
FA99  C9 D3     CMP #$D3                        A:D3 X:02 Y:C3 P:A4 SP:F9 CYC:  0
FA9B  D0 49     BNE $FAE6                       A:D3 X:02 Y:C3 P:27 SP:F9 CYC:  0
FA9D  60        RTS                             A:D3 X:02 Y:C3 P:27 SP:F9 CYC:  0
EE80  A5 47     LDA $47 = 52                    A:D3 X:02 Y:C3 P:27 SP:FB CYC:  0
EE82  C9 52     CMP #$52                        A:52 X:02 Y:C3 P:25 SP:FB CYC:  0
EE84  F0 02     BEQ $EE88                       A:52 X:02 Y:C3 P:27 SP:FB CYC:  0
EE88  C8        INY                             A:52 X:02 Y:C3 P:27 SP:FB CYC:  0
EE89  A9 37     LDA #$37                        A:52 X:02 Y:C4 P:A5 SP:FB CYC:  0
EE8B  85 47     STA $47 = 52                    A:37 X:02 Y:C4 P:25 SP:FB CYC:  0
EE8D  20 9E FA  JSR $FA9E                       A:37 X:02 Y:C4 P:25 SP:FB CYC:  0
FA9E  24 01     BIT $01 = FF                    A:37 X:02 Y:C4 P:25 SP:F9 CYC:  0
FAA0  38        SEC                             A:37 X:02 Y:C4 P:E5 SP:F9 CYC:  0
FAA1  A9 10     LDA #$10                        A:37 X:02 Y:C4 P:E5 SP:F9 CYC:  0
FAA3  60        RTS                             A:10 X:02 Y:C4 P:65 SP:F9 CYC:  0
EE90  07 47    *SLO $47 = 37                    A:10 X:02 Y:C4 P:65 SP:FB CYC:  0
EE92  EA        NOP                             A:7E X:02 Y:C4 P:64 SP:FB CYC:  0
EE93  EA        NOP                             A:7E X:02 Y:C4 P:64 SP:FB CYC:  0
EE94  EA        NOP                             A:7E X:02 Y:C4 P:64 SP:FB CYC:  0
EE95  EA        NOP                             A:7E X:02 Y:C4 P:64 SP:FB CYC:  0
EE96  20 A4 FA  JSR $FAA4                       A:7E X:02 Y:C4 P:64 SP:FB CYC:  0
FAA4  50 40     BVC $FAE6                       A:7E X:02 Y:C4 P:64 SP:F9 CYC:  0
FAA6  F0 3E     BEQ $FAE6                       A:7E X:02 Y:C4 P:64 SP:F9 CYC:  0
FAA8  30 3C     BMI $FAE6                       A:7E X:02 Y:C4 P:64 SP:F9 CYC:  0
FAAA  B0 3A     BCS $FAE6                       A:7E X:02 Y:C4 P:64 SP:F9 CYC:  0
FAAC  C9 7E     CMP #$7E                        A:7E X:02 Y:C4 P:64 SP:F9 CYC:  0
FAAE  D0 36     BNE $FAE6                       A:7E X:02 Y:C4 P:67 SP:F9 CYC:  0
FAB0  60        RTS                             A:7E X:02 Y:C4 P:67 SP:F9 CYC:  0
EE99  A5 47     LDA $47 = 6E                    A:7E X:02 Y:C4 P:67 SP:FB CYC:  0
EE9B  C9 6E     CMP #$6E                        A:6E X:02 Y:C4 P:65 SP:FB CYC:  0
EE9D  F0 02     BEQ $EEA1                       A:6E X:02 Y:C4 P:67 SP:FB CYC:  0
EEA1  C8        INY                             A:6E X:02 Y:C4 P:67 SP:FB CYC:  0
EEA2  A9 A5     LDA #$A5                        A:6E X:02 Y:C5 P:E5 SP:FB CYC:  0
EEA4  8D 47 06  STA $0647 = 6E                  A:A5 X:02 Y:C5 P:E5 SP:FB CYC:  0
EEA7  20 7B FA  JSR $FA7B                       A:A5 X:02 Y:C5 P:E5 SP:FB CYC:  0
FA7B  24 01     BIT $01 = FF                    A:A5 X:02 Y:C5 P:E5 SP:F9 CYC:  0
FA7D  18        CLC                             A:A5 X:02 Y:C5 P:E5 SP:F9 CYC:  0
FA7E  A9 B3     LDA #$B3                        A:A5 X:02 Y:C5 P:E4 SP:F9 CYC:  0
FA80  60        RTS                             A:B3 X:02 Y:C5 P:E4 SP:F9 CYC:  0
EEAA  0F 47 06 *SLO $0647 = A5                  A:B3 X:02 Y:C5 P:E4 SP:FB CYC:  0
EEAD  EA        NOP                             A:FB X:02 Y:C5 P:E5 SP:FB CYC:  0
EEAE  EA        NOP                             A:FB X:02 Y:C5 P:E5 SP:FB CYC:  0
EEAF  EA        NOP                             A:FB X:02 Y:C5 P:E5 SP:FB CYC:  0
EEB0  EA        NOP                             A:FB X:02 Y:C5 P:E5 SP:FB CYC:  0
EEB1  20 81 FA  JSR $FA81                       A:FB X:02 Y:C5 P:E5 SP:FB CYC:  0
FA81  50 63     BVC $FAE6                       A:FB X:02 Y:C5 P:E5 SP:F9 CYC:  0
FA83  90 61     BCC $FAE6                       A:FB X:02 Y:C5 P:E5 SP:F9 CYC:  0
FA85  10 5F     BPL $FAE6                       A:FB X:02 Y:C5 P:E5 SP:F9 CYC:  0
FA87  C9 FB     CMP #$FB                        A:FB X:02 Y:C5 P:E5 SP:F9 CYC:  0
FA89  D0 5B     BNE $FAE6                       A:FB X:02 Y:C5 P:67 SP:F9 CYC:  0
FA8B  60        RTS                             A:FB X:02 Y:C5 P:67 SP:F9 CYC:  0
EEB4  AD 47 06  LDA $0647 = 4A                  A:FB X:02 Y:C5 P:67 SP:FB CYC:  0
EEB7  C9 4A     CMP #$4A                        A:4A X:02 Y:C5 P:65 SP:FB CYC:  0
EEB9  F0 02     BEQ $EEBD                       A:4A X:02 Y:C5 P:67 SP:FB CYC:  0
EEBD  C8        INY                             A:4A X:02 Y:C5 P:67 SP:FB CYC:  0
EEBE  A9 29     LDA #$29                        A:4A X:02 Y:C6 P:E5 SP:FB CYC:  0
EEC0  8D 47 06  STA $0647 = 4A                  A:29 X:02 Y:C6 P:65 SP:FB CYC:  0
EEC3  20 8C FA  JSR $FA8C                       A:29 X:02 Y:C6 P:65 SP:FB CYC:  0
FA8C  B8        CLV                             A:29 X:02 Y:C6 P:65 SP:F9 CYC:  0
FA8D  18        CLC                             A:29 X:02 Y:C6 P:25 SP:F9 CYC:  0
FA8E  A9 C3     LDA #$C3                        A:29 X:02 Y:C6 P:24 SP:F9 CYC:  0
FA90  60        RTS                             A:C3 X:02 Y:C6 P:A4 SP:F9 CYC:  0
EEC6  0F 47 06 *SLO $0647 = 29                  A:C3 X:02 Y:C6 P:A4 SP:FB CYC:  0
EEC9  EA        NOP                             A:D3 X:02 Y:C6 P:A4 SP:FB CYC:  0
EECA  EA        NOP                             A:D3 X:02 Y:C6 P:A4 SP:FB CYC:  0
EECB  EA        NOP                             A:D3 X:02 Y:C6 P:A4 SP:FB CYC:  0
EECC  EA        NOP                             A:D3 X:02 Y:C6 P:A4 SP:FB CYC:  0
EECD  20 91 FA  JSR $FA91                       A:D3 X:02 Y:C6 P:A4 SP:FB CYC:  0
FA91  70 53     BVS $FAE6                       A:D3 X:02 Y:C6 P:A4 SP:F9 CYC:  0
FA93  F0 51     BEQ $FAE6                       A:D3 X:02 Y:C6 P:A4 SP:F9 CYC:  0
FA95  10 4F     BPL $FAE6                       A:D3 X:02 Y:C6 P:A4 SP:F9 CYC:  0
FA97  B0 4D     BCS $FAE6                       A:D3 X:02 Y:C6 P:A4 SP:F9 CYC:  0
FA99  C9 D3     CMP #$D3                        A:D3 X:02 Y:C6 P:A4 SP:F9 CYC:  0
FA9B  D0 49     BNE $FAE6                       A:D3 X:02 Y:C6 P:27 SP:F9 CYC:  0
FA9D  60        RTS                             A:D3 X:02 Y:C6 P:27 SP:F9 CYC:  0
EED0  AD 47 06  LDA $0647 = 52                  A:D3 X:02 Y:C6 P:27 SP:FB CYC:  0
EED3  C9 52     CMP #$52                        A:52 X:02 Y:C6 P:25 SP:FB CYC:  0
EED5  F0 02     BEQ $EED9                       A:52 X:02 Y:C6 P:27 SP:FB CYC:  0
EED9  C8        INY                             A:52 X:02 Y:C6 P:27 SP:FB CYC:  0
EEDA  A9 37     LDA #$37                        A:52 X:02 Y:C7 P:A5 SP:FB CYC:  0
EEDC  8D 47 06  STA $0647 = 52                  A:37 X:02 Y:C7 P:25 SP:FB CYC:  0
EEDF  20 9E FA  JSR $FA9E                       A:37 X:02 Y:C7 P:25 SP:FB CYC:  0
FA9E  24 01     BIT $01 = FF                    A:37 X:02 Y:C7 P:25 SP:F9 CYC:  0
FAA0  38        SEC                             A:37 X:02 Y:C7 P:E5 SP:F9 CYC:  0
FAA1  A9 10     LDA #$10                        A:37 X:02 Y:C7 P:E5 SP:F9 CYC:  0
FAA3  60        RTS                             A:10 X:02 Y:C7 P:65 SP:F9 CYC:  0
EEE2  0F 47 06 *SLO $0647 = 37                  A:10 X:02 Y:C7 P:65 SP:FB CYC:  0
EEE5  EA        NOP                             A:7E X:02 Y:C7 P:64 SP:FB CYC:  0
EEE6  EA        NOP                             A:7E X:02 Y:C7 P:64 SP:FB CYC:  0
EEE7  EA        NOP                             A:7E X:02 Y:C7 P:64 SP:FB CYC:  0
EEE8  EA        NOP                             A:7E X:02 Y:C7 P:64 SP:FB CYC:  0
EEE9  20 A4 FA  JSR $FAA4                       A:7E X:02 Y:C7 P:64 SP:FB CYC:  0
FAA4  50 40     BVC $FAE6                       A:7E X:02 Y:C7 P:64 SP:F9 CYC:  0
FAA6  F0 3E     BEQ $FAE6                       A:7E X:02 Y:C7 P:64 SP:F9 CYC:  0
FAA8  30 3C     BMI $FAE6                       A:7E X:02 Y:C7 P:64 SP:F9 CYC:  0
FAAA  B0 3A     BCS $FAE6                       A:7E X:02 Y:C7 P:64 SP:F9 CYC:  0
FAAC  C9 7E     CMP #$7E                        A:7E X:02 Y:C7 P:64 SP:F9 CYC:  0
FAAE  D0 36     BNE $FAE6                       A:7E X:02 Y:C7 P:67 SP:F9 CYC:  0
FAB0  60        RTS                             A:7E X:02 Y:C7 P:67 SP:F9 CYC:  0
EEEC  AD 47 06  LDA $0647 = 6E                  A:7E X:02 Y:C7 P:67 SP:FB CYC:  0
EEEF  C9 6E     CMP #$6E                        A:6E X:02 Y:C7 P:65 SP:FB CYC:  0
EEF1  F0 02     BEQ $EEF5                       A:6E X:02 Y:C7 P:67 SP:FB CYC:  0
EEF5  A9 A5     LDA #$A5                        A:6E X:02 Y:C7 P:67 SP:FB CYC:  0
EEF7  8D 47 06  STA $0647 = 6E                  A:A5 X:02 Y:C7 P:E5 SP:FB CYC:  0
EEFA  A9 48     LDA #$48                        A:A5 X:02 Y:C7 P:E5 SP:FB CYC:  0
EEFC  85 45     STA $45 = 48                    A:48 X:02 Y:C7 P:65 SP:FB CYC:  0
EEFE  A9 05     LDA #$05                        A:48 X:02 Y:C7 P:65 SP:FB CYC:  0
EF00  85 46     STA $46 = 05                    A:05 X:02 Y:C7 P:65 SP:FB CYC:  0
EF02  A0 FF     LDY #$FF                        A:05 X:02 Y:C7 P:65 SP:FB CYC:  0
EF04  20 7B FA  JSR $FA7B                       A:05 X:02 Y:FF P:E5 SP:FB CYC:  0
FA7B  24 01     BIT $01 = FF                    A:05 X:02 Y:FF P:E5 SP:F9 CYC:  0
FA7D  18        CLC                             A:05 X:02 Y:FF P:E5 SP:F9 CYC:  0
FA7E  A9 B3     LDA #$B3                        A:05 X:02 Y:FF P:E4 SP:F9 CYC:  0
FA80  60        RTS                             A:B3 X:02 Y:FF P:E4 SP:F9 CYC:  0
EF07  13 45    *SLO ($45),Y = 0548 @ 0647 = A5  A:B3 X:02 Y:FF P:E4 SP:FB CYC:  0
EF09  EA        NOP                             A:FB X:02 Y:FF P:E5 SP:FB CYC:  0
EF0A  EA        NOP                             A:FB X:02 Y:FF P:E5 SP:FB CYC:  0
EF0B  08        PHP                             A:FB X:02 Y:FF P:E5 SP:FB CYC:  0
EF0C  48        PHA                             A:FB X:02 Y:FF P:E5 SP:FA CYC:  0
EF0D  A0 C8     LDY #$C8                        A:FB X:02 Y:FF P:E5 SP:F9 CYC:  0
EF0F  68        PLA                             A:FB X:02 Y:C8 P:E5 SP:F9 CYC:  0
EF10  28        PLP                             A:FB X:02 Y:C8 P:E5 SP:FA CYC:  0
EF11  20 81 FA  JSR $FA81                       A:FB X:02 Y:C8 P:E5 SP:FB CYC:  0
FA81  50 63     BVC $FAE6                       A:FB X:02 Y:C8 P:E5 SP:F9 CYC:  0
FA83  90 61     BCC $FAE6                       A:FB X:02 Y:C8 P:E5 SP:F9 CYC:  0
FA85  10 5F     BPL $FAE6                       A:FB X:02 Y:C8 P:E5 SP:F9 CYC:  0
FA87  C9 FB     CMP #$FB                        A:FB X:02 Y:C8 P:E5 SP:F9 CYC:  0
FA89  D0 5B     BNE $FAE6                       A:FB X:02 Y:C8 P:67 SP:F9 CYC:  0
FA8B  60        RTS                             A:FB X:02 Y:C8 P:67 SP:F9 CYC:  0
EF14  AD 47 06  LDA $0647 = 4A                  A:FB X:02 Y:C8 P:67 SP:FB CYC:  0
EF17  C9 4A     CMP #$4A                        A:4A X:02 Y:C8 P:65 SP:FB CYC:  0
EF19  F0 02     BEQ $EF1D                       A:4A X:02 Y:C8 P:67 SP:FB CYC:  0
EF1D  A0 FF     LDY #$FF                        A:4A X:02 Y:C8 P:67 SP:FB CYC:  0
EF1F  A9 29     LDA #$29                        A:4A X:02 Y:FF P:E5 SP:FB CYC:  0
EF21  8D 47 06  STA $0647 = 4A                  A:29 X:02 Y:FF P:65 SP:FB CYC:  0
EF24  20 8C FA  JSR $FA8C                       A:29 X:02 Y:FF P:65 SP:FB CYC:  0
FA8C  B8        CLV                             A:29 X:02 Y:FF P:65 SP:F9 CYC:  0
FA8D  18        CLC                             A:29 X:02 Y:FF P:25 SP:F9 CYC:  0
FA8E  A9 C3     LDA #$C3                        A:29 X:02 Y:FF P:24 SP:F9 CYC:  0
FA90  60        RTS                             A:C3 X:02 Y:FF P:A4 SP:F9 CYC:  0
EF27  13 45    *SLO ($45),Y = 0548 @ 0647 = 29  A:C3 X:02 Y:FF P:A4 SP:FB CYC:  0
EF29  EA        NOP                             A:D3 X:02 Y:FF P:A4 SP:FB CYC:  0
EF2A  EA        NOP                             A:D3 X:02 Y:FF P:A4 SP:FB CYC:  0
EF2B  08        PHP                             A:D3 X:02 Y:FF P:A4 SP:FB CYC:  0
EF2C  48        PHA                             A:D3 X:02 Y:FF P:A4 SP:FA CYC:  0
EF2D  A0 C9     LDY #$C9                        A:D3 X:02 Y:FF P:A4 SP:F9 CYC:  0
EF2F  68        PLA                             A:D3 X:02 Y:C9 P:A4 SP:F9 CYC:  0
EF30  28        PLP                             A:D3 X:02 Y:C9 P:A4 SP:FA CYC:  0
EF31  20 91 FA  JSR $FA91                       A:D3 X:02 Y:C9 P:A4 SP:FB CYC:  0
FA91  70 53     BVS $FAE6                       A:D3 X:02 Y:C9 P:A4 SP:F9 CYC:  0
FA93  F0 51     BEQ $FAE6                       A:D3 X:02 Y:C9 P:A4 SP:F9 CYC:  0
FA95  10 4F     BPL $FAE6                       A:D3 X:02 Y:C9 P:A4 SP:F9 CYC:  0
FA97  B0 4D     BCS $FAE6                       A:D3 X:02 Y:C9 P:A4 SP:F9 CYC:  0
FA99  C9 D3     CMP #$D3                        A:D3 X:02 Y:C9 P:A4 SP:F9 CYC:  0
FA9B  D0 49     BNE $FAE6                       A:D3 X:02 Y:C9 P:27 SP:F9 CYC:  0
FA9D  60        RTS                             A:D3 X:02 Y:C9 P:27 SP:F9 CYC:  0
EF34  AD 47 06  LDA $0647 = 52                  A:D3 X:02 Y:C9 P:27 SP:FB CYC:  0
EF37  C9 52     CMP #$52                        A:52 X:02 Y:C9 P:25 SP:FB CYC:  0
EF39  F0 02     BEQ $EF3D                       A:52 X:02 Y:C9 P:27 SP:FB CYC:  0
EF3D  A0 FF     LDY #$FF                        A:52 X:02 Y:C9 P:27 SP:FB CYC:  0
EF3F  A9 37     LDA #$37                        A:52 X:02 Y:FF P:A5 SP:FB CYC:  0
EF41  8D 47 06  STA $0647 = 52                  A:37 X:02 Y:FF P:25 SP:FB CYC:  0
EF44  20 9E FA  JSR $FA9E                       A:37 X:02 Y:FF P:25 SP:FB CYC:  0
FA9E  24 01     BIT $01 = FF                    A:37 X:02 Y:FF P:25 SP:F9 CYC:  0
FAA0  38        SEC                             A:37 X:02 Y:FF P:E5 SP:F9 CYC:  0
FAA1  A9 10     LDA #$10                        A:37 X:02 Y:FF P:E5 SP:F9 CYC:  0
FAA3  60        RTS                             A:10 X:02 Y:FF P:65 SP:F9 CYC:  0
EF47  13 45    *SLO ($45),Y = 0548 @ 0647 = 37  A:10 X:02 Y:FF P:65 SP:FB CYC:  0
EF49  EA        NOP                             A:7E X:02 Y:FF P:64 SP:FB CYC:  0
EF4A  EA        NOP                             A:7E X:02 Y:FF P:64 SP:FB CYC:  0
EF4B  08        PHP                             A:7E X:02 Y:FF P:64 SP:FB CYC:  0
EF4C  48        PHA                             A:7E X:02 Y:FF P:64 SP:FA CYC:  0
EF4D  A0 CA     LDY #$CA                        A:7E X:02 Y:FF P:64 SP:F9 CYC:  0
EF4F  68        PLA                             A:7E X:02 Y:CA P:E4 SP:F9 CYC:  0
EF50  28        PLP                             A:7E X:02 Y:CA P:64 SP:FA CYC:  0
EF51  20 A4 FA  JSR $FAA4                       A:7E X:02 Y:CA P:64 SP:FB CYC:  0
FAA4  50 40     BVC $FAE6                       A:7E X:02 Y:CA P:64 SP:F9 CYC:  0
FAA6  F0 3E     BEQ $FAE6                       A:7E X:02 Y:CA P:64 SP:F9 CYC:  0
FAA8  30 3C     BMI $FAE6                       A:7E X:02 Y:CA P:64 SP:F9 CYC:  0
FAAA  B0 3A     BCS $FAE6                       A:7E X:02 Y:CA P:64 SP:F9 CYC:  0
FAAC  C9 7E     CMP #$7E                        A:7E X:02 Y:CA P:64 SP:F9 CYC:  0
FAAE  D0 36     BNE $FAE6                       A:7E X:02 Y:CA P:67 SP:F9 CYC:  0
FAB0  60        RTS                             A:7E X:02 Y:CA P:67 SP:F9 CYC:  0
EF54  AD 47 06  LDA $0647 = 6E                  A:7E X:02 Y:CA P:67 SP:FB CYC:  0
EF57  C9 6E     CMP #$6E                        A:6E X:02 Y:CA P:65 SP:FB CYC:  0
EF59  F0 02     BEQ $EF5D                       A:6E X:02 Y:CA P:67 SP:FB CYC:  0
EF5D  A0 CB     LDY #$CB                        A:6E X:02 Y:CA P:67 SP:FB CYC:  0
EF5F  A2 FF     LDX #$FF                        A:6E X:02 Y:CB P:E5 SP:FB CYC:  0
EF61  A9 A5     LDA #$A5                        A:6E X:FF Y:CB P:E5 SP:FB CYC:  0
EF63  85 47     STA $47 = 6E                    A:A5 X:FF Y:CB P:E5 SP:FB CYC:  0
EF65  20 7B FA  JSR $FA7B                       A:A5 X:FF Y:CB P:E5 SP:FB CYC:  0
FA7B  24 01     BIT $01 = FF                    A:A5 X:FF Y:CB P:E5 SP:F9 CYC:  0
FA7D  18        CLC                             A:A5 X:FF Y:CB P:E5 SP:F9 CYC:  0
FA7E  A9 B3     LDA #$B3                        A:A5 X:FF Y:CB P:E4 SP:F9 CYC:  0
FA80  60        RTS                             A:B3 X:FF Y:CB P:E4 SP:F9 CYC:  0
EF68  17 48    *SLO $48,X @ 47 = A5             A:B3 X:FF Y:CB P:E4 SP:FB CYC:  0
EF6A  EA        NOP                             A:FB X:FF Y:CB P:E5 SP:FB CYC:  0
EF6B  EA        NOP                             A:FB X:FF Y:CB P:E5 SP:FB CYC:  0
EF6C  EA        NOP                             A:FB X:FF Y:CB P:E5 SP:FB CYC:  0
EF6D  EA        NOP                             A:FB X:FF Y:CB P:E5 SP:FB CYC:  0
EF6E  20 81 FA  JSR $FA81                       A:FB X:FF Y:CB P:E5 SP:FB CYC:  0
FA81  50 63     BVC $FAE6                       A:FB X:FF Y:CB P:E5 SP:F9 CYC:  0
FA83  90 61     BCC $FAE6                       A:FB X:FF Y:CB P:E5 SP:F9 CYC:  0
FA85  10 5F     BPL $FAE6                       A:FB X:FF Y:CB P:E5 SP:F9 CYC:  0
FA87  C9 FB     CMP #$FB                        A:FB X:FF Y:CB P:E5 SP:F9 CYC:  0
FA89  D0 5B     BNE $FAE6                       A:FB X:FF Y:CB P:67 SP:F9 CYC:  0
FA8B  60        RTS                             A:FB X:FF Y:CB P:67 SP:F9 CYC:  0
EF71  A5 47     LDA $47 = 4A                    A:FB X:FF Y:CB P:67 SP:FB CYC:  0
EF73  C9 4A     CMP #$4A                        A:4A X:FF Y:CB P:65 SP:FB CYC:  0
EF75  F0 02     BEQ $EF79                       A:4A X:FF Y:CB P:67 SP:FB CYC:  0
EF79  C8        INY                             A:4A X:FF Y:CB P:67 SP:FB CYC:  0
EF7A  A9 29     LDA #$29                        A:4A X:FF Y:CC P:E5 SP:FB CYC:  0
EF7C  85 47     STA $47 = 4A                    A:29 X:FF Y:CC P:65 SP:FB CYC:  0
EF7E  20 8C FA  JSR $FA8C                       A:29 X:FF Y:CC P:65 SP:FB CYC:  0
FA8C  B8        CLV                             A:29 X:FF Y:CC P:65 SP:F9 CYC:  0
FA8D  18        CLC                             A:29 X:FF Y:CC P:25 SP:F9 CYC:  0
FA8E  A9 C3     LDA #$C3                        A:29 X:FF Y:CC P:24 SP:F9 CYC:  0
FA90  60        RTS                             A:C3 X:FF Y:CC P:A4 SP:F9 CYC:  0
EF81  17 48    *SLO $48,X @ 47 = 29             A:C3 X:FF Y:CC P:A4 SP:FB CYC:  0
EF83  EA        NOP                             A:D3 X:FF Y:CC P:A4 SP:FB CYC:  0
EF84  EA        NOP                             A:D3 X:FF Y:CC P:A4 SP:FB CYC:  0
EF85  EA        NOP                             A:D3 X:FF Y:CC P:A4 SP:FB CYC:  0
EF86  EA        NOP                             A:D3 X:FF Y:CC P:A4 SP:FB CYC:  0
EF87  20 91 FA  JSR $FA91                       A:D3 X:FF Y:CC P:A4 SP:FB CYC:  0
FA91  70 53     BVS $FAE6                       A:D3 X:FF Y:CC P:A4 SP:F9 CYC:  0
FA93  F0 51     BEQ $FAE6                       A:D3 X:FF Y:CC P:A4 SP:F9 CYC:  0
FA95  10 4F     BPL $FAE6                       A:D3 X:FF Y:CC P:A4 SP:F9 CYC:  0
FA97  B0 4D     BCS $FAE6                       A:D3 X:FF Y:CC P:A4 SP:F9 CYC:  0
FA99  C9 D3     CMP #$D3                        A:D3 X:FF Y:CC P:A4 SP:F9 CYC:  0
FA9B  D0 49     BNE $FAE6                       A:D3 X:FF Y:CC P:27 SP:F9 CYC:  0
FA9D  60        RTS                             A:D3 X:FF Y:CC P:27 SP:F9 CYC:  0
EF8A  A5 47     LDA $47 = 52                    A:D3 X:FF Y:CC P:27 SP:FB CYC:  0
EF8C  C9 52     CMP #$52                        A:52 X:FF Y:CC P:25 SP:FB CYC:  0
EF8E  F0 02     BEQ $EF92                       A:52 X:FF Y:CC P:27 SP:FB CYC:  0
EF92  C8        INY                             A:52 X:FF Y:CC P:27 SP:FB CYC:  0
EF93  A9 37     LDA #$37                        A:52 X:FF Y:CD P:A5 SP:FB CYC:  0
EF95  85 47     STA $47 = 52                    A:37 X:FF Y:CD P:25 SP:FB CYC:  0
EF97  20 9E FA  JSR $FA9E                       A:37 X:FF Y:CD P:25 SP:FB CYC:  0
FA9E  24 01     BIT $01 = FF                    A:37 X:FF Y:CD P:25 SP:F9 CYC:  0
FAA0  38        SEC                             A:37 X:FF Y:CD P:E5 SP:F9 CYC:  0
FAA1  A9 10     LDA #$10                        A:37 X:FF Y:CD P:E5 SP:F9 CYC:  0
FAA3  60        RTS                             A:10 X:FF Y:CD P:65 SP:F9 CYC:  0
EF9A  17 48    *SLO $48,X @ 47 = 37             A:10 X:FF Y:CD P:65 SP:FB CYC:  0
EF9C  EA        NOP                             A:7E X:FF Y:CD P:64 SP:FB CYC:  0
EF9D  EA        NOP                             A:7E X:FF Y:CD P:64 SP:FB CYC:  0
EF9E  EA        NOP                             A:7E X:FF Y:CD P:64 SP:FB CYC:  0
EF9F  EA        NOP                             A:7E X:FF Y:CD P:64 SP:FB CYC:  0
EFA0  20 A4 FA  JSR $FAA4                       A:7E X:FF Y:CD P:64 SP:FB CYC:  0
FAA4  50 40     BVC $FAE6                       A:7E X:FF Y:CD P:64 SP:F9 CYC:  0
FAA6  F0 3E     BEQ $FAE6                       A:7E X:FF Y:CD P:64 SP:F9 CYC:  0
FAA8  30 3C     BMI $FAE6                       A:7E X:FF Y:CD P:64 SP:F9 CYC:  0
FAAA  B0 3A     BCS $FAE6                       A:7E X:FF Y:CD P:64 SP:F9 CYC:  0
FAAC  C9 7E     CMP #$7E                        A:7E X:FF Y:CD P:64 SP:F9 CYC:  0
FAAE  D0 36     BNE $FAE6                       A:7E X:FF Y:CD P:67 SP:F9 CYC:  0
FAB0  60        RTS                             A:7E X:FF Y:CD P:67 SP:F9 CYC:  0
EFA3  A5 47     LDA $47 = 6E                    A:7E X:FF Y:CD P:67 SP:FB CYC:  0
EFA5  C9 6E     CMP #$6E                        A:6E X:FF Y:CD P:65 SP:FB CYC:  0
EFA7  F0 02     BEQ $EFAB                       A:6E X:FF Y:CD P:67 SP:FB CYC:  0
EFAB  A9 A5     LDA #$A5                        A:6E X:FF Y:CD P:67 SP:FB CYC:  0
EFAD  8D 47 06  STA $0647 = 6E                  A:A5 X:FF Y:CD P:E5 SP:FB CYC:  0
EFB0  A0 FF     LDY #$FF                        A:A5 X:FF Y:CD P:E5 SP:FB CYC:  0
EFB2  20 7B FA  JSR $FA7B                       A:A5 X:FF Y:FF P:E5 SP:FB CYC:  0
FA7B  24 01     BIT $01 = FF                    A:A5 X:FF Y:FF P:E5 SP:F9 CYC:  0
FA7D  18        CLC                             A:A5 X:FF Y:FF P:E5 SP:F9 CYC:  0
FA7E  A9 B3     LDA #$B3                        A:A5 X:FF Y:FF P:E4 SP:F9 CYC:  0
FA80  60        RTS                             A:B3 X:FF Y:FF P:E4 SP:F9 CYC:  0
EFB5  1B 48 05 *SLO $0548,Y @ 0647 = A5         A:B3 X:FF Y:FF P:E4 SP:FB CYC:  0
EFB8  EA        NOP                             A:FB X:FF Y:FF P:E5 SP:FB CYC:  0
EFB9  EA        NOP                             A:FB X:FF Y:FF P:E5 SP:FB CYC:  0
EFBA  08        PHP                             A:FB X:FF Y:FF P:E5 SP:FB CYC:  0
EFBB  48        PHA                             A:FB X:FF Y:FF P:E5 SP:FA CYC:  0
EFBC  A0 CE     LDY #$CE                        A:FB X:FF Y:FF P:E5 SP:F9 CYC:  0
EFBE  68        PLA                             A:FB X:FF Y:CE P:E5 SP:F9 CYC:  0
EFBF  28        PLP                             A:FB X:FF Y:CE P:E5 SP:FA CYC:  0
EFC0  20 81 FA  JSR $FA81                       A:FB X:FF Y:CE P:E5 SP:FB CYC:  0
FA81  50 63     BVC $FAE6                       A:FB X:FF Y:CE P:E5 SP:F9 CYC:  0
FA83  90 61     BCC $FAE6                       A:FB X:FF Y:CE P:E5 SP:F9 CYC:  0
FA85  10 5F     BPL $FAE6                       A:FB X:FF Y:CE P:E5 SP:F9 CYC:  0
FA87  C9 FB     CMP #$FB                        A:FB X:FF Y:CE P:E5 SP:F9 CYC:  0
FA89  D0 5B     BNE $FAE6                       A:FB X:FF Y:CE P:67 SP:F9 CYC:  0
FA8B  60        RTS                             A:FB X:FF Y:CE P:67 SP:F9 CYC:  0
EFC3  AD 47 06  LDA $0647 = 4A                  A:FB X:FF Y:CE P:67 SP:FB CYC:  0
EFC6  C9 4A     CMP #$4A                        A:4A X:FF Y:CE P:65 SP:FB CYC:  0
EFC8  F0 02     BEQ $EFCC                       A:4A X:FF Y:CE P:67 SP:FB CYC:  0
EFCC  A0 FF     LDY #$FF                        A:4A X:FF Y:CE P:67 SP:FB CYC:  0
EFCE  A9 29     LDA #$29                        A:4A X:FF Y:FF P:E5 SP:FB CYC:  0
EFD0  8D 47 06  STA $0647 = 4A                  A:29 X:FF Y:FF P:65 SP:FB CYC:  0
EFD3  20 8C FA  JSR $FA8C                       A:29 X:FF Y:FF P:65 SP:FB CYC:  0
FA8C  B8        CLV                             A:29 X:FF Y:FF P:65 SP:F9 CYC:  0
FA8D  18        CLC                             A:29 X:FF Y:FF P:25 SP:F9 CYC:  0
FA8E  A9 C3     LDA #$C3                        A:29 X:FF Y:FF P:24 SP:F9 CYC:  0
FA90  60        RTS                             A:C3 X:FF Y:FF P:A4 SP:F9 CYC:  0
EFD6  1B 48 05 *SLO $0548,Y @ 0647 = 29         A:C3 X:FF Y:FF P:A4 SP:FB CYC:  0
EFD9  EA        NOP                             A:D3 X:FF Y:FF P:A4 SP:FB CYC:  0
EFDA  EA        NOP                             A:D3 X:FF Y:FF P:A4 SP:FB CYC:  0
EFDB  08        PHP                             A:D3 X:FF Y:FF P:A4 SP:FB CYC:  0
EFDC  48        PHA                             A:D3 X:FF Y:FF P:A4 SP:FA CYC:  0
EFDD  A0 CF     LDY #$CF                        A:D3 X:FF Y:FF P:A4 SP:F9 CYC:  0
EFDF  68        PLA                             A:D3 X:FF Y:CF P:A4 SP:F9 CYC:  0
EFE0  28        PLP                             A:D3 X:FF Y:CF P:A4 SP:FA CYC:  0
EFE1  20 91 FA  JSR $FA91                       A:D3 X:FF Y:CF P:A4 SP:FB CYC:  0
FA91  70 53     BVS $FAE6                       A:D3 X:FF Y:CF P:A4 SP:F9 CYC:  0
FA93  F0 51     BEQ $FAE6                       A:D3 X:FF Y:CF P:A4 SP:F9 CYC:  0
FA95  10 4F     BPL $FAE6                       A:D3 X:FF Y:CF P:A4 SP:F9 CYC:  0
FA97  B0 4D     BCS $FAE6                       A:D3 X:FF Y:CF P:A4 SP:F9 CYC:  0
FA99  C9 D3     CMP #$D3                        A:D3 X:FF Y:CF P:A4 SP:F9 CYC:  0
FA9B  D0 49     BNE $FAE6                       A:D3 X:FF Y:CF P:27 SP:F9 CYC:  0
FA9D  60        RTS                             A:D3 X:FF Y:CF P:27 SP:F9 CYC:  0
EFE4  AD 47 06  LDA $0647 = 52                  A:D3 X:FF Y:CF P:27 SP:FB CYC:  0
EFE7  C9 52     CMP #$52                        A:52 X:FF Y:CF P:25 SP:FB CYC:  0
EFE9  F0 02     BEQ $EFED                       A:52 X:FF Y:CF P:27 SP:FB CYC:  0
EFED  A0 FF     LDY #$FF                        A:52 X:FF Y:CF P:27 SP:FB CYC:  0
EFEF  A9 37     LDA #$37                        A:52 X:FF Y:FF P:A5 SP:FB CYC:  0
EFF1  8D 47 06  STA $0647 = 52                  A:37 X:FF Y:FF P:25 SP:FB CYC:  0
EFF4  20 9E FA  JSR $FA9E                       A:37 X:FF Y:FF P:25 SP:FB CYC:  0
FA9E  24 01     BIT $01 = FF                    A:37 X:FF Y:FF P:25 SP:F9 CYC:  0
FAA0  38        SEC                             A:37 X:FF Y:FF P:E5 SP:F9 CYC:  0
FAA1  A9 10     LDA #$10                        A:37 X:FF Y:FF P:E5 SP:F9 CYC:  0
FAA3  60        RTS                             A:10 X:FF Y:FF P:65 SP:F9 CYC:  0
EFF7  1B 48 05 *SLO $0548,Y @ 0647 = 37         A:10 X:FF Y:FF P:65 SP:FB CYC:  0
EFFA  EA        NOP                             A:7E X:FF Y:FF P:64 SP:FB CYC:  0
EFFB  EA        NOP                             A:7E X:FF Y:FF P:64 SP:FB CYC:  0
EFFC  08        PHP                             A:7E X:FF Y:FF P:64 SP:FB CYC:  0
EFFD  48        PHA                             A:7E X:FF Y:FF P:64 SP:FA CYC:  0
EFFE  A0 D0     LDY #$D0                        A:7E X:FF Y:FF P:64 SP:F9 CYC:  0
F000  68        PLA                             A:7E X:FF Y:D0 P:E4 SP:F9 CYC:  0
F001  28        PLP                             A:7E X:FF Y:D0 P:64 SP:FA CYC:  0
F002  20 A4 FA  JSR $FAA4                       A:7E X:FF Y:D0 P:64 SP:FB CYC:  0
FAA4  50 40     BVC $FAE6                       A:7E X:FF Y:D0 P:64 SP:F9 CYC:  0
FAA6  F0 3E     BEQ $FAE6                       A:7E X:FF Y:D0 P:64 SP:F9 CYC:  0
FAA8  30 3C     BMI $FAE6                       A:7E X:FF Y:D0 P:64 SP:F9 CYC:  0
FAAA  B0 3A     BCS $FAE6                       A:7E X:FF Y:D0 P:64 SP:F9 CYC:  0
FAAC  C9 7E     CMP #$7E                        A:7E X:FF Y:D0 P:64 SP:F9 CYC:  0
FAAE  D0 36     BNE $FAE6                       A:7E X:FF Y:D0 P:67 SP:F9 CYC:  0
FAB0  60        RTS                             A:7E X:FF Y:D0 P:67 SP:F9 CYC:  0
F005  AD 47 06  LDA $0647 = 6E                  A:7E X:FF Y:D0 P:67 SP:FB CYC:  0
F008  C9 6E     CMP #$6E                        A:6E X:FF Y:D0 P:65 SP:FB CYC:  0
F00A  F0 02     BEQ $F00E                       A:6E X:FF Y:D0 P:67 SP:FB CYC:  0
F00E  A0 D1     LDY #$D1                        A:6E X:FF Y:D0 P:67 SP:FB CYC:  0
F010  A2 FF     LDX #$FF                        A:6E X:FF Y:D1 P:E5 SP:FB CYC:  0
F012  A9 A5     LDA #$A5                        A:6E X:FF Y:D1 P:E5 SP:FB CYC:  0
F014  8D 47 06  STA $0647 = 6E                  A:A5 X:FF Y:D1 P:E5 SP:FB CYC:  0
F017  20 7B FA  JSR $FA7B                       A:A5 X:FF Y:D1 P:E5 SP:FB CYC:  0
FA7B  24 01     BIT $01 = FF                    A:A5 X:FF Y:D1 P:E5 SP:F9 CYC:  0
FA7D  18        CLC                             A:A5 X:FF Y:D1 P:E5 SP:F9 CYC:  0
FA7E  A9 B3     LDA #$B3                        A:A5 X:FF Y:D1 P:E4 SP:F9 CYC:  0
FA80  60        RTS                             A:B3 X:FF Y:D1 P:E4 SP:F9 CYC:  0
F01A  1F 48 05 *SLO $0548,X @ 0647 = A5         A:B3 X:FF Y:D1 P:E4 SP:FB CYC:  0
F01D  EA        NOP                             A:FB X:FF Y:D1 P:E5 SP:FB CYC:  0
F01E  EA        NOP                             A:FB X:FF Y:D1 P:E5 SP:FB CYC:  0
F01F  EA        NOP                             A:FB X:FF Y:D1 P:E5 SP:FB CYC:  0
F020  EA        NOP                             A:FB X:FF Y:D1 P:E5 SP:FB CYC:  0
F021  20 81 FA  JSR $FA81                       A:FB X:FF Y:D1 P:E5 SP:FB CYC:  0
FA81  50 63     BVC $FAE6                       A:FB X:FF Y:D1 P:E5 SP:F9 CYC:  0
FA83  90 61     BCC $FAE6                       A:FB X:FF Y:D1 P:E5 SP:F9 CYC:  0
FA85  10 5F     BPL $FAE6                       A:FB X:FF Y:D1 P:E5 SP:F9 CYC:  0
FA87  C9 FB     CMP #$FB                        A:FB X:FF Y:D1 P:E5 SP:F9 CYC:  0
FA89  D0 5B     BNE $FAE6                       A:FB X:FF Y:D1 P:67 SP:F9 CYC:  0
FA8B  60        RTS                             A:FB X:FF Y:D1 P:67 SP:F9 CYC:  0
F024  AD 47 06  LDA $0647 = 4A                  A:FB X:FF Y:D1 P:67 SP:FB CYC:  0
F027  C9 4A     CMP #$4A                        A:4A X:FF Y:D1 P:65 SP:FB CYC:  0
F029  F0 02     BEQ $F02D                       A:4A X:FF Y:D1 P:67 SP:FB CYC:  0
F02D  C8        INY                             A:4A X:FF Y:D1 P:67 SP:FB CYC:  0
F02E  A9 29     LDA #$29                        A:4A X:FF Y:D2 P:E5 SP:FB CYC:  0
F030  8D 47 06  STA $0647 = 4A                  A:29 X:FF Y:D2 P:65 SP:FB CYC:  0
F033  20 8C FA  JSR $FA8C                       A:29 X:FF Y:D2 P:65 SP:FB CYC:  0
FA8C  B8        CLV                             A:29 X:FF Y:D2 P:65 SP:F9 CYC:  0
FA8D  18        CLC                             A:29 X:FF Y:D2 P:25 SP:F9 CYC:  0
FA8E  A9 C3     LDA #$C3                        A:29 X:FF Y:D2 P:24 SP:F9 CYC:  0
FA90  60        RTS                             A:C3 X:FF Y:D2 P:A4 SP:F9 CYC:  0
F036  1F 48 05 *SLO $0548,X @ 0647 = 29         A:C3 X:FF Y:D2 P:A4 SP:FB CYC:  0
F039  EA        NOP                             A:D3 X:FF Y:D2 P:A4 SP:FB CYC:  0
F03A  EA        NOP                             A:D3 X:FF Y:D2 P:A4 SP:FB CYC:  0
F03B  EA        NOP                             A:D3 X:FF Y:D2 P:A4 SP:FB CYC:  0
F03C  EA        NOP                             A:D3 X:FF Y:D2 P:A4 SP:FB CYC:  0
F03D  20 91 FA  JSR $FA91                       A:D3 X:FF Y:D2 P:A4 SP:FB CYC:  0
FA91  70 53     BVS $FAE6                       A:D3 X:FF Y:D2 P:A4 SP:F9 CYC:  0
FA93  F0 51     BEQ $FAE6                       A:D3 X:FF Y:D2 P:A4 SP:F9 CYC:  0
FA95  10 4F     BPL $FAE6                       A:D3 X:FF Y:D2 P:A4 SP:F9 CYC:  0
FA97  B0 4D     BCS $FAE6                       A:D3 X:FF Y:D2 P:A4 SP:F9 CYC:  0
FA99  C9 D3     CMP #$D3                        A:D3 X:FF Y:D2 P:A4 SP:F9 CYC:  0
FA9B  D0 49     BNE $FAE6                       A:D3 X:FF Y:D2 P:27 SP:F9 CYC:  0
FA9D  60        RTS                             A:D3 X:FF Y:D2 P:27 SP:F9 CYC:  0
F040  AD 47 06  LDA $0647 = 52                  A:D3 X:FF Y:D2 P:27 SP:FB CYC:  0
F043  C9 52     CMP #$52                        A:52 X:FF Y:D2 P:25 SP:FB CYC:  0
F045  F0 02     BEQ $F049                       A:52 X:FF Y:D2 P:27 SP:FB CYC:  0
F049  C8        INY                             A:52 X:FF Y:D2 P:27 SP:FB CYC:  0
F04A  A9 37     LDA #$37                        A:52 X:FF Y:D3 P:A5 SP:FB CYC:  0
F04C  8D 47 06  STA $0647 = 52                  A:37 X:FF Y:D3 P:25 SP:FB CYC:  0
F04F  20 9E FA  JSR $FA9E                       A:37 X:FF Y:D3 P:25 SP:FB CYC:  0
FA9E  24 01     BIT $01 = FF                    A:37 X:FF Y:D3 P:25 SP:F9 CYC:  0
FAA0  38        SEC                             A:37 X:FF Y:D3 P:E5 SP:F9 CYC:  0
FAA1  A9 10     LDA #$10                        A:37 X:FF Y:D3 P:E5 SP:F9 CYC:  0
FAA3  60        RTS                             A:10 X:FF Y:D3 P:65 SP:F9 CYC:  0
F052  1F 48 05 *SLO $0548,X @ 0647 = 37         A:10 X:FF Y:D3 P:65 SP:FB CYC:  0
F055  EA        NOP                             A:7E X:FF Y:D3 P:64 SP:FB CYC:  0
F056  EA        NOP                             A:7E X:FF Y:D3 P:64 SP:FB CYC:  0
F057  EA        NOP                             A:7E X:FF Y:D3 P:64 SP:FB CYC:  0
F058  EA        NOP                             A:7E X:FF Y:D3 P:64 SP:FB CYC:  0
F059  20 A4 FA  JSR $FAA4                       A:7E X:FF Y:D3 P:64 SP:FB CYC:  0
FAA4  50 40     BVC $FAE6                       A:7E X:FF Y:D3 P:64 SP:F9 CYC:  0
FAA6  F0 3E     BEQ $FAE6                       A:7E X:FF Y:D3 P:64 SP:F9 CYC:  0
FAA8  30 3C     BMI $FAE6                       A:7E X:FF Y:D3 P:64 SP:F9 CYC:  0
FAAA  B0 3A     BCS $FAE6                       A:7E X:FF Y:D3 P:64 SP:F9 CYC:  0
FAAC  C9 7E     CMP #$7E                        A:7E X:FF Y:D3 P:64 SP:F9 CYC:  0
FAAE  D0 36     BNE $FAE6                       A:7E X:FF Y:D3 P:67 SP:F9 CYC:  0
FAB0  60        RTS                             A:7E X:FF Y:D3 P:67 SP:F9 CYC:  0
F05C  AD 47 06  LDA $0647 = 6E                  A:7E X:FF Y:D3 P:67 SP:FB CYC:  0
F05F  C9 6E     CMP #$6E                        A:6E X:FF Y:D3 P:65 SP:FB CYC:  0
F061  F0 02     BEQ $F065                       A:6E X:FF Y:D3 P:67 SP:FB CYC:  0
F065  60        RTS                             A:6E X:FF Y:D3 P:67 SP:FB CYC:  0
C644  20 66 F0  JSR $F066                       A:6E X:FF Y:D3 P:67 SP:FD CYC:  0
F066  A9 FF     LDA #$FF                        A:6E X:FF Y:D3 P:67 SP:FB CYC:  0
F068  85 01     STA $01 = FF                    A:FF X:FF Y:D3 P:E5 SP:FB CYC:  0
F06A  A0 D4     LDY #$D4                        A:FF X:FF Y:D3 P:E5 SP:FB CYC:  0
F06C  A2 02     LDX #$02                        A:FF X:FF Y:D4 P:E5 SP:FB CYC:  0
F06E  A9 47     LDA #$47                        A:FF X:02 Y:D4 P:65 SP:FB CYC:  0
F070  85 47     STA $47 = 6E                    A:47 X:02 Y:D4 P:65 SP:FB CYC:  0
F072  A9 06     LDA #$06                        A:47 X:02 Y:D4 P:65 SP:FB CYC:  0
F074  85 48     STA $48 = 06                    A:06 X:02 Y:D4 P:65 SP:FB CYC:  0
F076  A9 A5     LDA #$A5                        A:06 X:02 Y:D4 P:65 SP:FB CYC:  0
F078  8D 47 06  STA $0647 = 6E                  A:A5 X:02 Y:D4 P:E5 SP:FB CYC:  0
F07B  20 53 FB  JSR $FB53                       A:A5 X:02 Y:D4 P:E5 SP:FB CYC:  0
FB53  24 01     BIT $01 = FF                    A:A5 X:02 Y:D4 P:E5 SP:F9 CYC:  0
FB55  18        CLC                             A:A5 X:02 Y:D4 P:E5 SP:F9 CYC:  0
FB56  A9 B3     LDA #$B3                        A:A5 X:02 Y:D4 P:E4 SP:F9 CYC:  0
FB58  60        RTS                             A:B3 X:02 Y:D4 P:E4 SP:F9 CYC:  0
F07E  23 45    *RLA ($45,X) @ 47 = 0647 = A5    A:B3 X:02 Y:D4 P:E4 SP:FB CYC:  0
F080  EA        NOP                             A:02 X:02 Y:D4 P:65 SP:FB CYC:  0
F081  EA        NOP                             A:02 X:02 Y:D4 P:65 SP:FB CYC:  0
F082  EA        NOP                             A:02 X:02 Y:D4 P:65 SP:FB CYC:  0
F083  EA        NOP                             A:02 X:02 Y:D4 P:65 SP:FB CYC:  0
F084  20 59 FB  JSR $FB59                       A:02 X:02 Y:D4 P:65 SP:FB CYC:  0
FB59  50 1A     BVC $FB75                       A:02 X:02 Y:D4 P:65 SP:F9 CYC:  0
FB5B  90 18     BCC $FB75                       A:02 X:02 Y:D4 P:65 SP:F9 CYC:  0
FB5D  30 16     BMI $FB75                       A:02 X:02 Y:D4 P:65 SP:F9 CYC:  0
FB5F  C9 02     CMP #$02                        A:02 X:02 Y:D4 P:65 SP:F9 CYC:  0
FB61  D0 12     BNE $FB75                       A:02 X:02 Y:D4 P:67 SP:F9 CYC:  0
FB63  60        RTS                             A:02 X:02 Y:D4 P:67 SP:F9 CYC:  0
F087  AD 47 06  LDA $0647 = 4A                  A:02 X:02 Y:D4 P:67 SP:FB CYC:  0
F08A  C9 4A     CMP #$4A                        A:4A X:02 Y:D4 P:65 SP:FB CYC:  0
F08C  F0 02     BEQ $F090                       A:4A X:02 Y:D4 P:67 SP:FB CYC:  0
F090  C8        INY                             A:4A X:02 Y:D4 P:67 SP:FB CYC:  0
F091  A9 29     LDA #$29                        A:4A X:02 Y:D5 P:E5 SP:FB CYC:  0
F093  8D 47 06  STA $0647 = 4A                  A:29 X:02 Y:D5 P:65 SP:FB CYC:  0
F096  20 64 FB  JSR $FB64                       A:29 X:02 Y:D5 P:65 SP:FB CYC:  0
FB64  B8        CLV                             A:29 X:02 Y:D5 P:65 SP:F9 CYC:  0
FB65  18        CLC                             A:29 X:02 Y:D5 P:25 SP:F9 CYC:  0
FB66  A9 42     LDA #$42                        A:29 X:02 Y:D5 P:24 SP:F9 CYC:  0
FB68  60        RTS                             A:42 X:02 Y:D5 P:24 SP:F9 CYC:  0
F099  23 45    *RLA ($45,X) @ 47 = 0647 = 29    A:42 X:02 Y:D5 P:24 SP:FB CYC:  0
F09B  EA        NOP                             A:42 X:02 Y:D5 P:24 SP:FB CYC:  0
F09C  EA        NOP                             A:42 X:02 Y:D5 P:24 SP:FB CYC:  0
F09D  EA        NOP                             A:42 X:02 Y:D5 P:24 SP:FB CYC:  0
F09E  EA        NOP                             A:42 X:02 Y:D5 P:24 SP:FB CYC:  0
F09F  20 69 FB  JSR $FB69                       A:42 X:02 Y:D5 P:24 SP:FB CYC:  0
FB69  70 0A     BVS $FB75                       A:42 X:02 Y:D5 P:24 SP:F9 CYC:  0
FB6B  F0 08     BEQ $FB75                       A:42 X:02 Y:D5 P:24 SP:F9 CYC:  0
FB6D  30 06     BMI $FB75                       A:42 X:02 Y:D5 P:24 SP:F9 CYC:  0
FB6F  B0 04     BCS $FB75                       A:42 X:02 Y:D5 P:24 SP:F9 CYC:  0
FB71  C9 42     CMP #$42                        A:42 X:02 Y:D5 P:24 SP:F9 CYC:  0
FB73  F0 02     BEQ $FB77                       A:42 X:02 Y:D5 P:27 SP:F9 CYC:  0
FB77  60        RTS                             A:42 X:02 Y:D5 P:27 SP:F9 CYC:  0
F0A2  AD 47 06  LDA $0647 = 52                  A:42 X:02 Y:D5 P:27 SP:FB CYC:  0
F0A5  C9 52     CMP #$52                        A:52 X:02 Y:D5 P:25 SP:FB CYC:  0
F0A7  F0 02     BEQ $F0AB                       A:52 X:02 Y:D5 P:27 SP:FB CYC:  0
F0AB  C8        INY                             A:52 X:02 Y:D5 P:27 SP:FB CYC:  0
F0AC  A9 37     LDA #$37                        A:52 X:02 Y:D6 P:A5 SP:FB CYC:  0
F0AE  8D 47 06  STA $0647 = 52                  A:37 X:02 Y:D6 P:25 SP:FB CYC:  0
F0B1  20 68 FA  JSR $FA68                       A:37 X:02 Y:D6 P:25 SP:FB CYC:  0
FA68  24 01     BIT $01 = FF                    A:37 X:02 Y:D6 P:25 SP:F9 CYC:  0
FA6A  38        SEC                             A:37 X:02 Y:D6 P:E5 SP:F9 CYC:  0
FA6B  A9 75     LDA #$75                        A:37 X:02 Y:D6 P:E5 SP:F9 CYC:  0
FA6D  60        RTS                             A:75 X:02 Y:D6 P:65 SP:F9 CYC:  0
F0B4  23 45    *RLA ($45,X) @ 47 = 0647 = 37    A:75 X:02 Y:D6 P:65 SP:FB CYC:  0
F0B6  EA        NOP                             A:65 X:02 Y:D6 P:64 SP:FB CYC:  0
F0B7  EA        NOP                             A:65 X:02 Y:D6 P:64 SP:FB CYC:  0
F0B8  EA        NOP                             A:65 X:02 Y:D6 P:64 SP:FB CYC:  0
F0B9  EA        NOP                             A:65 X:02 Y:D6 P:64 SP:FB CYC:  0
F0BA  20 6E FA  JSR $FA6E                       A:65 X:02 Y:D6 P:64 SP:FB CYC:  0
FA6E  50 76     BVC $FAE6                       A:65 X:02 Y:D6 P:64 SP:F9 CYC:  0
FA70  F0 74     BEQ $FAE6                       A:65 X:02 Y:D6 P:64 SP:F9 CYC:  0
FA72  30 72     BMI $FAE6                       A:65 X:02 Y:D6 P:64 SP:F9 CYC:  0
FA74  B0 70     BCS $FAE6                       A:65 X:02 Y:D6 P:64 SP:F9 CYC:  0
FA76  C9 65     CMP #$65                        A:65 X:02 Y:D6 P:64 SP:F9 CYC:  0
FA78  D0 6C     BNE $FAE6                       A:65 X:02 Y:D6 P:67 SP:F9 CYC:  0
FA7A  60        RTS                             A:65 X:02 Y:D6 P:67 SP:F9 CYC:  0
F0BD  AD 47 06  LDA $0647 = 6F                  A:65 X:02 Y:D6 P:67 SP:FB CYC:  0
F0C0  C9 6F     CMP #$6F                        A:6F X:02 Y:D6 P:65 SP:FB CYC:  0
F0C2  F0 02     BEQ $F0C6                       A:6F X:02 Y:D6 P:67 SP:FB CYC:  0
F0C6  C8        INY                             A:6F X:02 Y:D6 P:67 SP:FB CYC:  0
F0C7  A9 A5     LDA #$A5                        A:6F X:02 Y:D7 P:E5 SP:FB CYC:  0
F0C9  85 47     STA $47 = 47                    A:A5 X:02 Y:D7 P:E5 SP:FB CYC:  0
F0CB  20 53 FB  JSR $FB53                       A:A5 X:02 Y:D7 P:E5 SP:FB CYC:  0
FB53  24 01     BIT $01 = FF                    A:A5 X:02 Y:D7 P:E5 SP:F9 CYC:  0
FB55  18        CLC                             A:A5 X:02 Y:D7 P:E5 SP:F9 CYC:  0
FB56  A9 B3     LDA #$B3                        A:A5 X:02 Y:D7 P:E4 SP:F9 CYC:  0
FB58  60        RTS                             A:B3 X:02 Y:D7 P:E4 SP:F9 CYC:  0
F0CE  27 47    *RLA $47 = A5                    A:B3 X:02 Y:D7 P:E4 SP:FB CYC:  0
F0D0  EA        NOP                             A:02 X:02 Y:D7 P:65 SP:FB CYC:  0
F0D1  EA        NOP                             A:02 X:02 Y:D7 P:65 SP:FB CYC:  0
F0D2  EA        NOP                             A:02 X:02 Y:D7 P:65 SP:FB CYC:  0
F0D3  EA        NOP                             A:02 X:02 Y:D7 P:65 SP:FB CYC:  0
F0D4  20 59 FB  JSR $FB59                       A:02 X:02 Y:D7 P:65 SP:FB CYC:  0
FB59  50 1A     BVC $FB75                       A:02 X:02 Y:D7 P:65 SP:F9 CYC:  0
FB5B  90 18     BCC $FB75                       A:02 X:02 Y:D7 P:65 SP:F9 CYC:  0
FB5D  30 16     BMI $FB75                       A:02 X:02 Y:D7 P:65 SP:F9 CYC:  0
FB5F  C9 02     CMP #$02                        A:02 X:02 Y:D7 P:65 SP:F9 CYC:  0
FB61  D0 12     BNE $FB75                       A:02 X:02 Y:D7 P:67 SP:F9 CYC:  0
FB63  60        RTS                             A:02 X:02 Y:D7 P:67 SP:F9 CYC:  0
F0D7  A5 47     LDA $47 = 4A                    A:02 X:02 Y:D7 P:67 SP:FB CYC:  0
F0D9  C9 4A     CMP #$4A                        A:4A X:02 Y:D7 P:65 SP:FB CYC:  0
F0DB  F0 02     BEQ $F0DF                       A:4A X:02 Y:D7 P:67 SP:FB CYC:  0
F0DF  C8        INY                             A:4A X:02 Y:D7 P:67 SP:FB CYC:  0
F0E0  A9 29     LDA #$29                        A:4A X:02 Y:D8 P:E5 SP:FB CYC:  0
F0E2  85 47     STA $47 = 4A                    A:29 X:02 Y:D8 P:65 SP:FB CYC:  0
F0E4  20 64 FB  JSR $FB64                       A:29 X:02 Y:D8 P:65 SP:FB CYC:  0
FB64  B8        CLV                             A:29 X:02 Y:D8 P:65 SP:F9 CYC:  0
FB65  18        CLC                             A:29 X:02 Y:D8 P:25 SP:F9 CYC:  0
FB66  A9 42     LDA #$42                        A:29 X:02 Y:D8 P:24 SP:F9 CYC:  0
FB68  60        RTS                             A:42 X:02 Y:D8 P:24 SP:F9 CYC:  0
F0E7  27 47    *RLA $47 = 29                    A:42 X:02 Y:D8 P:24 SP:FB CYC:  0
F0E9  EA        NOP                             A:42 X:02 Y:D8 P:24 SP:FB CYC:  0
F0EA  EA        NOP                             A:42 X:02 Y:D8 P:24 SP:FB CYC:  0
F0EB  EA        NOP                             A:42 X:02 Y:D8 P:24 SP:FB CYC:  0
F0EC  EA        NOP                             A:42 X:02 Y:D8 P:24 SP:FB CYC:  0
F0ED  20 69 FB  JSR $FB69                       A:42 X:02 Y:D8 P:24 SP:FB CYC:  0
FB69  70 0A     BVS $FB75                       A:42 X:02 Y:D8 P:24 SP:F9 CYC:  0
FB6B  F0 08     BEQ $FB75                       A:42 X:02 Y:D8 P:24 SP:F9 CYC:  0
FB6D  30 06     BMI $FB75                       A:42 X:02 Y:D8 P:24 SP:F9 CYC:  0
FB6F  B0 04     BCS $FB75                       A:42 X:02 Y:D8 P:24 SP:F9 CYC:  0
FB71  C9 42     CMP #$42                        A:42 X:02 Y:D8 P:24 SP:F9 CYC:  0
FB73  F0 02     BEQ $FB77                       A:42 X:02 Y:D8 P:27 SP:F9 CYC:  0
FB77  60        RTS                             A:42 X:02 Y:D8 P:27 SP:F9 CYC:  0
F0F0  A5 47     LDA $47 = 52                    A:42 X:02 Y:D8 P:27 SP:FB CYC:  0
F0F2  C9 52     CMP #$52                        A:52 X:02 Y:D8 P:25 SP:FB CYC:  0
F0F4  F0 02     BEQ $F0F8                       A:52 X:02 Y:D8 P:27 SP:FB CYC:  0
F0F8  C8        INY                             A:52 X:02 Y:D8 P:27 SP:FB CYC:  0
F0F9  A9 37     LDA #$37                        A:52 X:02 Y:D9 P:A5 SP:FB CYC:  0
F0FB  85 47     STA $47 = 52                    A:37 X:02 Y:D9 P:25 SP:FB CYC:  0
F0FD  20 68 FA  JSR $FA68                       A:37 X:02 Y:D9 P:25 SP:FB CYC:  0
FA68  24 01     BIT $01 = FF                    A:37 X:02 Y:D9 P:25 SP:F9 CYC:  0
FA6A  38        SEC                             A:37 X:02 Y:D9 P:E5 SP:F9 CYC:  0
FA6B  A9 75     LDA #$75                        A:37 X:02 Y:D9 P:E5 SP:F9 CYC:  0
FA6D  60        RTS                             A:75 X:02 Y:D9 P:65 SP:F9 CYC:  0
F100  27 47    *RLA $47 = 37                    A:75 X:02 Y:D9 P:65 SP:FB CYC:  0
F102  EA        NOP                             A:65 X:02 Y:D9 P:64 SP:FB CYC:  0
F103  EA        NOP                             A:65 X:02 Y:D9 P:64 SP:FB CYC:  0
F104  EA        NOP                             A:65 X:02 Y:D9 P:64 SP:FB CYC:  0
F105  EA        NOP                             A:65 X:02 Y:D9 P:64 SP:FB CYC:  0
F106  20 6E FA  JSR $FA6E                       A:65 X:02 Y:D9 P:64 SP:FB CYC:  0
FA6E  50 76     BVC $FAE6                       A:65 X:02 Y:D9 P:64 SP:F9 CYC:  0
FA70  F0 74     BEQ $FAE6                       A:65 X:02 Y:D9 P:64 SP:F9 CYC:  0
FA72  30 72     BMI $FAE6                       A:65 X:02 Y:D9 P:64 SP:F9 CYC:  0
FA74  B0 70     BCS $FAE6                       A:65 X:02 Y:D9 P:64 SP:F9 CYC:  0
FA76  C9 65     CMP #$65                        A:65 X:02 Y:D9 P:64 SP:F9 CYC:  0
FA78  D0 6C     BNE $FAE6                       A:65 X:02 Y:D9 P:67 SP:F9 CYC:  0
FA7A  60        RTS                             A:65 X:02 Y:D9 P:67 SP:F9 CYC:  0
F109  A5 47     LDA $47 = 6F                    A:65 X:02 Y:D9 P:67 SP:FB CYC:  0
F10B  C9 6F     CMP #$6F                        A:6F X:02 Y:D9 P:65 SP:FB CYC:  0
F10D  F0 02     BEQ $F111                       A:6F X:02 Y:D9 P:67 SP:FB CYC:  0
F111  C8        INY                             A:6F X:02 Y:D9 P:67 SP:FB CYC:  0
F112  A9 A5     LDA #$A5                        A:6F X:02 Y:DA P:E5 SP:FB CYC:  0
F114  8D 47 06  STA $0647 = 6F                  A:A5 X:02 Y:DA P:E5 SP:FB CYC:  0
F117  20 53 FB  JSR $FB53                       A:A5 X:02 Y:DA P:E5 SP:FB CYC:  0
FB53  24 01     BIT $01 = FF                    A:A5 X:02 Y:DA P:E5 SP:F9 CYC:  0
FB55  18        CLC                             A:A5 X:02 Y:DA P:E5 SP:F9 CYC:  0
FB56  A9 B3     LDA #$B3                        A:A5 X:02 Y:DA P:E4 SP:F9 CYC:  0
FB58  60        RTS                             A:B3 X:02 Y:DA P:E4 SP:F9 CYC:  0
F11A  2F 47 06 *RLA $0647 = A5                  A:B3 X:02 Y:DA P:E4 SP:FB CYC:  0
F11D  EA        NOP                             A:02 X:02 Y:DA P:65 SP:FB CYC:  0
F11E  EA        NOP                             A:02 X:02 Y:DA P:65 SP:FB CYC:  0
F11F  EA        NOP                             A:02 X:02 Y:DA P:65 SP:FB CYC:  0
F120  EA        NOP                             A:02 X:02 Y:DA P:65 SP:FB CYC:  0
F121  20 59 FB  JSR $FB59                       A:02 X:02 Y:DA P:65 SP:FB CYC:  0
FB59  50 1A     BVC $FB75                       A:02 X:02 Y:DA P:65 SP:F9 CYC:  0
FB5B  90 18     BCC $FB75                       A:02 X:02 Y:DA P:65 SP:F9 CYC:  0
FB5D  30 16     BMI $FB75                       A:02 X:02 Y:DA P:65 SP:F9 CYC:  0
FB5F  C9 02     CMP #$02                        A:02 X:02 Y:DA P:65 SP:F9 CYC:  0
FB61  D0 12     BNE $FB75                       A:02 X:02 Y:DA P:67 SP:F9 CYC:  0
FB63  60        RTS                             A:02 X:02 Y:DA P:67 SP:F9 CYC:  0
F124  AD 47 06  LDA $0647 = 4A                  A:02 X:02 Y:DA P:67 SP:FB CYC:  0
F127  C9 4A     CMP #$4A                        A:4A X:02 Y:DA P:65 SP:FB CYC:  0
F129  F0 02     BEQ $F12D                       A:4A X:02 Y:DA P:67 SP:FB CYC:  0
F12D  C8        INY                             A:4A X:02 Y:DA P:67 SP:FB CYC:  0
F12E  A9 29     LDA #$29                        A:4A X:02 Y:DB P:E5 SP:FB CYC:  0
F130  8D 47 06  STA $0647 = 4A                  A:29 X:02 Y:DB P:65 SP:FB CYC:  0
F133  20 64 FB  JSR $FB64                       A:29 X:02 Y:DB P:65 SP:FB CYC:  0
FB64  B8        CLV                             A:29 X:02 Y:DB P:65 SP:F9 CYC:  0
FB65  18        CLC                             A:29 X:02 Y:DB P:25 SP:F9 CYC:  0
FB66  A9 42     LDA #$42                        A:29 X:02 Y:DB P:24 SP:F9 CYC:  0
FB68  60        RTS                             A:42 X:02 Y:DB P:24 SP:F9 CYC:  0
F136  2F 47 06 *RLA $0647 = 29                  A:42 X:02 Y:DB P:24 SP:FB CYC:  0
F139  EA        NOP                             A:42 X:02 Y:DB P:24 SP:FB CYC:  0
F13A  EA        NOP                             A:42 X:02 Y:DB P:24 SP:FB CYC:  0
F13B  EA        NOP                             A:42 X:02 Y:DB P:24 SP:FB CYC:  0
F13C  EA        NOP                             A:42 X:02 Y:DB P:24 SP:FB CYC:  0
F13D  20 69 FB  JSR $FB69                       A:42 X:02 Y:DB P:24 SP:FB CYC:  0
FB69  70 0A     BVS $FB75                       A:42 X:02 Y:DB P:24 SP:F9 CYC:  0
FB6B  F0 08     BEQ $FB75                       A:42 X:02 Y:DB P:24 SP:F9 CYC:  0
FB6D  30 06     BMI $FB75                       A:42 X:02 Y:DB P:24 SP:F9 CYC:  0
FB6F  B0 04     BCS $FB75                       A:42 X:02 Y:DB P:24 SP:F9 CYC:  0
FB71  C9 42     CMP #$42                        A:42 X:02 Y:DB P:24 SP:F9 CYC:  0
FB73  F0 02     BEQ $FB77                       A:42 X:02 Y:DB P:27 SP:F9 CYC:  0
FB77  60        RTS                             A:42 X:02 Y:DB P:27 SP:F9 CYC:  0
F140  AD 47 06  LDA $0647 = 52                  A:42 X:02 Y:DB P:27 SP:FB CYC:  0
F143  C9 52     CMP #$52                        A:52 X:02 Y:DB P:25 SP:FB CYC:  0
F145  F0 02     BEQ $F149                       A:52 X:02 Y:DB P:27 SP:FB CYC:  0
F149  C8        INY                             A:52 X:02 Y:DB P:27 SP:FB CYC:  0
F14A  A9 37     LDA #$37                        A:52 X:02 Y:DC P:A5 SP:FB CYC:  0
F14C  8D 47 06  STA $0647 = 52                  A:37 X:02 Y:DC P:25 SP:FB CYC:  0
F14F  20 68 FA  JSR $FA68                       A:37 X:02 Y:DC P:25 SP:FB CYC:  0
FA68  24 01     BIT $01 = FF                    A:37 X:02 Y:DC P:25 SP:F9 CYC:  0
FA6A  38        SEC                             A:37 X:02 Y:DC P:E5 SP:F9 CYC:  0
FA6B  A9 75     LDA #$75                        A:37 X:02 Y:DC P:E5 SP:F9 CYC:  0
FA6D  60        RTS                             A:75 X:02 Y:DC P:65 SP:F9 CYC:  0
F152  2F 47 06 *RLA $0647 = 37                  A:75 X:02 Y:DC P:65 SP:FB CYC:  0
F155  EA        NOP                             A:65 X:02 Y:DC P:64 SP:FB CYC:  0
F156  EA        NOP                             A:65 X:02 Y:DC P:64 SP:FB CYC:  0
F157  EA        NOP                             A:65 X:02 Y:DC P:64 SP:FB CYC:  0
F158  EA        NOP                             A:65 X:02 Y:DC P:64 SP:FB CYC:  0
F159  20 6E FA  JSR $FA6E                       A:65 X:02 Y:DC P:64 SP:FB CYC:  0
FA6E  50 76     BVC $FAE6                       A:65 X:02 Y:DC P:64 SP:F9 CYC:  0
FA70  F0 74     BEQ $FAE6                       A:65 X:02 Y:DC P:64 SP:F9 CYC:  0
FA72  30 72     BMI $FAE6                       A:65 X:02 Y:DC P:64 SP:F9 CYC:  0
FA74  B0 70     BCS $FAE6                       A:65 X:02 Y:DC P:64 SP:F9 CYC:  0
FA76  C9 65     CMP #$65                        A:65 X:02 Y:DC P:64 SP:F9 CYC:  0
FA78  D0 6C     BNE $FAE6                       A:65 X:02 Y:DC P:67 SP:F9 CYC:  0
FA7A  60        RTS                             A:65 X:02 Y:DC P:67 SP:F9 CYC:  0
F15C  AD 47 06  LDA $0647 = 6F                  A:65 X:02 Y:DC P:67 SP:FB CYC:  0
F15F  C9 6F     CMP #$6F                        A:6F X:02 Y:DC P:65 SP:FB CYC:  0
F161  F0 02     BEQ $F165                       A:6F X:02 Y:DC P:67 SP:FB CYC:  0
F165  A9 A5     LDA #$A5                        A:6F X:02 Y:DC P:67 SP:FB CYC:  0
F167  8D 47 06  STA $0647 = 6F                  A:A5 X:02 Y:DC P:E5 SP:FB CYC:  0
F16A  A9 48     LDA #$48                        A:A5 X:02 Y:DC P:E5 SP:FB CYC:  0
F16C  85 45     STA $45 = 48                    A:48 X:02 Y:DC P:65 SP:FB CYC:  0
F16E  A9 05     LDA #$05                        A:48 X:02 Y:DC P:65 SP:FB CYC:  0
F170  85 46     STA $46 = 05                    A:05 X:02 Y:DC P:65 SP:FB CYC:  0
F172  A0 FF     LDY #$FF                        A:05 X:02 Y:DC P:65 SP:FB CYC:  0
F174  20 53 FB  JSR $FB53                       A:05 X:02 Y:FF P:E5 SP:FB CYC:  0
FB53  24 01     BIT $01 = FF                    A:05 X:02 Y:FF P:E5 SP:F9 CYC:  0
FB55  18        CLC                             A:05 X:02 Y:FF P:E5 SP:F9 CYC:  0
FB56  A9 B3     LDA #$B3                        A:05 X:02 Y:FF P:E4 SP:F9 CYC:  0
FB58  60        RTS                             A:B3 X:02 Y:FF P:E4 SP:F9 CYC:  0
F177  33 45    *RLA ($45),Y = 0548 @ 0647 = A5  A:B3 X:02 Y:FF P:E4 SP:FB CYC:  0
F179  EA        NOP                             A:02 X:02 Y:FF P:65 SP:FB CYC:  0
F17A  EA        NOP                             A:02 X:02 Y:FF P:65 SP:FB CYC:  0
F17B  08        PHP                             A:02 X:02 Y:FF P:65 SP:FB CYC:  0
F17C  48        PHA                             A:02 X:02 Y:FF P:65 SP:FA CYC:  0
F17D  A0 DD     LDY #$DD                        A:02 X:02 Y:FF P:65 SP:F9 CYC:  0
F17F  68        PLA                             A:02 X:02 Y:DD P:E5 SP:F9 CYC:  0
F180  28        PLP                             A:02 X:02 Y:DD P:65 SP:FA CYC:  0
F181  20 59 FB  JSR $FB59                       A:02 X:02 Y:DD P:65 SP:FB CYC:  0
FB59  50 1A     BVC $FB75                       A:02 X:02 Y:DD P:65 SP:F9 CYC:  0
FB5B  90 18     BCC $FB75                       A:02 X:02 Y:DD P:65 SP:F9 CYC:  0
FB5D  30 16     BMI $FB75                       A:02 X:02 Y:DD P:65 SP:F9 CYC:  0
FB5F  C9 02     CMP #$02                        A:02 X:02 Y:DD P:65 SP:F9 CYC:  0
FB61  D0 12     BNE $FB75                       A:02 X:02 Y:DD P:67 SP:F9 CYC:  0
FB63  60        RTS                             A:02 X:02 Y:DD P:67 SP:F9 CYC:  0
F184  AD 47 06  LDA $0647 = 4A                  A:02 X:02 Y:DD P:67 SP:FB CYC:  0
F187  C9 4A     CMP #$4A                        A:4A X:02 Y:DD P:65 SP:FB CYC:  0
F189  F0 02     BEQ $F18D                       A:4A X:02 Y:DD P:67 SP:FB CYC:  0
F18D  A0 FF     LDY #$FF                        A:4A X:02 Y:DD P:67 SP:FB CYC:  0
F18F  A9 29     LDA #$29                        A:4A X:02 Y:FF P:E5 SP:FB CYC:  0
F191  8D 47 06  STA $0647 = 4A                  A:29 X:02 Y:FF P:65 SP:FB CYC:  0
F194  20 64 FB  JSR $FB64                       A:29 X:02 Y:FF P:65 SP:FB CYC:  0
FB64  B8        CLV                             A:29 X:02 Y:FF P:65 SP:F9 CYC:  0
FB65  18        CLC                             A:29 X:02 Y:FF P:25 SP:F9 CYC:  0
FB66  A9 42     LDA #$42                        A:29 X:02 Y:FF P:24 SP:F9 CYC:  0
FB68  60        RTS                             A:42 X:02 Y:FF P:24 SP:F9 CYC:  0
F197  33 45    *RLA ($45),Y = 0548 @ 0647 = 29  A:42 X:02 Y:FF P:24 SP:FB CYC:  0
F199  EA        NOP                             A:42 X:02 Y:FF P:24 SP:FB CYC:  0
F19A  EA        NOP                             A:42 X:02 Y:FF P:24 SP:FB CYC:  0
F19B  08        PHP                             A:42 X:02 Y:FF P:24 SP:FB CYC:  0
F19C  48        PHA                             A:42 X:02 Y:FF P:24 SP:FA CYC:  0
F19D  A0 DE     LDY #$DE                        A:42 X:02 Y:FF P:24 SP:F9 CYC:  0
F19F  68        PLA                             A:42 X:02 Y:DE P:A4 SP:F9 CYC:  0
F1A0  28        PLP                             A:42 X:02 Y:DE P:24 SP:FA CYC:  0
F1A1  20 69 FB  JSR $FB69                       A:42 X:02 Y:DE P:24 SP:FB CYC:  0
FB69  70 0A     BVS $FB75                       A:42 X:02 Y:DE P:24 SP:F9 CYC:  0
FB6B  F0 08     BEQ $FB75                       A:42 X:02 Y:DE P:24 SP:F9 CYC:  0
FB6D  30 06     BMI $FB75                       A:42 X:02 Y:DE P:24 SP:F9 CYC:  0
FB6F  B0 04     BCS $FB75                       A:42 X:02 Y:DE P:24 SP:F9 CYC:  0
FB71  C9 42     CMP #$42                        A:42 X:02 Y:DE P:24 SP:F9 CYC:  0
FB73  F0 02     BEQ $FB77                       A:42 X:02 Y:DE P:27 SP:F9 CYC:  0
FB77  60        RTS                             A:42 X:02 Y:DE P:27 SP:F9 CYC:  0
F1A4  AD 47 06  LDA $0647 = 52                  A:42 X:02 Y:DE P:27 SP:FB CYC:  0
F1A7  C9 52     CMP #$52                        A:52 X:02 Y:DE P:25 SP:FB CYC:  0
F1A9  F0 02     BEQ $F1AD                       A:52 X:02 Y:DE P:27 SP:FB CYC:  0
F1AD  A0 FF     LDY #$FF                        A:52 X:02 Y:DE P:27 SP:FB CYC:  0
F1AF  A9 37     LDA #$37                        A:52 X:02 Y:FF P:A5 SP:FB CYC:  0
F1B1  8D 47 06  STA $0647 = 52                  A:37 X:02 Y:FF P:25 SP:FB CYC:  0
F1B4  20 68 FA  JSR $FA68                       A:37 X:02 Y:FF P:25 SP:FB CYC:  0
FA68  24 01     BIT $01 = FF                    A:37 X:02 Y:FF P:25 SP:F9 CYC:  0
FA6A  38        SEC                             A:37 X:02 Y:FF P:E5 SP:F9 CYC:  0
FA6B  A9 75     LDA #$75                        A:37 X:02 Y:FF P:E5 SP:F9 CYC:  0
FA6D  60        RTS                             A:75 X:02 Y:FF P:65 SP:F9 CYC:  0
F1B7  33 45    *RLA ($45),Y = 0548 @ 0647 = 37  A:75 X:02 Y:FF P:65 SP:FB CYC:  0
F1B9  EA        NOP                             A:65 X:02 Y:FF P:64 SP:FB CYC:  0
F1BA  EA        NOP                             A:65 X:02 Y:FF P:64 SP:FB CYC:  0
F1BB  08        PHP                             A:65 X:02 Y:FF P:64 SP:FB CYC:  0
F1BC  48        PHA                             A:65 X:02 Y:FF P:64 SP:FA CYC:  0
F1BD  A0 DF     LDY #$DF                        A:65 X:02 Y:FF P:64 SP:F9 CYC:  0
F1BF  68        PLA                             A:65 X:02 Y:DF P:E4 SP:F9 CYC:  0
F1C0  28        PLP                             A:65 X:02 Y:DF P:64 SP:FA CYC:  0
F1C1  20 6E FA  JSR $FA6E                       A:65 X:02 Y:DF P:64 SP:FB CYC:  0
FA6E  50 76     BVC $FAE6                       A:65 X:02 Y:DF P:64 SP:F9 CYC:  0
FA70  F0 74     BEQ $FAE6                       A:65 X:02 Y:DF P:64 SP:F9 CYC:  0
FA72  30 72     BMI $FAE6                       A:65 X:02 Y:DF P:64 SP:F9 CYC:  0
FA74  B0 70     BCS $FAE6                       A:65 X:02 Y:DF P:64 SP:F9 CYC:  0
FA76  C9 65     CMP #$65                        A:65 X:02 Y:DF P:64 SP:F9 CYC:  0
FA78  D0 6C     BNE $FAE6                       A:65 X:02 Y:DF P:67 SP:F9 CYC:  0
FA7A  60        RTS                             A:65 X:02 Y:DF P:67 SP:F9 CYC:  0
F1C4  AD 47 06  LDA $0647 = 6F                  A:65 X:02 Y:DF P:67 SP:FB CYC:  0
F1C7  C9 6F     CMP #$6F                        A:6F X:02 Y:DF P:65 SP:FB CYC:  0
F1C9  F0 02     BEQ $F1CD                       A:6F X:02 Y:DF P:67 SP:FB CYC:  0
F1CD  A0 E0     LDY #$E0                        A:6F X:02 Y:DF P:67 SP:FB CYC:  0
F1CF  A2 FF     LDX #$FF                        A:6F X:02 Y:E0 P:E5 SP:FB CYC:  0
F1D1  A9 A5     LDA #$A5                        A:6F X:FF Y:E0 P:E5 SP:FB CYC:  0
F1D3  85 47     STA $47 = 6F                    A:A5 X:FF Y:E0 P:E5 SP:FB CYC:  0
F1D5  20 53 FB  JSR $FB53                       A:A5 X:FF Y:E0 P:E5 SP:FB CYC:  0
FB53  24 01     BIT $01 = FF                    A:A5 X:FF Y:E0 P:E5 SP:F9 CYC:  0
FB55  18        CLC                             A:A5 X:FF Y:E0 P:E5 SP:F9 CYC:  0
FB56  A9 B3     LDA #$B3                        A:A5 X:FF Y:E0 P:E4 SP:F9 CYC:  0
FB58  60        RTS                             A:B3 X:FF Y:E0 P:E4 SP:F9 CYC:  0
F1D8  37 48    *RLA $48,X @ 47 = A5             A:B3 X:FF Y:E0 P:E4 SP:FB CYC:  0
F1DA  EA        NOP                             A:02 X:FF Y:E0 P:65 SP:FB CYC:  0
F1DB  EA        NOP                             A:02 X:FF Y:E0 P:65 SP:FB CYC:  0
F1DC  EA        NOP                             A:02 X:FF Y:E0 P:65 SP:FB CYC:  0
F1DD  EA        NOP                             A:02 X:FF Y:E0 P:65 SP:FB CYC:  0
F1DE  20 59 FB  JSR $FB59                       A:02 X:FF Y:E0 P:65 SP:FB CYC:  0
FB59  50 1A     BVC $FB75                       A:02 X:FF Y:E0 P:65 SP:F9 CYC:  0
FB5B  90 18     BCC $FB75                       A:02 X:FF Y:E0 P:65 SP:F9 CYC:  0
FB5D  30 16     BMI $FB75                       A:02 X:FF Y:E0 P:65 SP:F9 CYC:  0
FB5F  C9 02     CMP #$02                        A:02 X:FF Y:E0 P:65 SP:F9 CYC:  0
FB61  D0 12     BNE $FB75                       A:02 X:FF Y:E0 P:67 SP:F9 CYC:  0
FB63  60        RTS                             A:02 X:FF Y:E0 P:67 SP:F9 CYC:  0
F1E1  A5 47     LDA $47 = 4A                    A:02 X:FF Y:E0 P:67 SP:FB CYC:  0
F1E3  C9 4A     CMP #$4A                        A:4A X:FF Y:E0 P:65 SP:FB CYC:  0
F1E5  F0 02     BEQ $F1E9                       A:4A X:FF Y:E0 P:67 SP:FB CYC:  0
F1E9  C8        INY                             A:4A X:FF Y:E0 P:67 SP:FB CYC:  0
F1EA  A9 29     LDA #$29                        A:4A X:FF Y:E1 P:E5 SP:FB CYC:  0
F1EC  85 47     STA $47 = 4A                    A:29 X:FF Y:E1 P:65 SP:FB CYC:  0
F1EE  20 64 FB  JSR $FB64                       A:29 X:FF Y:E1 P:65 SP:FB CYC:  0
FB64  B8        CLV                             A:29 X:FF Y:E1 P:65 SP:F9 CYC:  0
FB65  18        CLC                             A:29 X:FF Y:E1 P:25 SP:F9 CYC:  0
FB66  A9 42     LDA #$42                        A:29 X:FF Y:E1 P:24 SP:F9 CYC:  0
FB68  60        RTS                             A:42 X:FF Y:E1 P:24 SP:F9 CYC:  0
F1F1  37 48    *RLA $48,X @ 47 = 29             A:42 X:FF Y:E1 P:24 SP:FB CYC:  0
F1F3  EA        NOP                             A:42 X:FF Y:E1 P:24 SP:FB CYC:  0
F1F4  EA        NOP                             A:42 X:FF Y:E1 P:24 SP:FB CYC:  0
F1F5  EA        NOP                             A:42 X:FF Y:E1 P:24 SP:FB CYC:  0
F1F6  EA        NOP                             A:42 X:FF Y:E1 P:24 SP:FB CYC:  0
F1F7  20 69 FB  JSR $FB69                       A:42 X:FF Y:E1 P:24 SP:FB CYC:  0
FB69  70 0A     BVS $FB75                       A:42 X:FF Y:E1 P:24 SP:F9 CYC:  0
FB6B  F0 08     BEQ $FB75                       A:42 X:FF Y:E1 P:24 SP:F9 CYC:  0
FB6D  30 06     BMI $FB75                       A:42 X:FF Y:E1 P:24 SP:F9 CYC:  0
FB6F  B0 04     BCS $FB75                       A:42 X:FF Y:E1 P:24 SP:F9 CYC:  0
FB71  C9 42     CMP #$42                        A:42 X:FF Y:E1 P:24 SP:F9 CYC:  0
FB73  F0 02     BEQ $FB77                       A:42 X:FF Y:E1 P:27 SP:F9 CYC:  0
FB77  60        RTS                             A:42 X:FF Y:E1 P:27 SP:F9 CYC:  0
F1FA  A5 47     LDA $47 = 52                    A:42 X:FF Y:E1 P:27 SP:FB CYC:  0
F1FC  C9 52     CMP #$52                        A:52 X:FF Y:E1 P:25 SP:FB CYC:  0
F1FE  F0 02     BEQ $F202                       A:52 X:FF Y:E1 P:27 SP:FB CYC:  0
F202  C8        INY                             A:52 X:FF Y:E1 P:27 SP:FB CYC:  0
F203  A9 37     LDA #$37                        A:52 X:FF Y:E2 P:A5 SP:FB CYC:  0
F205  85 47     STA $47 = 52                    A:37 X:FF Y:E2 P:25 SP:FB CYC:  0
F207  20 68 FA  JSR $FA68                       A:37 X:FF Y:E2 P:25 SP:FB CYC:  0
FA68  24 01     BIT $01 = FF                    A:37 X:FF Y:E2 P:25 SP:F9 CYC:  0
FA6A  38        SEC                             A:37 X:FF Y:E2 P:E5 SP:F9 CYC:  0
FA6B  A9 75     LDA #$75                        A:37 X:FF Y:E2 P:E5 SP:F9 CYC:  0
FA6D  60        RTS                             A:75 X:FF Y:E2 P:65 SP:F9 CYC:  0
F20A  37 48    *RLA $48,X @ 47 = 37             A:75 X:FF Y:E2 P:65 SP:FB CYC:  0
F20C  EA        NOP                             A:65 X:FF Y:E2 P:64 SP:FB CYC:  0
F20D  EA        NOP                             A:65 X:FF Y:E2 P:64 SP:FB CYC:  0
F20E  EA        NOP                             A:65 X:FF Y:E2 P:64 SP:FB CYC:  0
F20F  EA        NOP                             A:65 X:FF Y:E2 P:64 SP:FB CYC:  0
F210  20 6E FA  JSR $FA6E                       A:65 X:FF Y:E2 P:64 SP:FB CYC:  0
FA6E  50 76     BVC $FAE6                       A:65 X:FF Y:E2 P:64 SP:F9 CYC:  0
FA70  F0 74     BEQ $FAE6                       A:65 X:FF Y:E2 P:64 SP:F9 CYC:  0
FA72  30 72     BMI $FAE6                       A:65 X:FF Y:E2 P:64 SP:F9 CYC:  0
FA74  B0 70     BCS $FAE6                       A:65 X:FF Y:E2 P:64 SP:F9 CYC:  0
FA76  C9 65     CMP #$65                        A:65 X:FF Y:E2 P:64 SP:F9 CYC:  0
FA78  D0 6C     BNE $FAE6                       A:65 X:FF Y:E2 P:67 SP:F9 CYC:  0
FA7A  60        RTS                             A:65 X:FF Y:E2 P:67 SP:F9 CYC:  0
F213  A5 47     LDA $47 = 6F                    A:65 X:FF Y:E2 P:67 SP:FB CYC:  0
F215  C9 6F     CMP #$6F                        A:6F X:FF Y:E2 P:65 SP:FB CYC:  0
F217  F0 02     BEQ $F21B                       A:6F X:FF Y:E2 P:67 SP:FB CYC:  0
F21B  A9 A5     LDA #$A5                        A:6F X:FF Y:E2 P:67 SP:FB CYC:  0
F21D  8D 47 06  STA $0647 = 6F                  A:A5 X:FF Y:E2 P:E5 SP:FB CYC:  0
F220  A0 FF     LDY #$FF                        A:A5 X:FF Y:E2 P:E5 SP:FB CYC:  0
F222  20 53 FB  JSR $FB53                       A:A5 X:FF Y:FF P:E5 SP:FB CYC:  0
FB53  24 01     BIT $01 = FF                    A:A5 X:FF Y:FF P:E5 SP:F9 CYC:  0
FB55  18        CLC                             A:A5 X:FF Y:FF P:E5 SP:F9 CYC:  0
FB56  A9 B3     LDA #$B3                        A:A5 X:FF Y:FF P:E4 SP:F9 CYC:  0
FB58  60        RTS                             A:B3 X:FF Y:FF P:E4 SP:F9 CYC:  0
F225  3B 48 05 *RLA $0548,Y @ 0647 = A5         A:B3 X:FF Y:FF P:E4 SP:FB CYC:  0
F228  EA        NOP                             A:02 X:FF Y:FF P:65 SP:FB CYC:  0
F229  EA        NOP                             A:02 X:FF Y:FF P:65 SP:FB CYC:  0
F22A  08        PHP                             A:02 X:FF Y:FF P:65 SP:FB CYC:  0
F22B  48        PHA                             A:02 X:FF Y:FF P:65 SP:FA CYC:  0
F22C  A0 E3     LDY #$E3                        A:02 X:FF Y:FF P:65 SP:F9 CYC:  0
F22E  68        PLA                             A:02 X:FF Y:E3 P:E5 SP:F9 CYC:  0
F22F  28        PLP                             A:02 X:FF Y:E3 P:65 SP:FA CYC:  0
F230  20 59 FB  JSR $FB59                       A:02 X:FF Y:E3 P:65 SP:FB CYC:  0
FB59  50 1A     BVC $FB75                       A:02 X:FF Y:E3 P:65 SP:F9 CYC:  0
FB5B  90 18     BCC $FB75                       A:02 X:FF Y:E3 P:65 SP:F9 CYC:  0
FB5D  30 16     BMI $FB75                       A:02 X:FF Y:E3 P:65 SP:F9 CYC:  0
FB5F  C9 02     CMP #$02                        A:02 X:FF Y:E3 P:65 SP:F9 CYC:  0
FB61  D0 12     BNE $FB75                       A:02 X:FF Y:E3 P:67 SP:F9 CYC:  0
FB63  60        RTS                             A:02 X:FF Y:E3 P:67 SP:F9 CYC:  0
F233  AD 47 06  LDA $0647 = 4A                  A:02 X:FF Y:E3 P:67 SP:FB CYC:  0
F236  C9 4A     CMP #$4A                        A:4A X:FF Y:E3 P:65 SP:FB CYC:  0
F238  F0 02     BEQ $F23C                       A:4A X:FF Y:E3 P:67 SP:FB CYC:  0
F23C  A0 FF     LDY #$FF                        A:4A X:FF Y:E3 P:67 SP:FB CYC:  0
F23E  A9 29     LDA #$29                        A:4A X:FF Y:FF P:E5 SP:FB CYC:  0
F240  8D 47 06  STA $0647 = 4A                  A:29 X:FF Y:FF P:65 SP:FB CYC:  0
F243  20 64 FB  JSR $FB64                       A:29 X:FF Y:FF P:65 SP:FB CYC:  0
FB64  B8        CLV                             A:29 X:FF Y:FF P:65 SP:F9 CYC:  0
FB65  18        CLC                             A:29 X:FF Y:FF P:25 SP:F9 CYC:  0
FB66  A9 42     LDA #$42                        A:29 X:FF Y:FF P:24 SP:F9 CYC:  0
FB68  60        RTS                             A:42 X:FF Y:FF P:24 SP:F9 CYC:  0
F246  3B 48 05 *RLA $0548,Y @ 0647 = 29         A:42 X:FF Y:FF P:24 SP:FB CYC:  0
F249  EA        NOP                             A:42 X:FF Y:FF P:24 SP:FB CYC:  0
F24A  EA        NOP                             A:42 X:FF Y:FF P:24 SP:FB CYC:  0
F24B  08        PHP                             A:42 X:FF Y:FF P:24 SP:FB CYC:  0
F24C  48        PHA                             A:42 X:FF Y:FF P:24 SP:FA CYC:  0
F24D  A0 E4     LDY #$E4                        A:42 X:FF Y:FF P:24 SP:F9 CYC:  0
F24F  68        PLA                             A:42 X:FF Y:E4 P:A4 SP:F9 CYC:  0
F250  28        PLP                             A:42 X:FF Y:E4 P:24 SP:FA CYC:  0
F251  20 69 FB  JSR $FB69                       A:42 X:FF Y:E4 P:24 SP:FB CYC:  0
FB69  70 0A     BVS $FB75                       A:42 X:FF Y:E4 P:24 SP:F9 CYC:  0
FB6B  F0 08     BEQ $FB75                       A:42 X:FF Y:E4 P:24 SP:F9 CYC:  0
FB6D  30 06     BMI $FB75                       A:42 X:FF Y:E4 P:24 SP:F9 CYC:  0
FB6F  B0 04     BCS $FB75                       A:42 X:FF Y:E4 P:24 SP:F9 CYC:  0
FB71  C9 42     CMP #$42                        A:42 X:FF Y:E4 P:24 SP:F9 CYC:  0
FB73  F0 02     BEQ $FB77                       A:42 X:FF Y:E4 P:27 SP:F9 CYC:  0
FB77  60        RTS                             A:42 X:FF Y:E4 P:27 SP:F9 CYC:  0
F254  AD 47 06  LDA $0647 = 52                  A:42 X:FF Y:E4 P:27 SP:FB CYC:  0
F257  C9 52     CMP #$52                        A:52 X:FF Y:E4 P:25 SP:FB CYC:  0
F259  F0 02     BEQ $F25D                       A:52 X:FF Y:E4 P:27 SP:FB CYC:  0
F25D  A0 FF     LDY #$FF                        A:52 X:FF Y:E4 P:27 SP:FB CYC:  0
F25F  A9 37     LDA #$37                        A:52 X:FF Y:FF P:A5 SP:FB CYC:  0
F261  8D 47 06  STA $0647 = 52                  A:37 X:FF Y:FF P:25 SP:FB CYC:  0
F264  20 68 FA  JSR $FA68                       A:37 X:FF Y:FF P:25 SP:FB CYC:  0
FA68  24 01     BIT $01 = FF                    A:37 X:FF Y:FF P:25 SP:F9 CYC:  0
FA6A  38        SEC                             A:37 X:FF Y:FF P:E5 SP:F9 CYC:  0
FA6B  A9 75     LDA #$75                        A:37 X:FF Y:FF P:E5 SP:F9 CYC:  0
FA6D  60        RTS                             A:75 X:FF Y:FF P:65 SP:F9 CYC:  0
F267  3B 48 05 *RLA $0548,Y @ 0647 = 37         A:75 X:FF Y:FF P:65 SP:FB CYC:  0
F26A  EA        NOP                             A:65 X:FF Y:FF P:64 SP:FB CYC:  0
F26B  EA        NOP                             A:65 X:FF Y:FF P:64 SP:FB CYC:  0
F26C  08        PHP                             A:65 X:FF Y:FF P:64 SP:FB CYC:  0
F26D  48        PHA                             A:65 X:FF Y:FF P:64 SP:FA CYC:  0
F26E  A0 E5     LDY #$E5                        A:65 X:FF Y:FF P:64 SP:F9 CYC:  0
F270  68        PLA                             A:65 X:FF Y:E5 P:E4 SP:F9 CYC:  0
F271  28        PLP                             A:65 X:FF Y:E5 P:64 SP:FA CYC:  0
F272  20 6E FA  JSR $FA6E                       A:65 X:FF Y:E5 P:64 SP:FB CYC:  0
FA6E  50 76     BVC $FAE6                       A:65 X:FF Y:E5 P:64 SP:F9 CYC:  0
FA70  F0 74     BEQ $FAE6                       A:65 X:FF Y:E5 P:64 SP:F9 CYC:  0
FA72  30 72     BMI $FAE6                       A:65 X:FF Y:E5 P:64 SP:F9 CYC:  0
FA74  B0 70     BCS $FAE6                       A:65 X:FF Y:E5 P:64 SP:F9 CYC:  0
FA76  C9 65     CMP #$65                        A:65 X:FF Y:E5 P:64 SP:F9 CYC:  0
FA78  D0 6C     BNE $FAE6                       A:65 X:FF Y:E5 P:67 SP:F9 CYC:  0
FA7A  60        RTS                             A:65 X:FF Y:E5 P:67 SP:F9 CYC:  0
F275  AD 47 06  LDA $0647 = 6F                  A:65 X:FF Y:E5 P:67 SP:FB CYC:  0
F278  C9 6F     CMP #$6F                        A:6F X:FF Y:E5 P:65 SP:FB CYC:  0
F27A  F0 02     BEQ $F27E                       A:6F X:FF Y:E5 P:67 SP:FB CYC:  0
F27E  A0 E6     LDY #$E6                        A:6F X:FF Y:E5 P:67 SP:FB CYC:  0
F280  A2 FF     LDX #$FF                        A:6F X:FF Y:E6 P:E5 SP:FB CYC:  0
F282  A9 A5     LDA #$A5                        A:6F X:FF Y:E6 P:E5 SP:FB CYC:  0
F284  8D 47 06  STA $0647 = 6F                  A:A5 X:FF Y:E6 P:E5 SP:FB CYC:  0
F287  20 53 FB  JSR $FB53                       A:A5 X:FF Y:E6 P:E5 SP:FB CYC:  0
FB53  24 01     BIT $01 = FF                    A:A5 X:FF Y:E6 P:E5 SP:F9 CYC:  0
FB55  18        CLC                             A:A5 X:FF Y:E6 P:E5 SP:F9 CYC:  0
FB56  A9 B3     LDA #$B3                        A:A5 X:FF Y:E6 P:E4 SP:F9 CYC:  0
FB58  60        RTS                             A:B3 X:FF Y:E6 P:E4 SP:F9 CYC:  0
F28A  3F 48 05 *RLA $0548,X @ 0647 = A5         A:B3 X:FF Y:E6 P:E4 SP:FB CYC:  0
F28D  EA        NOP                             A:02 X:FF Y:E6 P:65 SP:FB CYC:  0
F28E  EA        NOP                             A:02 X:FF Y:E6 P:65 SP:FB CYC:  0
F28F  EA        NOP                             A:02 X:FF Y:E6 P:65 SP:FB CYC:  0
F290  EA        NOP                             A:02 X:FF Y:E6 P:65 SP:FB CYC:  0
F291  20 59 FB  JSR $FB59                       A:02 X:FF Y:E6 P:65 SP:FB CYC:  0
FB59  50 1A     BVC $FB75                       A:02 X:FF Y:E6 P:65 SP:F9 CYC:  0
FB5B  90 18     BCC $FB75                       A:02 X:FF Y:E6 P:65 SP:F9 CYC:  0
FB5D  30 16     BMI $FB75                       A:02 X:FF Y:E6 P:65 SP:F9 CYC:  0
FB5F  C9 02     CMP #$02                        A:02 X:FF Y:E6 P:65 SP:F9 CYC:  0
FB61  D0 12     BNE $FB75                       A:02 X:FF Y:E6 P:67 SP:F9 CYC:  0
FB63  60        RTS                             A:02 X:FF Y:E6 P:67 SP:F9 CYC:  0
F294  AD 47 06  LDA $0647 = 4A                  A:02 X:FF Y:E6 P:67 SP:FB CYC:  0
F297  C9 4A     CMP #$4A                        A:4A X:FF Y:E6 P:65 SP:FB CYC:  0
F299  F0 02     BEQ $F29D                       A:4A X:FF Y:E6 P:67 SP:FB CYC:  0
F29D  C8        INY                             A:4A X:FF Y:E6 P:67 SP:FB CYC:  0
F29E  A9 29     LDA #$29                        A:4A X:FF Y:E7 P:E5 SP:FB CYC:  0
F2A0  8D 47 06  STA $0647 = 4A                  A:29 X:FF Y:E7 P:65 SP:FB CYC:  0
F2A3  20 64 FB  JSR $FB64                       A:29 X:FF Y:E7 P:65 SP:FB CYC:  0
FB64  B8        CLV                             A:29 X:FF Y:E7 P:65 SP:F9 CYC:  0
FB65  18        CLC                             A:29 X:FF Y:E7 P:25 SP:F9 CYC:  0
FB66  A9 42     LDA #$42                        A:29 X:FF Y:E7 P:24 SP:F9 CYC:  0
FB68  60        RTS                             A:42 X:FF Y:E7 P:24 SP:F9 CYC:  0
F2A6  3F 48 05 *RLA $0548,X @ 0647 = 29         A:42 X:FF Y:E7 P:24 SP:FB CYC:  0
F2A9  EA        NOP                             A:42 X:FF Y:E7 P:24 SP:FB CYC:  0
F2AA  EA        NOP                             A:42 X:FF Y:E7 P:24 SP:FB CYC:  0
F2AB  EA        NOP                             A:42 X:FF Y:E7 P:24 SP:FB CYC:  0
F2AC  EA        NOP                             A:42 X:FF Y:E7 P:24 SP:FB CYC:  0
F2AD  20 69 FB  JSR $FB69                       A:42 X:FF Y:E7 P:24 SP:FB CYC:  0
FB69  70 0A     BVS $FB75                       A:42 X:FF Y:E7 P:24 SP:F9 CYC:  0
FB6B  F0 08     BEQ $FB75                       A:42 X:FF Y:E7 P:24 SP:F9 CYC:  0
FB6D  30 06     BMI $FB75                       A:42 X:FF Y:E7 P:24 SP:F9 CYC:  0
FB6F  B0 04     BCS $FB75                       A:42 X:FF Y:E7 P:24 SP:F9 CYC:  0
FB71  C9 42     CMP #$42                        A:42 X:FF Y:E7 P:24 SP:F9 CYC:  0
FB73  F0 02     BEQ $FB77                       A:42 X:FF Y:E7 P:27 SP:F9 CYC:  0
FB77  60        RTS                             A:42 X:FF Y:E7 P:27 SP:F9 CYC:  0
F2B0  AD 47 06  LDA $0647 = 52                  A:42 X:FF Y:E7 P:27 SP:FB CYC:  0
F2B3  C9 52     CMP #$52                        A:52 X:FF Y:E7 P:25 SP:FB CYC:  0
F2B5  F0 02     BEQ $F2B9                       A:52 X:FF Y:E7 P:27 SP:FB CYC:  0
F2B9  C8        INY                             A:52 X:FF Y:E7 P:27 SP:FB CYC:  0
F2BA  A9 37     LDA #$37                        A:52 X:FF Y:E8 P:A5 SP:FB CYC:  0
F2BC  8D 47 06  STA $0647 = 52                  A:37 X:FF Y:E8 P:25 SP:FB CYC:  0
F2BF  20 68 FA  JSR $FA68                       A:37 X:FF Y:E8 P:25 SP:FB CYC:  0
FA68  24 01     BIT $01 = FF                    A:37 X:FF Y:E8 P:25 SP:F9 CYC:  0
FA6A  38        SEC                             A:37 X:FF Y:E8 P:E5 SP:F9 CYC:  0
FA6B  A9 75     LDA #$75                        A:37 X:FF Y:E8 P:E5 SP:F9 CYC:  0
FA6D  60        RTS                             A:75 X:FF Y:E8 P:65 SP:F9 CYC:  0
F2C2  3F 48 05 *RLA $0548,X @ 0647 = 37         A:75 X:FF Y:E8 P:65 SP:FB CYC:  0
F2C5  EA        NOP                             A:65 X:FF Y:E8 P:64 SP:FB CYC:  0
F2C6  EA        NOP                             A:65 X:FF Y:E8 P:64 SP:FB CYC:  0
F2C7  EA        NOP                             A:65 X:FF Y:E8 P:64 SP:FB CYC:  0
F2C8  EA        NOP                             A:65 X:FF Y:E8 P:64 SP:FB CYC:  0
F2C9  20 6E FA  JSR $FA6E                       A:65 X:FF Y:E8 P:64 SP:FB CYC:  0
FA6E  50 76     BVC $FAE6                       A:65 X:FF Y:E8 P:64 SP:F9 CYC:  0
FA70  F0 74     BEQ $FAE6                       A:65 X:FF Y:E8 P:64 SP:F9 CYC:  0
FA72  30 72     BMI $FAE6                       A:65 X:FF Y:E8 P:64 SP:F9 CYC:  0
FA74  B0 70     BCS $FAE6                       A:65 X:FF Y:E8 P:64 SP:F9 CYC:  0
FA76  C9 65     CMP #$65                        A:65 X:FF Y:E8 P:64 SP:F9 CYC:  0
FA78  D0 6C     BNE $FAE6                       A:65 X:FF Y:E8 P:67 SP:F9 CYC:  0
FA7A  60        RTS                             A:65 X:FF Y:E8 P:67 SP:F9 CYC:  0
F2CC  AD 47 06  LDA $0647 = 6F                  A:65 X:FF Y:E8 P:67 SP:FB CYC:  0
F2CF  C9 6F     CMP #$6F                        A:6F X:FF Y:E8 P:65 SP:FB CYC:  0
F2D1  F0 02     BEQ $F2D5                       A:6F X:FF Y:E8 P:67 SP:FB CYC:  0
F2D5  60        RTS                             A:6F X:FF Y:E8 P:67 SP:FB CYC:  0
C647  20 D6 F2  JSR $F2D6                       A:6F X:FF Y:E8 P:67 SP:FD CYC:  0
F2D6  A9 FF     LDA #$FF                        A:6F X:FF Y:E8 P:67 SP:FB CYC:  0
F2D8  85 01     STA $01 = FF                    A:FF X:FF Y:E8 P:E5 SP:FB CYC:  0
F2DA  A0 E9     LDY #$E9                        A:FF X:FF Y:E8 P:E5 SP:FB CYC:  0
F2DC  A2 02     LDX #$02                        A:FF X:FF Y:E9 P:E5 SP:FB CYC:  0
F2DE  A9 47     LDA #$47                        A:FF X:02 Y:E9 P:65 SP:FB CYC:  0
F2E0  85 47     STA $47 = 6F                    A:47 X:02 Y:E9 P:65 SP:FB CYC:  0
F2E2  A9 06     LDA #$06                        A:47 X:02 Y:E9 P:65 SP:FB CYC:  0
F2E4  85 48     STA $48 = 06                    A:06 X:02 Y:E9 P:65 SP:FB CYC:  0
F2E6  A9 A5     LDA #$A5                        A:06 X:02 Y:E9 P:65 SP:FB CYC:  0
F2E8  8D 47 06  STA $0647 = 6F                  A:A5 X:02 Y:E9 P:E5 SP:FB CYC:  0
F2EB  20 1D FB  JSR $FB1D                       A:A5 X:02 Y:E9 P:E5 SP:FB CYC:  0
FB1D  24 01     BIT $01 = FF                    A:A5 X:02 Y:E9 P:E5 SP:F9 CYC:  0
FB1F  18        CLC                             A:A5 X:02 Y:E9 P:E5 SP:F9 CYC:  0
FB20  A9 B3     LDA #$B3                        A:A5 X:02 Y:E9 P:E4 SP:F9 CYC:  0
FB22  60        RTS                             A:B3 X:02 Y:E9 P:E4 SP:F9 CYC:  0
F2EE  43 45    *SRE ($45,X) @ 47 = 0647 = A5    A:B3 X:02 Y:E9 P:E4 SP:FB CYC:  0
F2F0  EA        NOP                             A:E1 X:02 Y:E9 P:E5 SP:FB CYC:  0
F2F1  EA        NOP                             A:E1 X:02 Y:E9 P:E5 SP:FB CYC:  0
F2F2  EA        NOP                             A:E1 X:02 Y:E9 P:E5 SP:FB CYC:  0
F2F3  EA        NOP                             A:E1 X:02 Y:E9 P:E5 SP:FB CYC:  0
F2F4  20 23 FB  JSR $FB23                       A:E1 X:02 Y:E9 P:E5 SP:FB CYC:  0
FB23  50 50     BVC $FB75                       A:E1 X:02 Y:E9 P:E5 SP:F9 CYC:  0
FB25  90 4E     BCC $FB75                       A:E1 X:02 Y:E9 P:E5 SP:F9 CYC:  0
FB27  10 4C     BPL $FB75                       A:E1 X:02 Y:E9 P:E5 SP:F9 CYC:  0
FB29  C9 E1     CMP #$E1                        A:E1 X:02 Y:E9 P:E5 SP:F9 CYC:  0
FB2B  D0 48     BNE $FB75                       A:E1 X:02 Y:E9 P:67 SP:F9 CYC:  0
FB2D  60        RTS                             A:E1 X:02 Y:E9 P:67 SP:F9 CYC:  0
F2F7  AD 47 06  LDA $0647 = 52                  A:E1 X:02 Y:E9 P:67 SP:FB CYC:  0
F2FA  C9 52     CMP #$52                        A:52 X:02 Y:E9 P:65 SP:FB CYC:  0
F2FC  F0 02     BEQ $F300                       A:52 X:02 Y:E9 P:67 SP:FB CYC:  0
F300  C8        INY                             A:52 X:02 Y:E9 P:67 SP:FB CYC:  0
F301  A9 29     LDA #$29                        A:52 X:02 Y:EA P:E5 SP:FB CYC:  0
F303  8D 47 06  STA $0647 = 52                  A:29 X:02 Y:EA P:65 SP:FB CYC:  0
F306  20 2E FB  JSR $FB2E                       A:29 X:02 Y:EA P:65 SP:FB CYC:  0
FB2E  B8        CLV                             A:29 X:02 Y:EA P:65 SP:F9 CYC:  0
FB2F  18        CLC                             A:29 X:02 Y:EA P:25 SP:F9 CYC:  0
FB30  A9 42     LDA #$42                        A:29 X:02 Y:EA P:24 SP:F9 CYC:  0
FB32  60        RTS                             A:42 X:02 Y:EA P:24 SP:F9 CYC:  0
F309  43 45    *SRE ($45,X) @ 47 = 0647 = 29    A:42 X:02 Y:EA P:24 SP:FB CYC:  0
F30B  EA        NOP                             A:56 X:02 Y:EA P:25 SP:FB CYC:  0
F30C  EA        NOP                             A:56 X:02 Y:EA P:25 SP:FB CYC:  0
F30D  EA        NOP                             A:56 X:02 Y:EA P:25 SP:FB CYC:  0
F30E  EA        NOP                             A:56 X:02 Y:EA P:25 SP:FB CYC:  0
F30F  20 33 FB  JSR $FB33                       A:56 X:02 Y:EA P:25 SP:FB CYC:  0
FB33  70 40     BVS $FB75                       A:56 X:02 Y:EA P:25 SP:F9 CYC:  0
FB35  F0 3E     BEQ $FB75                       A:56 X:02 Y:EA P:25 SP:F9 CYC:  0
FB37  30 3C     BMI $FB75                       A:56 X:02 Y:EA P:25 SP:F9 CYC:  0
FB39  90 3A     BCC $FB75                       A:56 X:02 Y:EA P:25 SP:F9 CYC:  0
FB3B  C9 56     CMP #$56                        A:56 X:02 Y:EA P:25 SP:F9 CYC:  0
FB3D  D0 36     BNE $FB75                       A:56 X:02 Y:EA P:27 SP:F9 CYC:  0
FB3F  60        RTS                             A:56 X:02 Y:EA P:27 SP:F9 CYC:  0
F312  AD 47 06  LDA $0647 = 14                  A:56 X:02 Y:EA P:27 SP:FB CYC:  0
F315  C9 14     CMP #$14                        A:14 X:02 Y:EA P:25 SP:FB CYC:  0
F317  F0 02     BEQ $F31B                       A:14 X:02 Y:EA P:27 SP:FB CYC:  0
F31B  C8        INY                             A:14 X:02 Y:EA P:27 SP:FB CYC:  0
F31C  A9 37     LDA #$37                        A:14 X:02 Y:EB P:A5 SP:FB CYC:  0
F31E  8D 47 06  STA $0647 = 14                  A:37 X:02 Y:EB P:25 SP:FB CYC:  0
F321  20 40 FB  JSR $FB40                       A:37 X:02 Y:EB P:25 SP:FB CYC:  0
FB40  24 01     BIT $01 = FF                    A:37 X:02 Y:EB P:25 SP:F9 CYC:  0
FB42  38        SEC                             A:37 X:02 Y:EB P:E5 SP:F9 CYC:  0
FB43  A9 75     LDA #$75                        A:37 X:02 Y:EB P:E5 SP:F9 CYC:  0
FB45  60        RTS                             A:75 X:02 Y:EB P:65 SP:F9 CYC:  0
F324  43 45    *SRE ($45,X) @ 47 = 0647 = 37    A:75 X:02 Y:EB P:65 SP:FB CYC:  0
F326  EA        NOP                             A:6E X:02 Y:EB P:65 SP:FB CYC:  0
F327  EA        NOP                             A:6E X:02 Y:EB P:65 SP:FB CYC:  0
F328  EA        NOP                             A:6E X:02 Y:EB P:65 SP:FB CYC:  0
F329  EA        NOP                             A:6E X:02 Y:EB P:65 SP:FB CYC:  0
F32A  20 46 FB  JSR $FB46                       A:6E X:02 Y:EB P:65 SP:FB CYC:  0
FB46  50 2D     BVC $FB75                       A:6E X:02 Y:EB P:65 SP:F9 CYC:  0
FB48  F0 2B     BEQ $FB75                       A:6E X:02 Y:EB P:65 SP:F9 CYC:  0
FB4A  30 29     BMI $FB75                       A:6E X:02 Y:EB P:65 SP:F9 CYC:  0
FB4C  90 27     BCC $FB75                       A:6E X:02 Y:EB P:65 SP:F9 CYC:  0
FB4E  C9 6E     CMP #$6E                        A:6E X:02 Y:EB P:65 SP:F9 CYC:  0
FB50  D0 23     BNE $FB75                       A:6E X:02 Y:EB P:67 SP:F9 CYC:  0
FB52  60        RTS                             A:6E X:02 Y:EB P:67 SP:F9 CYC:  0
F32D  AD 47 06  LDA $0647 = 1B                  A:6E X:02 Y:EB P:67 SP:FB CYC:  0
F330  C9 1B     CMP #$1B                        A:1B X:02 Y:EB P:65 SP:FB CYC:  0
F332  F0 02     BEQ $F336                       A:1B X:02 Y:EB P:67 SP:FB CYC:  0
F336  C8        INY                             A:1B X:02 Y:EB P:67 SP:FB CYC:  0
F337  A9 A5     LDA #$A5                        A:1B X:02 Y:EC P:E5 SP:FB CYC:  0
F339  85 47     STA $47 = 47                    A:A5 X:02 Y:EC P:E5 SP:FB CYC:  0
F33B  20 1D FB  JSR $FB1D                       A:A5 X:02 Y:EC P:E5 SP:FB CYC:  0
FB1D  24 01     BIT $01 = FF                    A:A5 X:02 Y:EC P:E5 SP:F9 CYC:  0
FB1F  18        CLC                             A:A5 X:02 Y:EC P:E5 SP:F9 CYC:  0
FB20  A9 B3     LDA #$B3                        A:A5 X:02 Y:EC P:E4 SP:F9 CYC:  0
FB22  60        RTS                             A:B3 X:02 Y:EC P:E4 SP:F9 CYC:  0
F33E  47 47    *SRE $47 = A5                    A:B3 X:02 Y:EC P:E4 SP:FB CYC:  0
F340  EA        NOP                             A:E1 X:02 Y:EC P:E5 SP:FB CYC:  0
F341  EA        NOP                             A:E1 X:02 Y:EC P:E5 SP:FB CYC:  0
F342  EA        NOP                             A:E1 X:02 Y:EC P:E5 SP:FB CYC:  0
F343  EA        NOP                             A:E1 X:02 Y:EC P:E5 SP:FB CYC:  0
F344  20 23 FB  JSR $FB23                       A:E1 X:02 Y:EC P:E5 SP:FB CYC:  0
FB23  50 50     BVC $FB75                       A:E1 X:02 Y:EC P:E5 SP:F9 CYC:  0
FB25  90 4E     BCC $FB75                       A:E1 X:02 Y:EC P:E5 SP:F9 CYC:  0
FB27  10 4C     BPL $FB75                       A:E1 X:02 Y:EC P:E5 SP:F9 CYC:  0
FB29  C9 E1     CMP #$E1                        A:E1 X:02 Y:EC P:E5 SP:F9 CYC:  0
FB2B  D0 48     BNE $FB75                       A:E1 X:02 Y:EC P:67 SP:F9 CYC:  0
FB2D  60        RTS                             A:E1 X:02 Y:EC P:67 SP:F9 CYC:  0
F347  A5 47     LDA $47 = 52                    A:E1 X:02 Y:EC P:67 SP:FB CYC:  0
F349  C9 52     CMP #$52                        A:52 X:02 Y:EC P:65 SP:FB CYC:  0
F34B  F0 02     BEQ $F34F                       A:52 X:02 Y:EC P:67 SP:FB CYC:  0
F34F  C8        INY                             A:52 X:02 Y:EC P:67 SP:FB CYC:  0
F350  A9 29     LDA #$29                        A:52 X:02 Y:ED P:E5 SP:FB CYC:  0
F352  85 47     STA $47 = 52                    A:29 X:02 Y:ED P:65 SP:FB CYC:  0
F354  20 2E FB  JSR $FB2E                       A:29 X:02 Y:ED P:65 SP:FB CYC:  0
FB2E  B8        CLV                             A:29 X:02 Y:ED P:65 SP:F9 CYC:  0
FB2F  18        CLC                             A:29 X:02 Y:ED P:25 SP:F9 CYC:  0
FB30  A9 42     LDA #$42                        A:29 X:02 Y:ED P:24 SP:F9 CYC:  0
FB32  60        RTS                             A:42 X:02 Y:ED P:24 SP:F9 CYC:  0
F357  47 47    *SRE $47 = 29                    A:42 X:02 Y:ED P:24 SP:FB CYC:  0
F359  EA        NOP                             A:56 X:02 Y:ED P:25 SP:FB CYC:  0
F35A  EA        NOP                             A:56 X:02 Y:ED P:25 SP:FB CYC:  0
F35B  EA        NOP                             A:56 X:02 Y:ED P:25 SP:FB CYC:  0
F35C  EA        NOP                             A:56 X:02 Y:ED P:25 SP:FB CYC:  0
F35D  20 33 FB  JSR $FB33                       A:56 X:02 Y:ED P:25 SP:FB CYC:  0
FB33  70 40     BVS $FB75                       A:56 X:02 Y:ED P:25 SP:F9 CYC:  0
FB35  F0 3E     BEQ $FB75                       A:56 X:02 Y:ED P:25 SP:F9 CYC:  0
FB37  30 3C     BMI $FB75                       A:56 X:02 Y:ED P:25 SP:F9 CYC:  0
FB39  90 3A     BCC $FB75                       A:56 X:02 Y:ED P:25 SP:F9 CYC:  0
FB3B  C9 56     CMP #$56                        A:56 X:02 Y:ED P:25 SP:F9 CYC:  0
FB3D  D0 36     BNE $FB75                       A:56 X:02 Y:ED P:27 SP:F9 CYC:  0
FB3F  60        RTS                             A:56 X:02 Y:ED P:27 SP:F9 CYC:  0
F360  A5 47     LDA $47 = 14                    A:56 X:02 Y:ED P:27 SP:FB CYC:  0
F362  C9 14     CMP #$14                        A:14 X:02 Y:ED P:25 SP:FB CYC:  0
F364  F0 02     BEQ $F368                       A:14 X:02 Y:ED P:27 SP:FB CYC:  0
F368  C8        INY                             A:14 X:02 Y:ED P:27 SP:FB CYC:  0
F369  A9 37     LDA #$37                        A:14 X:02 Y:EE P:A5 SP:FB CYC:  0
F36B  85 47     STA $47 = 14                    A:37 X:02 Y:EE P:25 SP:FB CYC:  0
F36D  20 40 FB  JSR $FB40                       A:37 X:02 Y:EE P:25 SP:FB CYC:  0
FB40  24 01     BIT $01 = FF                    A:37 X:02 Y:EE P:25 SP:F9 CYC:  0
FB42  38        SEC                             A:37 X:02 Y:EE P:E5 SP:F9 CYC:  0
FB43  A9 75     LDA #$75                        A:37 X:02 Y:EE P:E5 SP:F9 CYC:  0
FB45  60        RTS                             A:75 X:02 Y:EE P:65 SP:F9 CYC:  0
F370  47 47    *SRE $47 = 37                    A:75 X:02 Y:EE P:65 SP:FB CYC:  0
F372  EA        NOP                             A:6E X:02 Y:EE P:65 SP:FB CYC:  0
F373  EA        NOP                             A:6E X:02 Y:EE P:65 SP:FB CYC:  0
F374  EA        NOP                             A:6E X:02 Y:EE P:65 SP:FB CYC:  0
F375  EA        NOP                             A:6E X:02 Y:EE P:65 SP:FB CYC:  0
F376  20 46 FB  JSR $FB46                       A:6E X:02 Y:EE P:65 SP:FB CYC:  0
FB46  50 2D     BVC $FB75                       A:6E X:02 Y:EE P:65 SP:F9 CYC:  0
FB48  F0 2B     BEQ $FB75                       A:6E X:02 Y:EE P:65 SP:F9 CYC:  0
FB4A  30 29     BMI $FB75                       A:6E X:02 Y:EE P:65 SP:F9 CYC:  0
FB4C  90 27     BCC $FB75                       A:6E X:02 Y:EE P:65 SP:F9 CYC:  0
FB4E  C9 6E     CMP #$6E                        A:6E X:02 Y:EE P:65 SP:F9 CYC:  0
FB50  D0 23     BNE $FB75                       A:6E X:02 Y:EE P:67 SP:F9 CYC:  0
FB52  60        RTS                             A:6E X:02 Y:EE P:67 SP:F9 CYC:  0
F379  A5 47     LDA $47 = 1B                    A:6E X:02 Y:EE P:67 SP:FB CYC:  0
F37B  C9 1B     CMP #$1B                        A:1B X:02 Y:EE P:65 SP:FB CYC:  0
F37D  F0 02     BEQ $F381                       A:1B X:02 Y:EE P:67 SP:FB CYC:  0
F381  C8        INY                             A:1B X:02 Y:EE P:67 SP:FB CYC:  0
F382  A9 A5     LDA #$A5                        A:1B X:02 Y:EF P:E5 SP:FB CYC:  0
F384  8D 47 06  STA $0647 = 1B                  A:A5 X:02 Y:EF P:E5 SP:FB CYC:  0
F387  20 1D FB  JSR $FB1D                       A:A5 X:02 Y:EF P:E5 SP:FB CYC:  0
FB1D  24 01     BIT $01 = FF                    A:A5 X:02 Y:EF P:E5 SP:F9 CYC:  0
FB1F  18        CLC                             A:A5 X:02 Y:EF P:E5 SP:F9 CYC:  0
FB20  A9 B3     LDA #$B3                        A:A5 X:02 Y:EF P:E4 SP:F9 CYC:  0
FB22  60        RTS                             A:B3 X:02 Y:EF P:E4 SP:F9 CYC:  0
F38A  4F 47 06 *SRE $0647 = A5                  A:B3 X:02 Y:EF P:E4 SP:FB CYC:  0
F38D  EA        NOP                             A:E1 X:02 Y:EF P:E5 SP:FB CYC:  0
F38E  EA        NOP                             A:E1 X:02 Y:EF P:E5 SP:FB CYC:  0
F38F  EA        NOP                             A:E1 X:02 Y:EF P:E5 SP:FB CYC:  0
F390  EA        NOP                             A:E1 X:02 Y:EF P:E5 SP:FB CYC:  0
F391  20 23 FB  JSR $FB23                       A:E1 X:02 Y:EF P:E5 SP:FB CYC:  0
FB23  50 50     BVC $FB75                       A:E1 X:02 Y:EF P:E5 SP:F9 CYC:  0
FB25  90 4E     BCC $FB75                       A:E1 X:02 Y:EF P:E5 SP:F9 CYC:  0
FB27  10 4C     BPL $FB75                       A:E1 X:02 Y:EF P:E5 SP:F9 CYC:  0
FB29  C9 E1     CMP #$E1                        A:E1 X:02 Y:EF P:E5 SP:F9 CYC:  0
FB2B  D0 48     BNE $FB75                       A:E1 X:02 Y:EF P:67 SP:F9 CYC:  0
FB2D  60        RTS                             A:E1 X:02 Y:EF P:67 SP:F9 CYC:  0
F394  AD 47 06  LDA $0647 = 52                  A:E1 X:02 Y:EF P:67 SP:FB CYC:  0
F397  C9 52     CMP #$52                        A:52 X:02 Y:EF P:65 SP:FB CYC:  0
F399  F0 02     BEQ $F39D                       A:52 X:02 Y:EF P:67 SP:FB CYC:  0
F39D  C8        INY                             A:52 X:02 Y:EF P:67 SP:FB CYC:  0
F39E  A9 29     LDA #$29                        A:52 X:02 Y:F0 P:E5 SP:FB CYC:  0
F3A0  8D 47 06  STA $0647 = 52                  A:29 X:02 Y:F0 P:65 SP:FB CYC:  0
F3A3  20 2E FB  JSR $FB2E                       A:29 X:02 Y:F0 P:65 SP:FB CYC:  0
FB2E  B8        CLV                             A:29 X:02 Y:F0 P:65 SP:F9 CYC:  0
FB2F  18        CLC                             A:29 X:02 Y:F0 P:25 SP:F9 CYC:  0
FB30  A9 42     LDA #$42                        A:29 X:02 Y:F0 P:24 SP:F9 CYC:  0
FB32  60        RTS                             A:42 X:02 Y:F0 P:24 SP:F9 CYC:  0
F3A6  4F 47 06 *SRE $0647 = 29                  A:42 X:02 Y:F0 P:24 SP:FB CYC:  0
F3A9  EA        NOP                             A:56 X:02 Y:F0 P:25 SP:FB CYC:  0
F3AA  EA        NOP                             A:56 X:02 Y:F0 P:25 SP:FB CYC:  0
F3AB  EA        NOP                             A:56 X:02 Y:F0 P:25 SP:FB CYC:  0
F3AC  EA        NOP                             A:56 X:02 Y:F0 P:25 SP:FB CYC:  0
F3AD  20 33 FB  JSR $FB33                       A:56 X:02 Y:F0 P:25 SP:FB CYC:  0
FB33  70 40     BVS $FB75                       A:56 X:02 Y:F0 P:25 SP:F9 CYC:  0
FB35  F0 3E     BEQ $FB75                       A:56 X:02 Y:F0 P:25 SP:F9 CYC:  0
FB37  30 3C     BMI $FB75                       A:56 X:02 Y:F0 P:25 SP:F9 CYC:  0
FB39  90 3A     BCC $FB75                       A:56 X:02 Y:F0 P:25 SP:F9 CYC:  0
FB3B  C9 56     CMP #$56                        A:56 X:02 Y:F0 P:25 SP:F9 CYC:  0
FB3D  D0 36     BNE $FB75                       A:56 X:02 Y:F0 P:27 SP:F9 CYC:  0
FB3F  60        RTS                             A:56 X:02 Y:F0 P:27 SP:F9 CYC:  0
F3B0  AD 47 06  LDA $0647 = 14                  A:56 X:02 Y:F0 P:27 SP:FB CYC:  0
F3B3  C9 14     CMP #$14                        A:14 X:02 Y:F0 P:25 SP:FB CYC:  0
F3B5  F0 02     BEQ $F3B9                       A:14 X:02 Y:F0 P:27 SP:FB CYC:  0
F3B9  C8        INY                             A:14 X:02 Y:F0 P:27 SP:FB CYC:  0
F3BA  A9 37     LDA #$37                        A:14 X:02 Y:F1 P:A5 SP:FB CYC:  0
F3BC  8D 47 06  STA $0647 = 14                  A:37 X:02 Y:F1 P:25 SP:FB CYC:  0
F3BF  20 40 FB  JSR $FB40                       A:37 X:02 Y:F1 P:25 SP:FB CYC:  0
FB40  24 01     BIT $01 = FF                    A:37 X:02 Y:F1 P:25 SP:F9 CYC:  0
FB42  38        SEC                             A:37 X:02 Y:F1 P:E5 SP:F9 CYC:  0
FB43  A9 75     LDA #$75                        A:37 X:02 Y:F1 P:E5 SP:F9 CYC:  0
FB45  60        RTS                             A:75 X:02 Y:F1 P:65 SP:F9 CYC:  0
F3C2  4F 47 06 *SRE $0647 = 37                  A:75 X:02 Y:F1 P:65 SP:FB CYC:  0
F3C5  EA        NOP                             A:6E X:02 Y:F1 P:65 SP:FB CYC:  0
F3C6  EA        NOP                             A:6E X:02 Y:F1 P:65 SP:FB CYC:  0
F3C7  EA        NOP                             A:6E X:02 Y:F1 P:65 SP:FB CYC:  0
F3C8  EA        NOP                             A:6E X:02 Y:F1 P:65 SP:FB CYC:  0
F3C9  20 46 FB  JSR $FB46                       A:6E X:02 Y:F1 P:65 SP:FB CYC:  0
FB46  50 2D     BVC $FB75                       A:6E X:02 Y:F1 P:65 SP:F9 CYC:  0
FB48  F0 2B     BEQ $FB75                       A:6E X:02 Y:F1 P:65 SP:F9 CYC:  0
FB4A  30 29     BMI $FB75                       A:6E X:02 Y:F1 P:65 SP:F9 CYC:  0
FB4C  90 27     BCC $FB75                       A:6E X:02 Y:F1 P:65 SP:F9 CYC:  0
FB4E  C9 6E     CMP #$6E                        A:6E X:02 Y:F1 P:65 SP:F9 CYC:  0
FB50  D0 23     BNE $FB75                       A:6E X:02 Y:F1 P:67 SP:F9 CYC:  0
FB52  60        RTS                             A:6E X:02 Y:F1 P:67 SP:F9 CYC:  0
F3CC  AD 47 06  LDA $0647 = 1B                  A:6E X:02 Y:F1 P:67 SP:FB CYC:  0
F3CF  C9 1B     CMP #$1B                        A:1B X:02 Y:F1 P:65 SP:FB CYC:  0
F3D1  F0 02     BEQ $F3D5                       A:1B X:02 Y:F1 P:67 SP:FB CYC:  0
F3D5  A9 A5     LDA #$A5                        A:1B X:02 Y:F1 P:67 SP:FB CYC:  0
F3D7  8D 47 06  STA $0647 = 1B                  A:A5 X:02 Y:F1 P:E5 SP:FB CYC:  0
F3DA  A9 48     LDA #$48                        A:A5 X:02 Y:F1 P:E5 SP:FB CYC:  0
F3DC  85 45     STA $45 = 48                    A:48 X:02 Y:F1 P:65 SP:FB CYC:  0
F3DE  A9 05     LDA #$05                        A:48 X:02 Y:F1 P:65 SP:FB CYC:  0
F3E0  85 46     STA $46 = 05                    A:05 X:02 Y:F1 P:65 SP:FB CYC:  0
F3E2  A0 FF     LDY #$FF                        A:05 X:02 Y:F1 P:65 SP:FB CYC:  0
F3E4  20 1D FB  JSR $FB1D                       A:05 X:02 Y:FF P:E5 SP:FB CYC:  0
FB1D  24 01     BIT $01 = FF                    A:05 X:02 Y:FF P:E5 SP:F9 CYC:  0
FB1F  18        CLC                             A:05 X:02 Y:FF P:E5 SP:F9 CYC:  0
FB20  A9 B3     LDA #$B3                        A:05 X:02 Y:FF P:E4 SP:F9 CYC:  0
FB22  60        RTS                             A:B3 X:02 Y:FF P:E4 SP:F9 CYC:  0
F3E7  53 45    *SRE ($45),Y = 0548 @ 0647 = A5  A:B3 X:02 Y:FF P:E4 SP:FB CYC:  0
F3E9  EA        NOP                             A:E1 X:02 Y:FF P:E5 SP:FB CYC:  0
F3EA  EA        NOP                             A:E1 X:02 Y:FF P:E5 SP:FB CYC:  0
F3EB  08        PHP                             A:E1 X:02 Y:FF P:E5 SP:FB CYC:  0
F3EC  48        PHA                             A:E1 X:02 Y:FF P:E5 SP:FA CYC:  0
F3ED  A0 F2     LDY #$F2                        A:E1 X:02 Y:FF P:E5 SP:F9 CYC:  0
F3EF  68        PLA                             A:E1 X:02 Y:F2 P:E5 SP:F9 CYC:  0
F3F0  28        PLP                             A:E1 X:02 Y:F2 P:E5 SP:FA CYC:  0
F3F1  20 23 FB  JSR $FB23                       A:E1 X:02 Y:F2 P:E5 SP:FB CYC:  0
FB23  50 50     BVC $FB75                       A:E1 X:02 Y:F2 P:E5 SP:F9 CYC:  0
FB25  90 4E     BCC $FB75                       A:E1 X:02 Y:F2 P:E5 SP:F9 CYC:  0
FB27  10 4C     BPL $FB75                       A:E1 X:02 Y:F2 P:E5 SP:F9 CYC:  0
FB29  C9 E1     CMP #$E1                        A:E1 X:02 Y:F2 P:E5 SP:F9 CYC:  0
FB2B  D0 48     BNE $FB75                       A:E1 X:02 Y:F2 P:67 SP:F9 CYC:  0
FB2D  60        RTS                             A:E1 X:02 Y:F2 P:67 SP:F9 CYC:  0
F3F4  AD 47 06  LDA $0647 = 52                  A:E1 X:02 Y:F2 P:67 SP:FB CYC:  0
F3F7  C9 52     CMP #$52                        A:52 X:02 Y:F2 P:65 SP:FB CYC:  0
F3F9  F0 02     BEQ $F3FD                       A:52 X:02 Y:F2 P:67 SP:FB CYC:  0
F3FD  A0 FF     LDY #$FF                        A:52 X:02 Y:F2 P:67 SP:FB CYC:  0
F3FF  A9 29     LDA #$29                        A:52 X:02 Y:FF P:E5 SP:FB CYC:  0
F401  8D 47 06  STA $0647 = 52                  A:29 X:02 Y:FF P:65 SP:FB CYC:  0
F404  20 2E FB  JSR $FB2E                       A:29 X:02 Y:FF P:65 SP:FB CYC:  0
FB2E  B8        CLV                             A:29 X:02 Y:FF P:65 SP:F9 CYC:  0
FB2F  18        CLC                             A:29 X:02 Y:FF P:25 SP:F9 CYC:  0
FB30  A9 42     LDA #$42                        A:29 X:02 Y:FF P:24 SP:F9 CYC:  0
FB32  60        RTS                             A:42 X:02 Y:FF P:24 SP:F9 CYC:  0
F407  53 45    *SRE ($45),Y = 0548 @ 0647 = 29  A:42 X:02 Y:FF P:24 SP:FB CYC:  0
F409  EA        NOP                             A:56 X:02 Y:FF P:25 SP:FB CYC:  0
F40A  EA        NOP                             A:56 X:02 Y:FF P:25 SP:FB CYC:  0
F40B  08        PHP                             A:56 X:02 Y:FF P:25 SP:FB CYC:  0
F40C  48        PHA                             A:56 X:02 Y:FF P:25 SP:FA CYC:  0
F40D  A0 F3     LDY #$F3                        A:56 X:02 Y:FF P:25 SP:F9 CYC:  0
F40F  68        PLA                             A:56 X:02 Y:F3 P:A5 SP:F9 CYC:  0
F410  28        PLP                             A:56 X:02 Y:F3 P:25 SP:FA CYC:  0
F411  20 33 FB  JSR $FB33                       A:56 X:02 Y:F3 P:25 SP:FB CYC:  0
FB33  70 40     BVS $FB75                       A:56 X:02 Y:F3 P:25 SP:F9 CYC:  0
FB35  F0 3E     BEQ $FB75                       A:56 X:02 Y:F3 P:25 SP:F9 CYC:  0
FB37  30 3C     BMI $FB75                       A:56 X:02 Y:F3 P:25 SP:F9 CYC:  0
FB39  90 3A     BCC $FB75                       A:56 X:02 Y:F3 P:25 SP:F9 CYC:  0
FB3B  C9 56     CMP #$56                        A:56 X:02 Y:F3 P:25 SP:F9 CYC:  0
FB3D  D0 36     BNE $FB75                       A:56 X:02 Y:F3 P:27 SP:F9 CYC:  0
FB3F  60        RTS                             A:56 X:02 Y:F3 P:27 SP:F9 CYC:  0
F414  AD 47 06  LDA $0647 = 14                  A:56 X:02 Y:F3 P:27 SP:FB CYC:  0
F417  C9 14     CMP #$14                        A:14 X:02 Y:F3 P:25 SP:FB CYC:  0
F419  F0 02     BEQ $F41D                       A:14 X:02 Y:F3 P:27 SP:FB CYC:  0
F41D  A0 FF     LDY #$FF                        A:14 X:02 Y:F3 P:27 SP:FB CYC:  0
F41F  A9 37     LDA #$37                        A:14 X:02 Y:FF P:A5 SP:FB CYC:  0
F421  8D 47 06  STA $0647 = 14                  A:37 X:02 Y:FF P:25 SP:FB CYC:  0
F424  20 40 FB  JSR $FB40                       A:37 X:02 Y:FF P:25 SP:FB CYC:  0
FB40  24 01     BIT $01 = FF                    A:37 X:02 Y:FF P:25 SP:F9 CYC:  0
FB42  38        SEC                             A:37 X:02 Y:FF P:E5 SP:F9 CYC:  0
FB43  A9 75     LDA #$75                        A:37 X:02 Y:FF P:E5 SP:F9 CYC:  0
FB45  60        RTS                             A:75 X:02 Y:FF P:65 SP:F9 CYC:  0
F427  53 45    *SRE ($45),Y = 0548 @ 0647 = 37  A:75 X:02 Y:FF P:65 SP:FB CYC:  0
F429  EA        NOP                             A:6E X:02 Y:FF P:65 SP:FB CYC:  0
F42A  EA        NOP                             A:6E X:02 Y:FF P:65 SP:FB CYC:  0
F42B  08        PHP                             A:6E X:02 Y:FF P:65 SP:FB CYC:  0
F42C  48        PHA                             A:6E X:02 Y:FF P:65 SP:FA CYC:  0
F42D  A0 F4     LDY #$F4                        A:6E X:02 Y:FF P:65 SP:F9 CYC:  0
F42F  68        PLA                             A:6E X:02 Y:F4 P:E5 SP:F9 CYC:  0
F430  28        PLP                             A:6E X:02 Y:F4 P:65 SP:FA CYC:  0
F431  20 46 FB  JSR $FB46                       A:6E X:02 Y:F4 P:65 SP:FB CYC:  0
FB46  50 2D     BVC $FB75                       A:6E X:02 Y:F4 P:65 SP:F9 CYC:  0
FB48  F0 2B     BEQ $FB75                       A:6E X:02 Y:F4 P:65 SP:F9 CYC:  0
FB4A  30 29     BMI $FB75                       A:6E X:02 Y:F4 P:65 SP:F9 CYC:  0
FB4C  90 27     BCC $FB75                       A:6E X:02 Y:F4 P:65 SP:F9 CYC:  0
FB4E  C9 6E     CMP #$6E                        A:6E X:02 Y:F4 P:65 SP:F9 CYC:  0
FB50  D0 23     BNE $FB75                       A:6E X:02 Y:F4 P:67 SP:F9 CYC:  0
FB52  60        RTS                             A:6E X:02 Y:F4 P:67 SP:F9 CYC:  0
F434  AD 47 06  LDA $0647 = 1B                  A:6E X:02 Y:F4 P:67 SP:FB CYC:  0
F437  C9 1B     CMP #$1B                        A:1B X:02 Y:F4 P:65 SP:FB CYC:  0
F439  F0 02     BEQ $F43D                       A:1B X:02 Y:F4 P:67 SP:FB CYC:  0
F43D  A0 F5     LDY #$F5                        A:1B X:02 Y:F4 P:67 SP:FB CYC:  0
F43F  A2 FF     LDX #$FF                        A:1B X:02 Y:F5 P:E5 SP:FB CYC:  0
F441  A9 A5     LDA #$A5                        A:1B X:FF Y:F5 P:E5 SP:FB CYC:  0
F443  85 47     STA $47 = 1B                    A:A5 X:FF Y:F5 P:E5 SP:FB CYC:  0
F445  20 1D FB  JSR $FB1D                       A:A5 X:FF Y:F5 P:E5 SP:FB CYC:  0
FB1D  24 01     BIT $01 = FF                    A:A5 X:FF Y:F5 P:E5 SP:F9 CYC:  0
FB1F  18        CLC                             A:A5 X:FF Y:F5 P:E5 SP:F9 CYC:  0
FB20  A9 B3     LDA #$B3                        A:A5 X:FF Y:F5 P:E4 SP:F9 CYC:  0
FB22  60        RTS                             A:B3 X:FF Y:F5 P:E4 SP:F9 CYC:  0
F448  57 48    *SRE $48,X @ 47 = A5             A:B3 X:FF Y:F5 P:E4 SP:FB CYC:  0
F44A  EA        NOP                             A:E1 X:FF Y:F5 P:E5 SP:FB CYC:  0
F44B  EA        NOP                             A:E1 X:FF Y:F5 P:E5 SP:FB CYC:  0
F44C  EA        NOP                             A:E1 X:FF Y:F5 P:E5 SP:FB CYC:  0
F44D  EA        NOP                             A:E1 X:FF Y:F5 P:E5 SP:FB CYC:  0
F44E  20 23 FB  JSR $FB23                       A:E1 X:FF Y:F5 P:E5 SP:FB CYC:  0
FB23  50 50     BVC $FB75                       A:E1 X:FF Y:F5 P:E5 SP:F9 CYC:  0
FB25  90 4E     BCC $FB75                       A:E1 X:FF Y:F5 P:E5 SP:F9 CYC:  0
FB27  10 4C     BPL $FB75                       A:E1 X:FF Y:F5 P:E5 SP:F9 CYC:  0
FB29  C9 E1     CMP #$E1                        A:E1 X:FF Y:F5 P:E5 SP:F9 CYC:  0
FB2B  D0 48     BNE $FB75                       A:E1 X:FF Y:F5 P:67 SP:F9 CYC:  0
FB2D  60        RTS                             A:E1 X:FF Y:F5 P:67 SP:F9 CYC:  0
F451  A5 47     LDA $47 = 52                    A:E1 X:FF Y:F5 P:67 SP:FB CYC:  0
F453  C9 52     CMP #$52                        A:52 X:FF Y:F5 P:65 SP:FB CYC:  0
F455  F0 02     BEQ $F459                       A:52 X:FF Y:F5 P:67 SP:FB CYC:  0
F459  C8        INY                             A:52 X:FF Y:F5 P:67 SP:FB CYC:  0
F45A  A9 29     LDA #$29                        A:52 X:FF Y:F6 P:E5 SP:FB CYC:  0
F45C  85 47     STA $47 = 52                    A:29 X:FF Y:F6 P:65 SP:FB CYC:  0
F45E  20 2E FB  JSR $FB2E                       A:29 X:FF Y:F6 P:65 SP:FB CYC:  0
FB2E  B8        CLV                             A:29 X:FF Y:F6 P:65 SP:F9 CYC:  0
FB2F  18        CLC                             A:29 X:FF Y:F6 P:25 SP:F9 CYC:  0
FB30  A9 42     LDA #$42                        A:29 X:FF Y:F6 P:24 SP:F9 CYC:  0
FB32  60        RTS                             A:42 X:FF Y:F6 P:24 SP:F9 CYC:  0
F461  57 48    *SRE $48,X @ 47 = 29             A:42 X:FF Y:F6 P:24 SP:FB CYC:  0
F463  EA        NOP                             A:56 X:FF Y:F6 P:25 SP:FB CYC:  0
F464  EA        NOP                             A:56 X:FF Y:F6 P:25 SP:FB CYC:  0
F465  EA        NOP                             A:56 X:FF Y:F6 P:25 SP:FB CYC:  0
F466  EA        NOP                             A:56 X:FF Y:F6 P:25 SP:FB CYC:  0
F467  20 33 FB  JSR $FB33                       A:56 X:FF Y:F6 P:25 SP:FB CYC:  0
FB33  70 40     BVS $FB75                       A:56 X:FF Y:F6 P:25 SP:F9 CYC:  0
FB35  F0 3E     BEQ $FB75                       A:56 X:FF Y:F6 P:25 SP:F9 CYC:  0
FB37  30 3C     BMI $FB75                       A:56 X:FF Y:F6 P:25 SP:F9 CYC:  0
FB39  90 3A     BCC $FB75                       A:56 X:FF Y:F6 P:25 SP:F9 CYC:  0
FB3B  C9 56     CMP #$56                        A:56 X:FF Y:F6 P:25 SP:F9 CYC:  0
FB3D  D0 36     BNE $FB75                       A:56 X:FF Y:F6 P:27 SP:F9 CYC:  0
FB3F  60        RTS                             A:56 X:FF Y:F6 P:27 SP:F9 CYC:  0
F46A  A5 47     LDA $47 = 14                    A:56 X:FF Y:F6 P:27 SP:FB CYC:  0
F46C  C9 14     CMP #$14                        A:14 X:FF Y:F6 P:25 SP:FB CYC:  0
F46E  F0 02     BEQ $F472                       A:14 X:FF Y:F6 P:27 SP:FB CYC:  0
F472  C8        INY                             A:14 X:FF Y:F6 P:27 SP:FB CYC:  0
F473  A9 37     LDA #$37                        A:14 X:FF Y:F7 P:A5 SP:FB CYC:  0
F475  85 47     STA $47 = 14                    A:37 X:FF Y:F7 P:25 SP:FB CYC:  0
F477  20 40 FB  JSR $FB40                       A:37 X:FF Y:F7 P:25 SP:FB CYC:  0
FB40  24 01     BIT $01 = FF                    A:37 X:FF Y:F7 P:25 SP:F9 CYC:  0
FB42  38        SEC                             A:37 X:FF Y:F7 P:E5 SP:F9 CYC:  0
FB43  A9 75     LDA #$75                        A:37 X:FF Y:F7 P:E5 SP:F9 CYC:  0
FB45  60        RTS                             A:75 X:FF Y:F7 P:65 SP:F9 CYC:  0
F47A  57 48    *SRE $48,X @ 47 = 37             A:75 X:FF Y:F7 P:65 SP:FB CYC:  0
F47C  EA        NOP                             A:6E X:FF Y:F7 P:65 SP:FB CYC:  0
F47D  EA        NOP                             A:6E X:FF Y:F7 P:65 SP:FB CYC:  0
F47E  EA        NOP                             A:6E X:FF Y:F7 P:65 SP:FB CYC:  0
F47F  EA        NOP                             A:6E X:FF Y:F7 P:65 SP:FB CYC:  0
F480  20 46 FB  JSR $FB46                       A:6E X:FF Y:F7 P:65 SP:FB CYC:  0
FB46  50 2D     BVC $FB75                       A:6E X:FF Y:F7 P:65 SP:F9 CYC:  0
FB48  F0 2B     BEQ $FB75                       A:6E X:FF Y:F7 P:65 SP:F9 CYC:  0
FB4A  30 29     BMI $FB75                       A:6E X:FF Y:F7 P:65 SP:F9 CYC:  0
FB4C  90 27     BCC $FB75                       A:6E X:FF Y:F7 P:65 SP:F9 CYC:  0
FB4E  C9 6E     CMP #$6E                        A:6E X:FF Y:F7 P:65 SP:F9 CYC:  0
FB50  D0 23     BNE $FB75                       A:6E X:FF Y:F7 P:67 SP:F9 CYC:  0
FB52  60        RTS                             A:6E X:FF Y:F7 P:67 SP:F9 CYC:  0
F483  A5 47     LDA $47 = 1B                    A:6E X:FF Y:F7 P:67 SP:FB CYC:  0
F485  C9 1B     CMP #$1B                        A:1B X:FF Y:F7 P:65 SP:FB CYC:  0
F487  F0 02     BEQ $F48B                       A:1B X:FF Y:F7 P:67 SP:FB CYC:  0
F48B  A9 A5     LDA #$A5                        A:1B X:FF Y:F7 P:67 SP:FB CYC:  0
F48D  8D 47 06  STA $0647 = 1B                  A:A5 X:FF Y:F7 P:E5 SP:FB CYC:  0
F490  A0 FF     LDY #$FF                        A:A5 X:FF Y:F7 P:E5 SP:FB CYC:  0
F492  20 1D FB  JSR $FB1D                       A:A5 X:FF Y:FF P:E5 SP:FB CYC:  0
FB1D  24 01     BIT $01 = FF                    A:A5 X:FF Y:FF P:E5 SP:F9 CYC:  0
FB1F  18        CLC                             A:A5 X:FF Y:FF P:E5 SP:F9 CYC:  0
FB20  A9 B3     LDA #$B3                        A:A5 X:FF Y:FF P:E4 SP:F9 CYC:  0
FB22  60        RTS                             A:B3 X:FF Y:FF P:E4 SP:F9 CYC:  0
F495  5B 48 05 *SRE $0548,Y @ 0647 = A5         A:B3 X:FF Y:FF P:E4 SP:FB CYC:  0
F498  EA        NOP                             A:E1 X:FF Y:FF P:E5 SP:FB CYC:  0
F499  EA        NOP                             A:E1 X:FF Y:FF P:E5 SP:FB CYC:  0
F49A  08        PHP                             A:E1 X:FF Y:FF P:E5 SP:FB CYC:  0
F49B  48        PHA                             A:E1 X:FF Y:FF P:E5 SP:FA CYC:  0
F49C  A0 F8     LDY #$F8                        A:E1 X:FF Y:FF P:E5 SP:F9 CYC:  0
F49E  68        PLA                             A:E1 X:FF Y:F8 P:E5 SP:F9 CYC:  0
F49F  28        PLP                             A:E1 X:FF Y:F8 P:E5 SP:FA CYC:  0
F4A0  20 23 FB  JSR $FB23                       A:E1 X:FF Y:F8 P:E5 SP:FB CYC:  0
FB23  50 50     BVC $FB75                       A:E1 X:FF Y:F8 P:E5 SP:F9 CYC:  0
FB25  90 4E     BCC $FB75                       A:E1 X:FF Y:F8 P:E5 SP:F9 CYC:  0
FB27  10 4C     BPL $FB75                       A:E1 X:FF Y:F8 P:E5 SP:F9 CYC:  0
FB29  C9 E1     CMP #$E1                        A:E1 X:FF Y:F8 P:E5 SP:F9 CYC:  0
FB2B  D0 48     BNE $FB75                       A:E1 X:FF Y:F8 P:67 SP:F9 CYC:  0
FB2D  60        RTS                             A:E1 X:FF Y:F8 P:67 SP:F9 CYC:  0
F4A3  AD 47 06  LDA $0647 = 52                  A:E1 X:FF Y:F8 P:67 SP:FB CYC:  0
F4A6  C9 52     CMP #$52                        A:52 X:FF Y:F8 P:65 SP:FB CYC:  0
F4A8  F0 02     BEQ $F4AC                       A:52 X:FF Y:F8 P:67 SP:FB CYC:  0
F4AC  A0 FF     LDY #$FF                        A:52 X:FF Y:F8 P:67 SP:FB CYC:  0
F4AE  A9 29     LDA #$29                        A:52 X:FF Y:FF P:E5 SP:FB CYC:  0
F4B0  8D 47 06  STA $0647 = 52                  A:29 X:FF Y:FF P:65 SP:FB CYC:  0
F4B3  20 2E FB  JSR $FB2E                       A:29 X:FF Y:FF P:65 SP:FB CYC:  0
FB2E  B8        CLV                             A:29 X:FF Y:FF P:65 SP:F9 CYC:  0
FB2F  18        CLC                             A:29 X:FF Y:FF P:25 SP:F9 CYC:  0
FB30  A9 42     LDA #$42                        A:29 X:FF Y:FF P:24 SP:F9 CYC:  0
FB32  60        RTS                             A:42 X:FF Y:FF P:24 SP:F9 CYC:  0
F4B6  5B 48 05 *SRE $0548,Y @ 0647 = 29         A:42 X:FF Y:FF P:24 SP:FB CYC:  0
F4B9  EA        NOP                             A:56 X:FF Y:FF P:25 SP:FB CYC:  0
F4BA  EA        NOP                             A:56 X:FF Y:FF P:25 SP:FB CYC:  0
F4BB  08        PHP                             A:56 X:FF Y:FF P:25 SP:FB CYC:  0
F4BC  48        PHA                             A:56 X:FF Y:FF P:25 SP:FA CYC:  0
F4BD  A0 F9     LDY #$F9                        A:56 X:FF Y:FF P:25 SP:F9 CYC:  0
F4BF  68        PLA                             A:56 X:FF Y:F9 P:A5 SP:F9 CYC:  0
F4C0  28        PLP                             A:56 X:FF Y:F9 P:25 SP:FA CYC:  0
F4C1  20 33 FB  JSR $FB33                       A:56 X:FF Y:F9 P:25 SP:FB CYC:  0
FB33  70 40     BVS $FB75                       A:56 X:FF Y:F9 P:25 SP:F9 CYC:  0
FB35  F0 3E     BEQ $FB75                       A:56 X:FF Y:F9 P:25 SP:F9 CYC:  0
FB37  30 3C     BMI $FB75                       A:56 X:FF Y:F9 P:25 SP:F9 CYC:  0
FB39  90 3A     BCC $FB75                       A:56 X:FF Y:F9 P:25 SP:F9 CYC:  0
FB3B  C9 56     CMP #$56                        A:56 X:FF Y:F9 P:25 SP:F9 CYC:  0
FB3D  D0 36     BNE $FB75                       A:56 X:FF Y:F9 P:27 SP:F9 CYC:  0
FB3F  60        RTS                             A:56 X:FF Y:F9 P:27 SP:F9 CYC:  0
F4C4  AD 47 06  LDA $0647 = 14                  A:56 X:FF Y:F9 P:27 SP:FB CYC:  0
F4C7  C9 14     CMP #$14                        A:14 X:FF Y:F9 P:25 SP:FB CYC:  0
F4C9  F0 02     BEQ $F4CD                       A:14 X:FF Y:F9 P:27 SP:FB CYC:  0
F4CD  A0 FF     LDY #$FF                        A:14 X:FF Y:F9 P:27 SP:FB CYC:  0
F4CF  A9 37     LDA #$37                        A:14 X:FF Y:FF P:A5 SP:FB CYC:  0
F4D1  8D 47 06  STA $0647 = 14                  A:37 X:FF Y:FF P:25 SP:FB CYC:  0
F4D4  20 40 FB  JSR $FB40                       A:37 X:FF Y:FF P:25 SP:FB CYC:  0
FB40  24 01     BIT $01 = FF                    A:37 X:FF Y:FF P:25 SP:F9 CYC:  0
FB42  38        SEC                             A:37 X:FF Y:FF P:E5 SP:F9 CYC:  0
FB43  A9 75     LDA #$75                        A:37 X:FF Y:FF P:E5 SP:F9 CYC:  0
FB45  60        RTS                             A:75 X:FF Y:FF P:65 SP:F9 CYC:  0
F4D7  5B 48 05 *SRE $0548,Y @ 0647 = 37         A:75 X:FF Y:FF P:65 SP:FB CYC:  0
F4DA  EA        NOP                             A:6E X:FF Y:FF P:65 SP:FB CYC:  0
F4DB  EA        NOP                             A:6E X:FF Y:FF P:65 SP:FB CYC:  0
F4DC  08        PHP                             A:6E X:FF Y:FF P:65 SP:FB CYC:  0
F4DD  48        PHA                             A:6E X:FF Y:FF P:65 SP:FA CYC:  0
F4DE  A0 FA     LDY #$FA                        A:6E X:FF Y:FF P:65 SP:F9 CYC:  0
F4E0  68        PLA                             A:6E X:FF Y:FA P:E5 SP:F9 CYC:  0
F4E1  28        PLP                             A:6E X:FF Y:FA P:65 SP:FA CYC:  0
F4E2  20 46 FB  JSR $FB46                       A:6E X:FF Y:FA P:65 SP:FB CYC:  0
FB46  50 2D     BVC $FB75                       A:6E X:FF Y:FA P:65 SP:F9 CYC:  0
FB48  F0 2B     BEQ $FB75                       A:6E X:FF Y:FA P:65 SP:F9 CYC:  0
FB4A  30 29     BMI $FB75                       A:6E X:FF Y:FA P:65 SP:F9 CYC:  0
FB4C  90 27     BCC $FB75                       A:6E X:FF Y:FA P:65 SP:F9 CYC:  0
FB4E  C9 6E     CMP #$6E                        A:6E X:FF Y:FA P:65 SP:F9 CYC:  0
FB50  D0 23     BNE $FB75                       A:6E X:FF Y:FA P:67 SP:F9 CYC:  0
FB52  60        RTS                             A:6E X:FF Y:FA P:67 SP:F9 CYC:  0
F4E5  AD 47 06  LDA $0647 = 1B                  A:6E X:FF Y:FA P:67 SP:FB CYC:  0
F4E8  C9 1B     CMP #$1B                        A:1B X:FF Y:FA P:65 SP:FB CYC:  0
F4EA  F0 02     BEQ $F4EE                       A:1B X:FF Y:FA P:67 SP:FB CYC:  0
F4EE  A0 FB     LDY #$FB                        A:1B X:FF Y:FA P:67 SP:FB CYC:  0
F4F0  A2 FF     LDX #$FF                        A:1B X:FF Y:FB P:E5 SP:FB CYC:  0
F4F2  A9 A5     LDA #$A5                        A:1B X:FF Y:FB P:E5 SP:FB CYC:  0
F4F4  8D 47 06  STA $0647 = 1B                  A:A5 X:FF Y:FB P:E5 SP:FB CYC:  0
F4F7  20 1D FB  JSR $FB1D                       A:A5 X:FF Y:FB P:E5 SP:FB CYC:  0
FB1D  24 01     BIT $01 = FF                    A:A5 X:FF Y:FB P:E5 SP:F9 CYC:  0
FB1F  18        CLC                             A:A5 X:FF Y:FB P:E5 SP:F9 CYC:  0
FB20  A9 B3     LDA #$B3                        A:A5 X:FF Y:FB P:E4 SP:F9 CYC:  0
FB22  60        RTS                             A:B3 X:FF Y:FB P:E4 SP:F9 CYC:  0
F4FA  5F 48 05 *SRE $0548,X @ 0647 = A5         A:B3 X:FF Y:FB P:E4 SP:FB CYC:  0
F4FD  EA        NOP                             A:E1 X:FF Y:FB P:E5 SP:FB CYC:  0
F4FE  EA        NOP                             A:E1 X:FF Y:FB P:E5 SP:FB CYC:  0
F4FF  EA        NOP                             A:E1 X:FF Y:FB P:E5 SP:FB CYC:  0
F500  EA        NOP                             A:E1 X:FF Y:FB P:E5 SP:FB CYC:  0
F501  20 23 FB  JSR $FB23                       A:E1 X:FF Y:FB P:E5 SP:FB CYC:  0
FB23  50 50     BVC $FB75                       A:E1 X:FF Y:FB P:E5 SP:F9 CYC:  0
FB25  90 4E     BCC $FB75                       A:E1 X:FF Y:FB P:E5 SP:F9 CYC:  0
FB27  10 4C     BPL $FB75                       A:E1 X:FF Y:FB P:E5 SP:F9 CYC:  0
FB29  C9 E1     CMP #$E1                        A:E1 X:FF Y:FB P:E5 SP:F9 CYC:  0
FB2B  D0 48     BNE $FB75                       A:E1 X:FF Y:FB P:67 SP:F9 CYC:  0
FB2D  60        RTS                             A:E1 X:FF Y:FB P:67 SP:F9 CYC:  0
F504  AD 47 06  LDA $0647 = 52                  A:E1 X:FF Y:FB P:67 SP:FB CYC:  0
F507  C9 52     CMP #$52                        A:52 X:FF Y:FB P:65 SP:FB CYC:  0
F509  F0 02     BEQ $F50D                       A:52 X:FF Y:FB P:67 SP:FB CYC:  0
F50D  C8        INY                             A:52 X:FF Y:FB P:67 SP:FB CYC:  0
F50E  A9 29     LDA #$29                        A:52 X:FF Y:FC P:E5 SP:FB CYC:  0
F510  8D 47 06  STA $0647 = 52                  A:29 X:FF Y:FC P:65 SP:FB CYC:  0
F513  20 2E FB  JSR $FB2E                       A:29 X:FF Y:FC P:65 SP:FB CYC:  0
FB2E  B8        CLV                             A:29 X:FF Y:FC P:65 SP:F9 CYC:  0
FB2F  18        CLC                             A:29 X:FF Y:FC P:25 SP:F9 CYC:  0
FB30  A9 42     LDA #$42                        A:29 X:FF Y:FC P:24 SP:F9 CYC:  0
FB32  60        RTS                             A:42 X:FF Y:FC P:24 SP:F9 CYC:  0
F516  5F 48 05 *SRE $0548,X @ 0647 = 29         A:42 X:FF Y:FC P:24 SP:FB CYC:  0
F519  EA        NOP                             A:56 X:FF Y:FC P:25 SP:FB CYC:  0
F51A  EA        NOP                             A:56 X:FF Y:FC P:25 SP:FB CYC:  0
F51B  EA        NOP                             A:56 X:FF Y:FC P:25 SP:FB CYC:  0
F51C  EA        NOP                             A:56 X:FF Y:FC P:25 SP:FB CYC:  0
F51D  20 33 FB  JSR $FB33                       A:56 X:FF Y:FC P:25 SP:FB CYC:  0
FB33  70 40     BVS $FB75                       A:56 X:FF Y:FC P:25 SP:F9 CYC:  0
FB35  F0 3E     BEQ $FB75                       A:56 X:FF Y:FC P:25 SP:F9 CYC:  0
FB37  30 3C     BMI $FB75                       A:56 X:FF Y:FC P:25 SP:F9 CYC:  0
FB39  90 3A     BCC $FB75                       A:56 X:FF Y:FC P:25 SP:F9 CYC:  0
FB3B  C9 56     CMP #$56                        A:56 X:FF Y:FC P:25 SP:F9 CYC:  0
FB3D  D0 36     BNE $FB75                       A:56 X:FF Y:FC P:27 SP:F9 CYC:  0
FB3F  60        RTS                             A:56 X:FF Y:FC P:27 SP:F9 CYC:  0
F520  AD 47 06  LDA $0647 = 14                  A:56 X:FF Y:FC P:27 SP:FB CYC:  0
F523  C9 14     CMP #$14                        A:14 X:FF Y:FC P:25 SP:FB CYC:  0
F525  F0 02     BEQ $F529                       A:14 X:FF Y:FC P:27 SP:FB CYC:  0
F529  C8        INY                             A:14 X:FF Y:FC P:27 SP:FB CYC:  0
F52A  A9 37     LDA #$37                        A:14 X:FF Y:FD P:A5 SP:FB CYC:  0
F52C  8D 47 06  STA $0647 = 14                  A:37 X:FF Y:FD P:25 SP:FB CYC:  0
F52F  20 40 FB  JSR $FB40                       A:37 X:FF Y:FD P:25 SP:FB CYC:  0
FB40  24 01     BIT $01 = FF                    A:37 X:FF Y:FD P:25 SP:F9 CYC:  0
FB42  38        SEC                             A:37 X:FF Y:FD P:E5 SP:F9 CYC:  0
FB43  A9 75     LDA #$75                        A:37 X:FF Y:FD P:E5 SP:F9 CYC:  0
FB45  60        RTS                             A:75 X:FF Y:FD P:65 SP:F9 CYC:  0
F532  5F 48 05 *SRE $0548,X @ 0647 = 37         A:75 X:FF Y:FD P:65 SP:FB CYC:  0
F535  EA        NOP                             A:6E X:FF Y:FD P:65 SP:FB CYC:  0
F536  EA        NOP                             A:6E X:FF Y:FD P:65 SP:FB CYC:  0
F537  EA        NOP                             A:6E X:FF Y:FD P:65 SP:FB CYC:  0
F538  EA        NOP                             A:6E X:FF Y:FD P:65 SP:FB CYC:  0
F539  20 46 FB  JSR $FB46                       A:6E X:FF Y:FD P:65 SP:FB CYC:  0
FB46  50 2D     BVC $FB75                       A:6E X:FF Y:FD P:65 SP:F9 CYC:  0
FB48  F0 2B     BEQ $FB75                       A:6E X:FF Y:FD P:65 SP:F9 CYC:  0
FB4A  30 29     BMI $FB75                       A:6E X:FF Y:FD P:65 SP:F9 CYC:  0
FB4C  90 27     BCC $FB75                       A:6E X:FF Y:FD P:65 SP:F9 CYC:  0
FB4E  C9 6E     CMP #$6E                        A:6E X:FF Y:FD P:65 SP:F9 CYC:  0
FB50  D0 23     BNE $FB75                       A:6E X:FF Y:FD P:67 SP:F9 CYC:  0
FB52  60        RTS                             A:6E X:FF Y:FD P:67 SP:F9 CYC:  0
F53C  AD 47 06  LDA $0647 = 1B                  A:6E X:FF Y:FD P:67 SP:FB CYC:  0
F53F  C9 1B     CMP #$1B                        A:1B X:FF Y:FD P:65 SP:FB CYC:  0
F541  F0 02     BEQ $F545                       A:1B X:FF Y:FD P:67 SP:FB CYC:  0
F545  60        RTS                             A:1B X:FF Y:FD P:67 SP:FB CYC:  0
C64A  A5 00     LDA $00 = 00                    A:1B X:FF Y:FD P:67 SP:FD CYC:  0
C64C  85 11     STA $11 = 00                    A:00 X:FF Y:FD P:67 SP:FD CYC:  0
C64E  A9 00     LDA #$00                        A:00 X:FF Y:FD P:67 SP:FD CYC:  0
C650  85 00     STA $00 = 00                    A:00 X:FF Y:FD P:67 SP:FD CYC:  0
C652  20 46 F5  JSR $F546                       A:00 X:FF Y:FD P:67 SP:FD CYC:  0
F546  A9 FF     LDA #$FF                        A:00 X:FF Y:FD P:67 SP:FB CYC:  0
F548  85 01     STA $01 = FF                    A:FF X:FF Y:FD P:E5 SP:FB CYC:  0
F54A  A0 01     LDY #$01                        A:FF X:FF Y:FD P:E5 SP:FB CYC:  0
F54C  A2 02     LDX #$02                        A:FF X:FF Y:01 P:65 SP:FB CYC:  0
F54E  A9 47     LDA #$47                        A:FF X:02 Y:01 P:65 SP:FB CYC:  0
F550  85 47     STA $47 = 1B                    A:47 X:02 Y:01 P:65 SP:FB CYC:  0
F552  A9 06     LDA #$06                        A:47 X:02 Y:01 P:65 SP:FB CYC:  0
F554  85 48     STA $48 = 06                    A:06 X:02 Y:01 P:65 SP:FB CYC:  0
F556  A9 A5     LDA #$A5                        A:06 X:02 Y:01 P:65 SP:FB CYC:  0
F558  8D 47 06  STA $0647 = 1B                  A:A5 X:02 Y:01 P:E5 SP:FB CYC:  0
F55B  20 E9 FA  JSR $FAE9                       A:A5 X:02 Y:01 P:E5 SP:FB CYC:  0
FAE9  24 01     BIT $01 = FF                    A:A5 X:02 Y:01 P:E5 SP:F9 CYC:  0
FAEB  18        CLC                             A:A5 X:02 Y:01 P:E5 SP:F9 CYC:  0
FAEC  A9 B2     LDA #$B2                        A:A5 X:02 Y:01 P:E4 SP:F9 CYC:  0
FAEE  60        RTS                             A:B2 X:02 Y:01 P:E4 SP:F9 CYC:  0
F55E  63 45    *RRA ($45,X) @ 47 = 0647 = A5    A:B2 X:02 Y:01 P:E4 SP:FB CYC:  0
F560  EA        NOP                             A:05 X:02 Y:01 P:25 SP:FB CYC:  0
F561  EA        NOP                             A:05 X:02 Y:01 P:25 SP:FB CYC:  0
F562  EA        NOP                             A:05 X:02 Y:01 P:25 SP:FB CYC:  0
F563  EA        NOP                             A:05 X:02 Y:01 P:25 SP:FB CYC:  0
F564  20 EF FA  JSR $FAEF                       A:05 X:02 Y:01 P:25 SP:FB CYC:  0
FAEF  70 2A     BVS $FB1B                       A:05 X:02 Y:01 P:25 SP:F9 CYC:  0
FAF1  90 28     BCC $FB1B                       A:05 X:02 Y:01 P:25 SP:F9 CYC:  0
FAF3  30 26     BMI $FB1B                       A:05 X:02 Y:01 P:25 SP:F9 CYC:  0
FAF5  C9 05     CMP #$05                        A:05 X:02 Y:01 P:25 SP:F9 CYC:  0
FAF7  D0 22     BNE $FB1B                       A:05 X:02 Y:01 P:27 SP:F9 CYC:  0
FAF9  60        RTS                             A:05 X:02 Y:01 P:27 SP:F9 CYC:  0
F567  AD 47 06  LDA $0647 = 52                  A:05 X:02 Y:01 P:27 SP:FB CYC:  0
F56A  C9 52     CMP #$52                        A:52 X:02 Y:01 P:25 SP:FB CYC:  0
F56C  F0 02     BEQ $F570                       A:52 X:02 Y:01 P:27 SP:FB CYC:  0
F570  C8        INY                             A:52 X:02 Y:01 P:27 SP:FB CYC:  0
F571  A9 29     LDA #$29                        A:52 X:02 Y:02 P:25 SP:FB CYC:  0
F573  8D 47 06  STA $0647 = 52                  A:29 X:02 Y:02 P:25 SP:FB CYC:  0
F576  20 FA FA  JSR $FAFA                       A:29 X:02 Y:02 P:25 SP:FB CYC:  0
FAFA  B8        CLV                             A:29 X:02 Y:02 P:25 SP:F9 CYC:  0
FAFB  18        CLC                             A:29 X:02 Y:02 P:25 SP:F9 CYC:  0
FAFC  A9 42     LDA #$42                        A:29 X:02 Y:02 P:24 SP:F9 CYC:  0
FAFE  60        RTS                             A:42 X:02 Y:02 P:24 SP:F9 CYC:  0
F579  63 45    *RRA ($45,X) @ 47 = 0647 = 29    A:42 X:02 Y:02 P:24 SP:FB CYC:  0
F57B  EA        NOP                             A:57 X:02 Y:02 P:24 SP:FB CYC:  0
F57C  EA        NOP                             A:57 X:02 Y:02 P:24 SP:FB CYC:  0
F57D  EA        NOP                             A:57 X:02 Y:02 P:24 SP:FB CYC:  0
F57E  EA        NOP                             A:57 X:02 Y:02 P:24 SP:FB CYC:  0
F57F  20 FF FA  JSR $FAFF                       A:57 X:02 Y:02 P:24 SP:FB CYC:  0
FAFF  70 1A     BVS $FB1B                       A:57 X:02 Y:02 P:24 SP:F9 CYC:  0
FB01  30 18     BMI $FB1B                       A:57 X:02 Y:02 P:24 SP:F9 CYC:  0
FB03  B0 16     BCS $FB1B                       A:57 X:02 Y:02 P:24 SP:F9 CYC:  0
FB05  C9 57     CMP #$57                        A:57 X:02 Y:02 P:24 SP:F9 CYC:  0
FB07  D0 12     BNE $FB1B                       A:57 X:02 Y:02 P:27 SP:F9 CYC:  0
FB09  60        RTS                             A:57 X:02 Y:02 P:27 SP:F9 CYC:  0
F582  AD 47 06  LDA $0647 = 14                  A:57 X:02 Y:02 P:27 SP:FB CYC:  0
F585  C9 14     CMP #$14                        A:14 X:02 Y:02 P:25 SP:FB CYC:  0
F587  F0 02     BEQ $F58B                       A:14 X:02 Y:02 P:27 SP:FB CYC:  0
F58B  C8        INY                             A:14 X:02 Y:02 P:27 SP:FB CYC:  0
F58C  A9 37     LDA #$37                        A:14 X:02 Y:03 P:25 SP:FB CYC:  0
F58E  8D 47 06  STA $0647 = 14                  A:37 X:02 Y:03 P:25 SP:FB CYC:  0
F591  20 0A FB  JSR $FB0A                       A:37 X:02 Y:03 P:25 SP:FB CYC:  0
FB0A  24 01     BIT $01 = FF                    A:37 X:02 Y:03 P:25 SP:F9 CYC:  0
FB0C  38        SEC                             A:37 X:02 Y:03 P:E5 SP:F9 CYC:  0
FB0D  A9 75     LDA #$75                        A:37 X:02 Y:03 P:E5 SP:F9 CYC:  0
FB0F  60        RTS                             A:75 X:02 Y:03 P:65 SP:F9 CYC:  0
F594  63 45    *RRA ($45,X) @ 47 = 0647 = 37    A:75 X:02 Y:03 P:65 SP:FB CYC:  0
F596  EA        NOP                             A:11 X:02 Y:03 P:25 SP:FB CYC:  0
F597  EA        NOP                             A:11 X:02 Y:03 P:25 SP:FB CYC:  0
F598  EA        NOP                             A:11 X:02 Y:03 P:25 SP:FB CYC:  0
F599  EA        NOP                             A:11 X:02 Y:03 P:25 SP:FB CYC:  0
F59A  20 10 FB  JSR $FB10                       A:11 X:02 Y:03 P:25 SP:FB CYC:  0
FB10  70 09     BVS $FB1B                       A:11 X:02 Y:03 P:25 SP:F9 CYC:  0
FB12  30 07     BMI $FB1B                       A:11 X:02 Y:03 P:25 SP:F9 CYC:  0
FB14  90 05     BCC $FB1B                       A:11 X:02 Y:03 P:25 SP:F9 CYC:  0
FB16  C9 11     CMP #$11                        A:11 X:02 Y:03 P:25 SP:F9 CYC:  0
FB18  D0 01     BNE $FB1B                       A:11 X:02 Y:03 P:27 SP:F9 CYC:  0
FB1A  60        RTS                             A:11 X:02 Y:03 P:27 SP:F9 CYC:  0
F59D  AD 47 06  LDA $0647 = 9B                  A:11 X:02 Y:03 P:27 SP:FB CYC:  0
F5A0  C9 9B     CMP #$9B                        A:9B X:02 Y:03 P:A5 SP:FB CYC:  0
F5A2  F0 02     BEQ $F5A6                       A:9B X:02 Y:03 P:27 SP:FB CYC:  0
F5A6  C8        INY                             A:9B X:02 Y:03 P:27 SP:FB CYC:  0
F5A7  A9 A5     LDA #$A5                        A:9B X:02 Y:04 P:25 SP:FB CYC:  0
F5A9  85 47     STA $47 = 47                    A:A5 X:02 Y:04 P:A5 SP:FB CYC:  0
F5AB  20 E9 FA  JSR $FAE9                       A:A5 X:02 Y:04 P:A5 SP:FB CYC:  0
FAE9  24 01     BIT $01 = FF                    A:A5 X:02 Y:04 P:A5 SP:F9 CYC:  0
FAEB  18        CLC                             A:A5 X:02 Y:04 P:E5 SP:F9 CYC:  0
FAEC  A9 B2     LDA #$B2                        A:A5 X:02 Y:04 P:E4 SP:F9 CYC:  0
FAEE  60        RTS                             A:B2 X:02 Y:04 P:E4 SP:F9 CYC:  0
F5AE  67 47    *RRA $47 = A5                    A:B2 X:02 Y:04 P:E4 SP:FB CYC:  0
F5B0  EA        NOP                             A:05 X:02 Y:04 P:25 SP:FB CYC:  0
F5B1  EA        NOP                             A:05 X:02 Y:04 P:25 SP:FB CYC:  0
F5B2  EA        NOP                             A:05 X:02 Y:04 P:25 SP:FB CYC:  0
F5B3  EA        NOP                             A:05 X:02 Y:04 P:25 SP:FB CYC:  0
F5B4  20 EF FA  JSR $FAEF                       A:05 X:02 Y:04 P:25 SP:FB CYC:  0
FAEF  70 2A     BVS $FB1B                       A:05 X:02 Y:04 P:25 SP:F9 CYC:  0
FAF1  90 28     BCC $FB1B                       A:05 X:02 Y:04 P:25 SP:F9 CYC:  0
FAF3  30 26     BMI $FB1B                       A:05 X:02 Y:04 P:25 SP:F9 CYC:  0
FAF5  C9 05     CMP #$05                        A:05 X:02 Y:04 P:25 SP:F9 CYC:  0
FAF7  D0 22     BNE $FB1B                       A:05 X:02 Y:04 P:27 SP:F9 CYC:  0
FAF9  60        RTS                             A:05 X:02 Y:04 P:27 SP:F9 CYC:  0
F5B7  A5 47     LDA $47 = 52                    A:05 X:02 Y:04 P:27 SP:FB CYC:  0
F5B9  C9 52     CMP #$52                        A:52 X:02 Y:04 P:25 SP:FB CYC:  0
F5BB  F0 02     BEQ $F5BF                       A:52 X:02 Y:04 P:27 SP:FB CYC:  0
F5BF  C8        INY                             A:52 X:02 Y:04 P:27 SP:FB CYC:  0
F5C0  A9 29     LDA #$29                        A:52 X:02 Y:05 P:25 SP:FB CYC:  0
F5C2  85 47     STA $47 = 52                    A:29 X:02 Y:05 P:25 SP:FB CYC:  0
F5C4  20 FA FA  JSR $FAFA                       A:29 X:02 Y:05 P:25 SP:FB CYC:  0
FAFA  B8        CLV                             A:29 X:02 Y:05 P:25 SP:F9 CYC:  0
FAFB  18        CLC                             A:29 X:02 Y:05 P:25 SP:F9 CYC:  0
FAFC  A9 42     LDA #$42                        A:29 X:02 Y:05 P:24 SP:F9 CYC:  0
FAFE  60        RTS                             A:42 X:02 Y:05 P:24 SP:F9 CYC:  0
F5C7  67 47    *RRA $47 = 29                    A:42 X:02 Y:05 P:24 SP:FB CYC:  0
F5C9  EA        NOP                             A:57 X:02 Y:05 P:24 SP:FB CYC:  0
F5CA  EA        NOP                             A:57 X:02 Y:05 P:24 SP:FB CYC:  0
F5CB  EA        NOP                             A:57 X:02 Y:05 P:24 SP:FB CYC:  0
F5CC  EA        NOP                             A:57 X:02 Y:05 P:24 SP:FB CYC:  0
F5CD  20 FF FA  JSR $FAFF                       A:57 X:02 Y:05 P:24 SP:FB CYC:  0
FAFF  70 1A     BVS $FB1B                       A:57 X:02 Y:05 P:24 SP:F9 CYC:  0
FB01  30 18     BMI $FB1B                       A:57 X:02 Y:05 P:24 SP:F9 CYC:  0
FB03  B0 16     BCS $FB1B                       A:57 X:02 Y:05 P:24 SP:F9 CYC:  0
FB05  C9 57     CMP #$57                        A:57 X:02 Y:05 P:24 SP:F9 CYC:  0
FB07  D0 12     BNE $FB1B                       A:57 X:02 Y:05 P:27 SP:F9 CYC:  0
FB09  60        RTS                             A:57 X:02 Y:05 P:27 SP:F9 CYC:  0
F5D0  A5 47     LDA $47 = 14                    A:57 X:02 Y:05 P:27 SP:FB CYC:  0
F5D2  C9 14     CMP #$14                        A:14 X:02 Y:05 P:25 SP:FB CYC:  0
F5D4  F0 02     BEQ $F5D8                       A:14 X:02 Y:05 P:27 SP:FB CYC:  0
F5D8  C8        INY                             A:14 X:02 Y:05 P:27 SP:FB CYC:  0
F5D9  A9 37     LDA #$37                        A:14 X:02 Y:06 P:25 SP:FB CYC:  0
F5DB  85 47     STA $47 = 14                    A:37 X:02 Y:06 P:25 SP:FB CYC:  0
F5DD  20 0A FB  JSR $FB0A                       A:37 X:02 Y:06 P:25 SP:FB CYC:  0
FB0A  24 01     BIT $01 = FF                    A:37 X:02 Y:06 P:25 SP:F9 CYC:  0
FB0C  38        SEC                             A:37 X:02 Y:06 P:E5 SP:F9 CYC:  0
FB0D  A9 75     LDA #$75                        A:37 X:02 Y:06 P:E5 SP:F9 CYC:  0
FB0F  60        RTS                             A:75 X:02 Y:06 P:65 SP:F9 CYC:  0
F5E0  67 47    *RRA $47 = 37                    A:75 X:02 Y:06 P:65 SP:FB CYC:  0
F5E2  EA        NOP                             A:11 X:02 Y:06 P:25 SP:FB CYC:  0
F5E3  EA        NOP                             A:11 X:02 Y:06 P:25 SP:FB CYC:  0
F5E4  EA        NOP                             A:11 X:02 Y:06 P:25 SP:FB CYC:  0
F5E5  EA        NOP                             A:11 X:02 Y:06 P:25 SP:FB CYC:  0
F5E6  20 10 FB  JSR $FB10                       A:11 X:02 Y:06 P:25 SP:FB CYC:  0
FB10  70 09     BVS $FB1B                       A:11 X:02 Y:06 P:25 SP:F9 CYC:  0
FB12  30 07     BMI $FB1B                       A:11 X:02 Y:06 P:25 SP:F9 CYC:  0
FB14  90 05     BCC $FB1B                       A:11 X:02 Y:06 P:25 SP:F9 CYC:  0
FB16  C9 11     CMP #$11                        A:11 X:02 Y:06 P:25 SP:F9 CYC:  0
FB18  D0 01     BNE $FB1B                       A:11 X:02 Y:06 P:27 SP:F9 CYC:  0
FB1A  60        RTS                             A:11 X:02 Y:06 P:27 SP:F9 CYC:  0
F5E9  A5 47     LDA $47 = 9B                    A:11 X:02 Y:06 P:27 SP:FB CYC:  0
F5EB  C9 9B     CMP #$9B                        A:9B X:02 Y:06 P:A5 SP:FB CYC:  0
F5ED  F0 02     BEQ $F5F1                       A:9B X:02 Y:06 P:27 SP:FB CYC:  0
F5F1  C8        INY                             A:9B X:02 Y:06 P:27 SP:FB CYC:  0
F5F2  A9 A5     LDA #$A5                        A:9B X:02 Y:07 P:25 SP:FB CYC:  0
F5F4  8D 47 06  STA $0647 = 9B                  A:A5 X:02 Y:07 P:A5 SP:FB CYC:  0
F5F7  20 E9 FA  JSR $FAE9                       A:A5 X:02 Y:07 P:A5 SP:FB CYC:  0
FAE9  24 01     BIT $01 = FF                    A:A5 X:02 Y:07 P:A5 SP:F9 CYC:  0
FAEB  18        CLC                             A:A5 X:02 Y:07 P:E5 SP:F9 CYC:  0
FAEC  A9 B2     LDA #$B2                        A:A5 X:02 Y:07 P:E4 SP:F9 CYC:  0
FAEE  60        RTS                             A:B2 X:02 Y:07 P:E4 SP:F9 CYC:  0
F5FA  6F 47 06 *RRA $0647 = A5                  A:B2 X:02 Y:07 P:E4 SP:FB CYC:  0
F5FD  EA        NOP                             A:05 X:02 Y:07 P:25 SP:FB CYC:  0
F5FE  EA        NOP                             A:05 X:02 Y:07 P:25 SP:FB CYC:  0
F5FF  EA        NOP                             A:05 X:02 Y:07 P:25 SP:FB CYC:  0
F600  EA        NOP                             A:05 X:02 Y:07 P:25 SP:FB CYC:  0
F601  20 EF FA  JSR $FAEF                       A:05 X:02 Y:07 P:25 SP:FB CYC:  0
FAEF  70 2A     BVS $FB1B                       A:05 X:02 Y:07 P:25 SP:F9 CYC:  0
FAF1  90 28     BCC $FB1B                       A:05 X:02 Y:07 P:25 SP:F9 CYC:  0
FAF3  30 26     BMI $FB1B                       A:05 X:02 Y:07 P:25 SP:F9 CYC:  0
FAF5  C9 05     CMP #$05                        A:05 X:02 Y:07 P:25 SP:F9 CYC:  0
FAF7  D0 22     BNE $FB1B                       A:05 X:02 Y:07 P:27 SP:F9 CYC:  0
FAF9  60        RTS                             A:05 X:02 Y:07 P:27 SP:F9 CYC:  0
F604  AD 47 06  LDA $0647 = 52                  A:05 X:02 Y:07 P:27 SP:FB CYC:  0
F607  C9 52     CMP #$52                        A:52 X:02 Y:07 P:25 SP:FB CYC:  0
F609  F0 02     BEQ $F60D                       A:52 X:02 Y:07 P:27 SP:FB CYC:  0
F60D  C8        INY                             A:52 X:02 Y:07 P:27 SP:FB CYC:  0
F60E  A9 29     LDA #$29                        A:52 X:02 Y:08 P:25 SP:FB CYC:  0
F610  8D 47 06  STA $0647 = 52                  A:29 X:02 Y:08 P:25 SP:FB CYC:  0
F613  20 FA FA  JSR $FAFA                       A:29 X:02 Y:08 P:25 SP:FB CYC:  0
FAFA  B8        CLV                             A:29 X:02 Y:08 P:25 SP:F9 CYC:  0
FAFB  18        CLC                             A:29 X:02 Y:08 P:25 SP:F9 CYC:  0
FAFC  A9 42     LDA #$42                        A:29 X:02 Y:08 P:24 SP:F9 CYC:  0
FAFE  60        RTS                             A:42 X:02 Y:08 P:24 SP:F9 CYC:  0
F616  6F 47 06 *RRA $0647 = 29                  A:42 X:02 Y:08 P:24 SP:FB CYC:  0
F619  EA        NOP                             A:57 X:02 Y:08 P:24 SP:FB CYC:  0
F61A  EA        NOP                             A:57 X:02 Y:08 P:24 SP:FB CYC:  0
F61B  EA        NOP                             A:57 X:02 Y:08 P:24 SP:FB CYC:  0
F61C  EA        NOP                             A:57 X:02 Y:08 P:24 SP:FB CYC:  0
F61D  20 FF FA  JSR $FAFF                       A:57 X:02 Y:08 P:24 SP:FB CYC:  0
FAFF  70 1A     BVS $FB1B                       A:57 X:02 Y:08 P:24 SP:F9 CYC:  0
FB01  30 18     BMI $FB1B                       A:57 X:02 Y:08 P:24 SP:F9 CYC:  0
FB03  B0 16     BCS $FB1B                       A:57 X:02 Y:08 P:24 SP:F9 CYC:  0
FB05  C9 57     CMP #$57                        A:57 X:02 Y:08 P:24 SP:F9 CYC:  0
FB07  D0 12     BNE $FB1B                       A:57 X:02 Y:08 P:27 SP:F9 CYC:  0
FB09  60        RTS                             A:57 X:02 Y:08 P:27 SP:F9 CYC:  0
F620  AD 47 06  LDA $0647 = 14                  A:57 X:02 Y:08 P:27 SP:FB CYC:  0
F623  C9 14     CMP #$14                        A:14 X:02 Y:08 P:25 SP:FB CYC:  0
F625  F0 02     BEQ $F629                       A:14 X:02 Y:08 P:27 SP:FB CYC:  0
F629  C8        INY                             A:14 X:02 Y:08 P:27 SP:FB CYC:  0
F62A  A9 37     LDA #$37                        A:14 X:02 Y:09 P:25 SP:FB CYC:  0
F62C  8D 47 06  STA $0647 = 14                  A:37 X:02 Y:09 P:25 SP:FB CYC:  0
F62F  20 0A FB  JSR $FB0A                       A:37 X:02 Y:09 P:25 SP:FB CYC:  0
FB0A  24 01     BIT $01 = FF                    A:37 X:02 Y:09 P:25 SP:F9 CYC:  0
FB0C  38        SEC                             A:37 X:02 Y:09 P:E5 SP:F9 CYC:  0
FB0D  A9 75     LDA #$75                        A:37 X:02 Y:09 P:E5 SP:F9 CYC:  0
FB0F  60        RTS                             A:75 X:02 Y:09 P:65 SP:F9 CYC:  0
F632  6F 47 06 *RRA $0647 = 37                  A:75 X:02 Y:09 P:65 SP:FB CYC:  0
F635  EA        NOP                             A:11 X:02 Y:09 P:25 SP:FB CYC:  0
F636  EA        NOP                             A:11 X:02 Y:09 P:25 SP:FB CYC:  0
F637  EA        NOP                             A:11 X:02 Y:09 P:25 SP:FB CYC:  0
F638  EA        NOP                             A:11 X:02 Y:09 P:25 SP:FB CYC:  0
F639  20 10 FB  JSR $FB10                       A:11 X:02 Y:09 P:25 SP:FB CYC:  0
FB10  70 09     BVS $FB1B                       A:11 X:02 Y:09 P:25 SP:F9 CYC:  0
FB12  30 07     BMI $FB1B                       A:11 X:02 Y:09 P:25 SP:F9 CYC:  0
FB14  90 05     BCC $FB1B                       A:11 X:02 Y:09 P:25 SP:F9 CYC:  0
FB16  C9 11     CMP #$11                        A:11 X:02 Y:09 P:25 SP:F9 CYC:  0
FB18  D0 01     BNE $FB1B                       A:11 X:02 Y:09 P:27 SP:F9 CYC:  0
FB1A  60        RTS                             A:11 X:02 Y:09 P:27 SP:F9 CYC:  0
F63C  AD 47 06  LDA $0647 = 9B                  A:11 X:02 Y:09 P:27 SP:FB CYC:  0
F63F  C9 9B     CMP #$9B                        A:9B X:02 Y:09 P:A5 SP:FB CYC:  0
F641  F0 02     BEQ $F645                       A:9B X:02 Y:09 P:27 SP:FB CYC:  0
F645  A9 A5     LDA #$A5                        A:9B X:02 Y:09 P:27 SP:FB CYC:  0
F647  8D 47 06  STA $0647 = 9B                  A:A5 X:02 Y:09 P:A5 SP:FB CYC:  0
F64A  A9 48     LDA #$48                        A:A5 X:02 Y:09 P:A5 SP:FB CYC:  0
F64C  85 45     STA $45 = 48                    A:48 X:02 Y:09 P:25 SP:FB CYC:  0
F64E  A9 05     LDA #$05                        A:48 X:02 Y:09 P:25 SP:FB CYC:  0
F650  85 46     STA $46 = 05                    A:05 X:02 Y:09 P:25 SP:FB CYC:  0
F652  A0 FF     LDY #$FF                        A:05 X:02 Y:09 P:25 SP:FB CYC:  0
F654  20 E9 FA  JSR $FAE9                       A:05 X:02 Y:FF P:A5 SP:FB CYC:  0
FAE9  24 01     BIT $01 = FF                    A:05 X:02 Y:FF P:A5 SP:F9 CYC:  0
FAEB  18        CLC                             A:05 X:02 Y:FF P:E5 SP:F9 CYC:  0
FAEC  A9 B2     LDA #$B2                        A:05 X:02 Y:FF P:E4 SP:F9 CYC:  0
FAEE  60        RTS                             A:B2 X:02 Y:FF P:E4 SP:F9 CYC:  0
F657  73 45    *RRA ($45),Y = 0548 @ 0647 = A5  A:B2 X:02 Y:FF P:E4 SP:FB CYC:  0
F659  EA        NOP                             A:05 X:02 Y:FF P:25 SP:FB CYC:  0
F65A  EA        NOP                             A:05 X:02 Y:FF P:25 SP:FB CYC:  0
F65B  08        PHP                             A:05 X:02 Y:FF P:25 SP:FB CYC:  0
F65C  48        PHA                             A:05 X:02 Y:FF P:25 SP:FA CYC:  0
F65D  A0 0A     LDY #$0A                        A:05 X:02 Y:FF P:25 SP:F9 CYC:  0
F65F  68        PLA                             A:05 X:02 Y:0A P:25 SP:F9 CYC:  0
F660  28        PLP                             A:05 X:02 Y:0A P:25 SP:FA CYC:  0
F661  20 EF FA  JSR $FAEF                       A:05 X:02 Y:0A P:25 SP:FB CYC:  0
FAEF  70 2A     BVS $FB1B                       A:05 X:02 Y:0A P:25 SP:F9 CYC:  0
FAF1  90 28     BCC $FB1B                       A:05 X:02 Y:0A P:25 SP:F9 CYC:  0
FAF3  30 26     BMI $FB1B                       A:05 X:02 Y:0A P:25 SP:F9 CYC:  0
FAF5  C9 05     CMP #$05                        A:05 X:02 Y:0A P:25 SP:F9 CYC:  0
FAF7  D0 22     BNE $FB1B                       A:05 X:02 Y:0A P:27 SP:F9 CYC:  0
FAF9  60        RTS                             A:05 X:02 Y:0A P:27 SP:F9 CYC:  0
F664  AD 47 06  LDA $0647 = 52                  A:05 X:02 Y:0A P:27 SP:FB CYC:  0
F667  C9 52     CMP #$52                        A:52 X:02 Y:0A P:25 SP:FB CYC:  0
F669  F0 02     BEQ $F66D                       A:52 X:02 Y:0A P:27 SP:FB CYC:  0
F66D  A0 FF     LDY #$FF                        A:52 X:02 Y:0A P:27 SP:FB CYC:  0
F66F  A9 29     LDA #$29                        A:52 X:02 Y:FF P:A5 SP:FB CYC:  0
F671  8D 47 06  STA $0647 = 52                  A:29 X:02 Y:FF P:25 SP:FB CYC:  0
F674  20 FA FA  JSR $FAFA                       A:29 X:02 Y:FF P:25 SP:FB CYC:  0
FAFA  B8        CLV                             A:29 X:02 Y:FF P:25 SP:F9 CYC:  0
FAFB  18        CLC                             A:29 X:02 Y:FF P:25 SP:F9 CYC:  0
FAFC  A9 42     LDA #$42                        A:29 X:02 Y:FF P:24 SP:F9 CYC:  0
FAFE  60        RTS                             A:42 X:02 Y:FF P:24 SP:F9 CYC:  0
F677  73 45    *RRA ($45),Y = 0548 @ 0647 = 29  A:42 X:02 Y:FF P:24 SP:FB CYC:  0
F679  EA        NOP                             A:57 X:02 Y:FF P:24 SP:FB CYC:  0
F67A  EA        NOP                             A:57 X:02 Y:FF P:24 SP:FB CYC:  0
F67B  08        PHP                             A:57 X:02 Y:FF P:24 SP:FB CYC:  0
F67C  48        PHA                             A:57 X:02 Y:FF P:24 SP:FA CYC:  0
F67D  A0 0B     LDY #$0B                        A:57 X:02 Y:FF P:24 SP:F9 CYC:  0
F67F  68        PLA                             A:57 X:02 Y:0B P:24 SP:F9 CYC:  0
F680  28        PLP                             A:57 X:02 Y:0B P:24 SP:FA CYC:  0
F681  20 FF FA  JSR $FAFF                       A:57 X:02 Y:0B P:24 SP:FB CYC:  0
FAFF  70 1A     BVS $FB1B                       A:57 X:02 Y:0B P:24 SP:F9 CYC:  0
FB01  30 18     BMI $FB1B                       A:57 X:02 Y:0B P:24 SP:F9 CYC:  0
FB03  B0 16     BCS $FB1B                       A:57 X:02 Y:0B P:24 SP:F9 CYC:  0
FB05  C9 57     CMP #$57                        A:57 X:02 Y:0B P:24 SP:F9 CYC:  0
FB07  D0 12     BNE $FB1B                       A:57 X:02 Y:0B P:27 SP:F9 CYC:  0
FB09  60        RTS                             A:57 X:02 Y:0B P:27 SP:F9 CYC:  0
F684  AD 47 06  LDA $0647 = 14                  A:57 X:02 Y:0B P:27 SP:FB CYC:  0
F687  C9 14     CMP #$14                        A:14 X:02 Y:0B P:25 SP:FB CYC:  0
F689  F0 02     BEQ $F68D                       A:14 X:02 Y:0B P:27 SP:FB CYC:  0
F68D  A0 FF     LDY #$FF                        A:14 X:02 Y:0B P:27 SP:FB CYC:  0
F68F  A9 37     LDA #$37                        A:14 X:02 Y:FF P:A5 SP:FB CYC:  0
F691  8D 47 06  STA $0647 = 14                  A:37 X:02 Y:FF P:25 SP:FB CYC:  0
F694  20 0A FB  JSR $FB0A                       A:37 X:02 Y:FF P:25 SP:FB CYC:  0
FB0A  24 01     BIT $01 = FF                    A:37 X:02 Y:FF P:25 SP:F9 CYC:  0
FB0C  38        SEC                             A:37 X:02 Y:FF P:E5 SP:F9 CYC:  0
FB0D  A9 75     LDA #$75                        A:37 X:02 Y:FF P:E5 SP:F9 CYC:  0
FB0F  60        RTS                             A:75 X:02 Y:FF P:65 SP:F9 CYC:  0
F697  73 45    *RRA ($45),Y = 0548 @ 0647 = 37  A:75 X:02 Y:FF P:65 SP:FB CYC:  0
F699  EA        NOP                             A:11 X:02 Y:FF P:25 SP:FB CYC:  0
F69A  EA        NOP                             A:11 X:02 Y:FF P:25 SP:FB CYC:  0
F69B  08        PHP                             A:11 X:02 Y:FF P:25 SP:FB CYC:  0
F69C  48        PHA                             A:11 X:02 Y:FF P:25 SP:FA CYC:  0
F69D  A0 0C     LDY #$0C                        A:11 X:02 Y:FF P:25 SP:F9 CYC:  0
F69F  68        PLA                             A:11 X:02 Y:0C P:25 SP:F9 CYC:  0
F6A0  28        PLP                             A:11 X:02 Y:0C P:25 SP:FA CYC:  0
F6A1  20 10 FB  JSR $FB10                       A:11 X:02 Y:0C P:25 SP:FB CYC:  0
FB10  70 09     BVS $FB1B                       A:11 X:02 Y:0C P:25 SP:F9 CYC:  0
FB12  30 07     BMI $FB1B                       A:11 X:02 Y:0C P:25 SP:F9 CYC:  0
FB14  90 05     BCC $FB1B                       A:11 X:02 Y:0C P:25 SP:F9 CYC:  0
FB16  C9 11     CMP #$11                        A:11 X:02 Y:0C P:25 SP:F9 CYC:  0
FB18  D0 01     BNE $FB1B                       A:11 X:02 Y:0C P:27 SP:F9 CYC:  0
FB1A  60        RTS                             A:11 X:02 Y:0C P:27 SP:F9 CYC:  0
F6A4  AD 47 06  LDA $0647 = 9B                  A:11 X:02 Y:0C P:27 SP:FB CYC:  0
F6A7  C9 9B     CMP #$9B                        A:9B X:02 Y:0C P:A5 SP:FB CYC:  0
F6A9  F0 02     BEQ $F6AD                       A:9B X:02 Y:0C P:27 SP:FB CYC:  0
F6AD  A0 0D     LDY #$0D                        A:9B X:02 Y:0C P:27 SP:FB CYC:  0
F6AF  A2 FF     LDX #$FF                        A:9B X:02 Y:0D P:25 SP:FB CYC:  0
F6B1  A9 A5     LDA #$A5                        A:9B X:FF Y:0D P:A5 SP:FB CYC:  0
F6B3  85 47     STA $47 = 9B                    A:A5 X:FF Y:0D P:A5 SP:FB CYC:  0
F6B5  20 E9 FA  JSR $FAE9                       A:A5 X:FF Y:0D P:A5 SP:FB CYC:  0
FAE9  24 01     BIT $01 = FF                    A:A5 X:FF Y:0D P:A5 SP:F9 CYC:  0
FAEB  18        CLC                             A:A5 X:FF Y:0D P:E5 SP:F9 CYC:  0
FAEC  A9 B2     LDA #$B2                        A:A5 X:FF Y:0D P:E4 SP:F9 CYC:  0
FAEE  60        RTS                             A:B2 X:FF Y:0D P:E4 SP:F9 CYC:  0
F6B8  77 48    *RRA $48,X @ 47 = A5             A:B2 X:FF Y:0D P:E4 SP:FB CYC:  0
F6BA  EA        NOP                             A:05 X:FF Y:0D P:25 SP:FB CYC:  0
F6BB  EA        NOP                             A:05 X:FF Y:0D P:25 SP:FB CYC:  0
F6BC  EA        NOP                             A:05 X:FF Y:0D P:25 SP:FB CYC:  0
F6BD  EA        NOP                             A:05 X:FF Y:0D P:25 SP:FB CYC:  0
F6BE  20 EF FA  JSR $FAEF                       A:05 X:FF Y:0D P:25 SP:FB CYC:  0
FAEF  70 2A     BVS $FB1B                       A:05 X:FF Y:0D P:25 SP:F9 CYC:  0
FAF1  90 28     BCC $FB1B                       A:05 X:FF Y:0D P:25 SP:F9 CYC:  0
FAF3  30 26     BMI $FB1B                       A:05 X:FF Y:0D P:25 SP:F9 CYC:  0
FAF5  C9 05     CMP #$05                        A:05 X:FF Y:0D P:25 SP:F9 CYC:  0
FAF7  D0 22     BNE $FB1B                       A:05 X:FF Y:0D P:27 SP:F9 CYC:  0
FAF9  60        RTS                             A:05 X:FF Y:0D P:27 SP:F9 CYC:  0
F6C1  A5 47     LDA $47 = 52                    A:05 X:FF Y:0D P:27 SP:FB CYC:  0
F6C3  C9 52     CMP #$52                        A:52 X:FF Y:0D P:25 SP:FB CYC:  0
F6C5  F0 02     BEQ $F6C9                       A:52 X:FF Y:0D P:27 SP:FB CYC:  0
F6C9  C8        INY                             A:52 X:FF Y:0D P:27 SP:FB CYC:  0
F6CA  A9 29     LDA #$29                        A:52 X:FF Y:0E P:25 SP:FB CYC:  0
F6CC  85 47     STA $47 = 52                    A:29 X:FF Y:0E P:25 SP:FB CYC:  0
F6CE  20 FA FA  JSR $FAFA                       A:29 X:FF Y:0E P:25 SP:FB CYC:  0
FAFA  B8        CLV                             A:29 X:FF Y:0E P:25 SP:F9 CYC:  0
FAFB  18        CLC                             A:29 X:FF Y:0E P:25 SP:F9 CYC:  0
FAFC  A9 42     LDA #$42                        A:29 X:FF Y:0E P:24 SP:F9 CYC:  0
FAFE  60        RTS                             A:42 X:FF Y:0E P:24 SP:F9 CYC:  0
F6D1  77 48    *RRA $48,X @ 47 = 29             A:42 X:FF Y:0E P:24 SP:FB CYC:  0
F6D3  EA        NOP                             A:57 X:FF Y:0E P:24 SP:FB CYC:  0
F6D4  EA        NOP                             A:57 X:FF Y:0E P:24 SP:FB CYC:  0
F6D5  EA        NOP                             A:57 X:FF Y:0E P:24 SP:FB CYC:  0
F6D6  EA        NOP                             A:57 X:FF Y:0E P:24 SP:FB CYC:  0
F6D7  20 FF FA  JSR $FAFF                       A:57 X:FF Y:0E P:24 SP:FB CYC:  0
FAFF  70 1A     BVS $FB1B                       A:57 X:FF Y:0E P:24 SP:F9 CYC:  0
FB01  30 18     BMI $FB1B                       A:57 X:FF Y:0E P:24 SP:F9 CYC:  0
FB03  B0 16     BCS $FB1B                       A:57 X:FF Y:0E P:24 SP:F9 CYC:  0
FB05  C9 57     CMP #$57                        A:57 X:FF Y:0E P:24 SP:F9 CYC:  0
FB07  D0 12     BNE $FB1B                       A:57 X:FF Y:0E P:27 SP:F9 CYC:  0
FB09  60        RTS                             A:57 X:FF Y:0E P:27 SP:F9 CYC:  0
F6DA  A5 47     LDA $47 = 14                    A:57 X:FF Y:0E P:27 SP:FB CYC:  0
F6DC  C9 14     CMP #$14                        A:14 X:FF Y:0E P:25 SP:FB CYC:  0
F6DE  F0 02     BEQ $F6E2                       A:14 X:FF Y:0E P:27 SP:FB CYC:  0
F6E2  C8        INY                             A:14 X:FF Y:0E P:27 SP:FB CYC:  0
F6E3  A9 37     LDA #$37                        A:14 X:FF Y:0F P:25 SP:FB CYC:  0
F6E5  85 47     STA $47 = 14                    A:37 X:FF Y:0F P:25 SP:FB CYC:  0
F6E7  20 0A FB  JSR $FB0A                       A:37 X:FF Y:0F P:25 SP:FB CYC:  0
FB0A  24 01     BIT $01 = FF                    A:37 X:FF Y:0F P:25 SP:F9 CYC:  0
FB0C  38        SEC                             A:37 X:FF Y:0F P:E5 SP:F9 CYC:  0
FB0D  A9 75     LDA #$75                        A:37 X:FF Y:0F P:E5 SP:F9 CYC:  0
FB0F  60        RTS                             A:75 X:FF Y:0F P:65 SP:F9 CYC:  0
F6EA  77 48    *RRA $48,X @ 47 = 37             A:75 X:FF Y:0F P:65 SP:FB CYC:  0
F6EC  EA        NOP                             A:11 X:FF Y:0F P:25 SP:FB CYC:  0
F6ED  EA        NOP                             A:11 X:FF Y:0F P:25 SP:FB CYC:  0
F6EE  EA        NOP                             A:11 X:FF Y:0F P:25 SP:FB CYC:  0
F6EF  EA        NOP                             A:11 X:FF Y:0F P:25 SP:FB CYC:  0
F6F0  20 10 FB  JSR $FB10                       A:11 X:FF Y:0F P:25 SP:FB CYC:  0
FB10  70 09     BVS $FB1B                       A:11 X:FF Y:0F P:25 SP:F9 CYC:  0
FB12  30 07     BMI $FB1B                       A:11 X:FF Y:0F P:25 SP:F9 CYC:  0
FB14  90 05     BCC $FB1B                       A:11 X:FF Y:0F P:25 SP:F9 CYC:  0
FB16  C9 11     CMP #$11                        A:11 X:FF Y:0F P:25 SP:F9 CYC:  0
FB18  D0 01     BNE $FB1B                       A:11 X:FF Y:0F P:27 SP:F9 CYC:  0
FB1A  60        RTS                             A:11 X:FF Y:0F P:27 SP:F9 CYC:  0
F6F3  A5 47     LDA $47 = 9B                    A:11 X:FF Y:0F P:27 SP:FB CYC:  0
F6F5  C9 9B     CMP #$9B                        A:9B X:FF Y:0F P:A5 SP:FB CYC:  0
F6F7  F0 02     BEQ $F6FB                       A:9B X:FF Y:0F P:27 SP:FB CYC:  0
F6FB  A9 A5     LDA #$A5                        A:9B X:FF Y:0F P:27 SP:FB CYC:  0
F6FD  8D 47 06  STA $0647 = 9B                  A:A5 X:FF Y:0F P:A5 SP:FB CYC:  0
F700  A0 FF     LDY #$FF                        A:A5 X:FF Y:0F P:A5 SP:FB CYC:  0
F702  20 E9 FA  JSR $FAE9                       A:A5 X:FF Y:FF P:A5 SP:FB CYC:  0
FAE9  24 01     BIT $01 = FF                    A:A5 X:FF Y:FF P:A5 SP:F9 CYC:  0
FAEB  18        CLC                             A:A5 X:FF Y:FF P:E5 SP:F9 CYC:  0
FAEC  A9 B2     LDA #$B2                        A:A5 X:FF Y:FF P:E4 SP:F9 CYC:  0
FAEE  60        RTS                             A:B2 X:FF Y:FF P:E4 SP:F9 CYC:  0
F705  7B 48 05 *RRA $0548,Y @ 0647 = A5         A:B2 X:FF Y:FF P:E4 SP:FB CYC:  0
F708  EA        NOP                             A:05 X:FF Y:FF P:25 SP:FB CYC:  0
F709  EA        NOP                             A:05 X:FF Y:FF P:25 SP:FB CYC:  0
F70A  08        PHP                             A:05 X:FF Y:FF P:25 SP:FB CYC:  0
F70B  48        PHA                             A:05 X:FF Y:FF P:25 SP:FA CYC:  0
F70C  A0 10     LDY #$10                        A:05 X:FF Y:FF P:25 SP:F9 CYC:  0
F70E  68        PLA                             A:05 X:FF Y:10 P:25 SP:F9 CYC:  0
F70F  28        PLP                             A:05 X:FF Y:10 P:25 SP:FA CYC:  0
F710  20 EF FA  JSR $FAEF                       A:05 X:FF Y:10 P:25 SP:FB CYC:  0
FAEF  70 2A     BVS $FB1B                       A:05 X:FF Y:10 P:25 SP:F9 CYC:  0
FAF1  90 28     BCC $FB1B                       A:05 X:FF Y:10 P:25 SP:F9 CYC:  0
FAF3  30 26     BMI $FB1B                       A:05 X:FF Y:10 P:25 SP:F9 CYC:  0
FAF5  C9 05     CMP #$05                        A:05 X:FF Y:10 P:25 SP:F9 CYC:  0
FAF7  D0 22     BNE $FB1B                       A:05 X:FF Y:10 P:27 SP:F9 CYC:  0
FAF9  60        RTS                             A:05 X:FF Y:10 P:27 SP:F9 CYC:  0
F713  AD 47 06  LDA $0647 = 52                  A:05 X:FF Y:10 P:27 SP:FB CYC:  0
F716  C9 52     CMP #$52                        A:52 X:FF Y:10 P:25 SP:FB CYC:  0
F718  F0 02     BEQ $F71C                       A:52 X:FF Y:10 P:27 SP:FB CYC:  0
F71C  A0 FF     LDY #$FF                        A:52 X:FF Y:10 P:27 SP:FB CYC:  0
F71E  A9 29     LDA #$29                        A:52 X:FF Y:FF P:A5 SP:FB CYC:  0
F720  8D 47 06  STA $0647 = 52                  A:29 X:FF Y:FF P:25 SP:FB CYC:  0
F723  20 FA FA  JSR $FAFA                       A:29 X:FF Y:FF P:25 SP:FB CYC:  0
FAFA  B8        CLV                             A:29 X:FF Y:FF P:25 SP:F9 CYC:  0
FAFB  18        CLC                             A:29 X:FF Y:FF P:25 SP:F9 CYC:  0
FAFC  A9 42     LDA #$42                        A:29 X:FF Y:FF P:24 SP:F9 CYC:  0
FAFE  60        RTS                             A:42 X:FF Y:FF P:24 SP:F9 CYC:  0
F726  7B 48 05 *RRA $0548,Y @ 0647 = 29         A:42 X:FF Y:FF P:24 SP:FB CYC:  0
F729  EA        NOP                             A:57 X:FF Y:FF P:24 SP:FB CYC:  0
F72A  EA        NOP                             A:57 X:FF Y:FF P:24 SP:FB CYC:  0
F72B  08        PHP                             A:57 X:FF Y:FF P:24 SP:FB CYC:  0
F72C  48        PHA                             A:57 X:FF Y:FF P:24 SP:FA CYC:  0
F72D  A0 11     LDY #$11                        A:57 X:FF Y:FF P:24 SP:F9 CYC:  0
F72F  68        PLA                             A:57 X:FF Y:11 P:24 SP:F9 CYC:  0
F730  28        PLP                             A:57 X:FF Y:11 P:24 SP:FA CYC:  0
F731  20 FF FA  JSR $FAFF                       A:57 X:FF Y:11 P:24 SP:FB CYC:  0
FAFF  70 1A     BVS $FB1B                       A:57 X:FF Y:11 P:24 SP:F9 CYC:  0
FB01  30 18     BMI $FB1B                       A:57 X:FF Y:11 P:24 SP:F9 CYC:  0
FB03  B0 16     BCS $FB1B                       A:57 X:FF Y:11 P:24 SP:F9 CYC:  0
FB05  C9 57     CMP #$57                        A:57 X:FF Y:11 P:24 SP:F9 CYC:  0
FB07  D0 12     BNE $FB1B                       A:57 X:FF Y:11 P:27 SP:F9 CYC:  0
FB09  60        RTS                             A:57 X:FF Y:11 P:27 SP:F9 CYC:  0
F734  AD 47 06  LDA $0647 = 14                  A:57 X:FF Y:11 P:27 SP:FB CYC:  0
F737  C9 14     CMP #$14                        A:14 X:FF Y:11 P:25 SP:FB CYC:  0
F739  F0 02     BEQ $F73D                       A:14 X:FF Y:11 P:27 SP:FB CYC:  0
F73D  A0 FF     LDY #$FF                        A:14 X:FF Y:11 P:27 SP:FB CYC:  0
F73F  A9 37     LDA #$37                        A:14 X:FF Y:FF P:A5 SP:FB CYC:  0
F741  8D 47 06  STA $0647 = 14                  A:37 X:FF Y:FF P:25 SP:FB CYC:  0
F744  20 0A FB  JSR $FB0A                       A:37 X:FF Y:FF P:25 SP:FB CYC:  0
FB0A  24 01     BIT $01 = FF                    A:37 X:FF Y:FF P:25 SP:F9 CYC:  0
FB0C  38        SEC                             A:37 X:FF Y:FF P:E5 SP:F9 CYC:  0
FB0D  A9 75     LDA #$75                        A:37 X:FF Y:FF P:E5 SP:F9 CYC:  0
FB0F  60        RTS                             A:75 X:FF Y:FF P:65 SP:F9 CYC:  0
F747  7B 48 05 *RRA $0548,Y @ 0647 = 37         A:75 X:FF Y:FF P:65 SP:FB CYC:  0
F74A  EA        NOP                             A:11 X:FF Y:FF P:25 SP:FB CYC:  0
F74B  EA        NOP                             A:11 X:FF Y:FF P:25 SP:FB CYC:  0
F74C  08        PHP                             A:11 X:FF Y:FF P:25 SP:FB CYC:  0
F74D  48        PHA                             A:11 X:FF Y:FF P:25 SP:FA CYC:  0
F74E  A0 12     LDY #$12                        A:11 X:FF Y:FF P:25 SP:F9 CYC:  0
F750  68        PLA                             A:11 X:FF Y:12 P:25 SP:F9 CYC:  0
F751  28        PLP                             A:11 X:FF Y:12 P:25 SP:FA CYC:  0
F752  20 10 FB  JSR $FB10                       A:11 X:FF Y:12 P:25 SP:FB CYC:  0
FB10  70 09     BVS $FB1B                       A:11 X:FF Y:12 P:25 SP:F9 CYC:  0
FB12  30 07     BMI $FB1B                       A:11 X:FF Y:12 P:25 SP:F9 CYC:  0
FB14  90 05     BCC $FB1B                       A:11 X:FF Y:12 P:25 SP:F9 CYC:  0
FB16  C9 11     CMP #$11                        A:11 X:FF Y:12 P:25 SP:F9 CYC:  0
FB18  D0 01     BNE $FB1B                       A:11 X:FF Y:12 P:27 SP:F9 CYC:  0
FB1A  60        RTS                             A:11 X:FF Y:12 P:27 SP:F9 CYC:  0
F755  AD 47 06  LDA $0647 = 9B                  A:11 X:FF Y:12 P:27 SP:FB CYC:  0
F758  C9 9B     CMP #$9B                        A:9B X:FF Y:12 P:A5 SP:FB CYC:  0
F75A  F0 02     BEQ $F75E                       A:9B X:FF Y:12 P:27 SP:FB CYC:  0
F75E  A0 13     LDY #$13                        A:9B X:FF Y:12 P:27 SP:FB CYC:  0
F760  A2 FF     LDX #$FF                        A:9B X:FF Y:13 P:25 SP:FB CYC:  0
F762  A9 A5     LDA #$A5                        A:9B X:FF Y:13 P:A5 SP:FB CYC:  0
F764  8D 47 06  STA $0647 = 9B                  A:A5 X:FF Y:13 P:A5 SP:FB CYC:  0
F767  20 E9 FA  JSR $FAE9                       A:A5 X:FF Y:13 P:A5 SP:FB CYC:  0
FAE9  24 01     BIT $01 = FF                    A:A5 X:FF Y:13 P:A5 SP:F9 CYC:  0
FAEB  18        CLC                             A:A5 X:FF Y:13 P:E5 SP:F9 CYC:  0
FAEC  A9 B2     LDA #$B2                        A:A5 X:FF Y:13 P:E4 SP:F9 CYC:  0
FAEE  60        RTS                             A:B2 X:FF Y:13 P:E4 SP:F9 CYC:  0
F76A  7F 48 05 *RRA $0548,X @ 0647 = A5         A:B2 X:FF Y:13 P:E4 SP:FB CYC:  0
F76D  EA        NOP                             A:05 X:FF Y:13 P:25 SP:FB CYC:  0
F76E  EA        NOP                             A:05 X:FF Y:13 P:25 SP:FB CYC:  0
F76F  EA        NOP                             A:05 X:FF Y:13 P:25 SP:FB CYC:  0
F770  EA        NOP                             A:05 X:FF Y:13 P:25 SP:FB CYC:  0
F771  20 EF FA  JSR $FAEF                       A:05 X:FF Y:13 P:25 SP:FB CYC:  0
FAEF  70 2A     BVS $FB1B                       A:05 X:FF Y:13 P:25 SP:F9 CYC:  0
FAF1  90 28     BCC $FB1B                       A:05 X:FF Y:13 P:25 SP:F9 CYC:  0
FAF3  30 26     BMI $FB1B                       A:05 X:FF Y:13 P:25 SP:F9 CYC:  0
FAF5  C9 05     CMP #$05                        A:05 X:FF Y:13 P:25 SP:F9 CYC:  0
FAF7  D0 22     BNE $FB1B                       A:05 X:FF Y:13 P:27 SP:F9 CYC:  0
FAF9  60        RTS                             A:05 X:FF Y:13 P:27 SP:F9 CYC:  0
F774  AD 47 06  LDA $0647 = 52                  A:05 X:FF Y:13 P:27 SP:FB CYC:  0
F777  C9 52     CMP #$52                        A:52 X:FF Y:13 P:25 SP:FB CYC:  0
F779  F0 02     BEQ $F77D                       A:52 X:FF Y:13 P:27 SP:FB CYC:  0
F77D  C8        INY                             A:52 X:FF Y:13 P:27 SP:FB CYC:  0
F77E  A9 29     LDA #$29                        A:52 X:FF Y:14 P:25 SP:FB CYC:  0
F780  8D 47 06  STA $0647 = 52                  A:29 X:FF Y:14 P:25 SP:FB CYC:  0
F783  20 FA FA  JSR $FAFA                       A:29 X:FF Y:14 P:25 SP:FB CYC:  0
FAFA  B8        CLV                             A:29 X:FF Y:14 P:25 SP:F9 CYC:  0
FAFB  18        CLC                             A:29 X:FF Y:14 P:25 SP:F9 CYC:  0
FAFC  A9 42     LDA #$42                        A:29 X:FF Y:14 P:24 SP:F9 CYC:  0
FAFE  60        RTS                             A:42 X:FF Y:14 P:24 SP:F9 CYC:  0
F786  7F 48 05 *RRA $0548,X @ 0647 = 29         A:42 X:FF Y:14 P:24 SP:FB CYC:  0
F789  EA        NOP                             A:57 X:FF Y:14 P:24 SP:FB CYC:  0
F78A  EA        NOP                             A:57 X:FF Y:14 P:24 SP:FB CYC:  0
F78B  EA        NOP                             A:57 X:FF Y:14 P:24 SP:FB CYC:  0
F78C  EA        NOP                             A:57 X:FF Y:14 P:24 SP:FB CYC:  0
F78D  20 FF FA  JSR $FAFF                       A:57 X:FF Y:14 P:24 SP:FB CYC:  0
FAFF  70 1A     BVS $FB1B                       A:57 X:FF Y:14 P:24 SP:F9 CYC:  0
FB01  30 18     BMI $FB1B                       A:57 X:FF Y:14 P:24 SP:F9 CYC:  0
FB03  B0 16     BCS $FB1B                       A:57 X:FF Y:14 P:24 SP:F9 CYC:  0
FB05  C9 57     CMP #$57                        A:57 X:FF Y:14 P:24 SP:F9 CYC:  0
FB07  D0 12     BNE $FB1B                       A:57 X:FF Y:14 P:27 SP:F9 CYC:  0
FB09  60        RTS                             A:57 X:FF Y:14 P:27 SP:F9 CYC:  0
F790  AD 47 06  LDA $0647 = 14                  A:57 X:FF Y:14 P:27 SP:FB CYC:  0
F793  C9 14     CMP #$14                        A:14 X:FF Y:14 P:25 SP:FB CYC:  0
F795  F0 02     BEQ $F799                       A:14 X:FF Y:14 P:27 SP:FB CYC:  0
F799  C8        INY                             A:14 X:FF Y:14 P:27 SP:FB CYC:  0
F79A  A9 37     LDA #$37                        A:14 X:FF Y:15 P:25 SP:FB CYC:  0
F79C  8D 47 06  STA $0647 = 14                  A:37 X:FF Y:15 P:25 SP:FB CYC:  0
F79F  20 0A FB  JSR $FB0A                       A:37 X:FF Y:15 P:25 SP:FB CYC:  0
FB0A  24 01     BIT $01 = FF                    A:37 X:FF Y:15 P:25 SP:F9 CYC:  0
FB0C  38        SEC                             A:37 X:FF Y:15 P:E5 SP:F9 CYC:  0
FB0D  A9 75     LDA #$75                        A:37 X:FF Y:15 P:E5 SP:F9 CYC:  0
FB0F  60        RTS                             A:75 X:FF Y:15 P:65 SP:F9 CYC:  0
F7A2  7F 48 05 *RRA $0548,X @ 0647 = 37         A:75 X:FF Y:15 P:65 SP:FB CYC:  0
F7A5  EA        NOP                             A:11 X:FF Y:15 P:25 SP:FB CYC:  0
F7A6  EA        NOP                             A:11 X:FF Y:15 P:25 SP:FB CYC:  0
F7A7  EA        NOP                             A:11 X:FF Y:15 P:25 SP:FB CYC:  0
F7A8  EA        NOP                             A:11 X:FF Y:15 P:25 SP:FB CYC:  0
F7A9  20 10 FB  JSR $FB10                       A:11 X:FF Y:15 P:25 SP:FB CYC:  0
FB10  70 09     BVS $FB1B                       A:11 X:FF Y:15 P:25 SP:F9 CYC:  0
FB12  30 07     BMI $FB1B                       A:11 X:FF Y:15 P:25 SP:F9 CYC:  0
FB14  90 05     BCC $FB1B                       A:11 X:FF Y:15 P:25 SP:F9 CYC:  0
FB16  C9 11     CMP #$11                        A:11 X:FF Y:15 P:25 SP:F9 CYC:  0
FB18  D0 01     BNE $FB1B                       A:11 X:FF Y:15 P:27 SP:F9 CYC:  0
FB1A  60        RTS                             A:11 X:FF Y:15 P:27 SP:F9 CYC:  0
F7AC  AD 47 06  LDA $0647 = 9B                  A:11 X:FF Y:15 P:27 SP:FB CYC:  0
F7AF  C9 9B     CMP #$9B                        A:9B X:FF Y:15 P:A5 SP:FB CYC:  0
F7B1  F0 02     BEQ $F7B5                       A:9B X:FF Y:15 P:27 SP:FB CYC:  0
F7B5  60        RTS                             A:9B X:FF Y:15 P:27 SP:FB CYC:  0
C655  A5 00     LDA $00 = 00                    A:9B X:FF Y:15 P:27 SP:FD CYC:  0
C657  05 10     ORA $10 = 00                    A:00 X:FF Y:15 P:27 SP:FD CYC:  0
C659  05 11     ORA $11 = 00                    A:00 X:FF Y:15 P:27 SP:FD CYC:  0
C65B  F0 0E     BEQ $C66B                       A:00 X:FF Y:15 P:27 SP:FD CYC:  0
C66B  20 89 C6  JSR $C689                       A:00 X:FF Y:15 P:27 SP:FD CYC:  0
C689  A9 02     LDA #$02                        A:00 X:FF Y:15 P:27 SP:FB CYC:  0
C68B  8D 15 40  STA $4015 = 00                  A:02 X:FF Y:15 P:25 SP:FB CYC:  0
C68E  A9 3F     LDA #$3F                        A:02 X:FF Y:15 P:25 SP:FB CYC:  0
C690  8D 04 40  STA $4004 = 00                  A:3F X:FF Y:15 P:25 SP:FB CYC:  0
C693  A9 9A     LDA #$9A                        A:3F X:FF Y:15 P:25 SP:FB CYC:  0
C695  8D 05 40  STA $4005 = 00                  A:9A X:FF Y:15 P:A5 SP:FB CYC:  0
C698  A9 FF     LDA #$FF                        A:9A X:FF Y:15 P:A5 SP:FB CYC:  0
C69A  8D 06 40  STA $4006 = 00                  A:FF X:FF Y:15 P:A5 SP:FB CYC:  0
C69D  A9 00     LDA #$00                        A:FF X:FF Y:15 P:A5 SP:FB CYC:  0
C69F  8D 07 40  STA $4007 = 00                  A:00 X:FF Y:15 P:27 SP:FB CYC:  0
C6A2  60        RTS                             A:00 X:FF Y:15 P:27 SP:FB CYC:  0
C66E  60        RTS                             A:00 X:FF Y:15 P:27 SP:FD CYC:  0
[NES_CPU] RTS when SP = $FD -> terminate
